Archive member included to satisfy reference by file (symbol)

c:/dev/gcc-arm-none-eabi/bin/../lib/gcc/arm-none-eabi/6.3.1/../../../../arm-none-eabi/lib/thumb/v7e-m/fpv4-sp/hard\libc_nano.a(lib_a-atof.o)
                              output\REVOLT\config.o (symbol from plugin) (atof)
c:/dev/gcc-arm-none-eabi/bin/../lib/gcc/arm-none-eabi/6.3.1/../../../../arm-none-eabi/lib/thumb/v7e-m/fpv4-sp/hard\libc_nano.a(lib_a-atoi.o)
                              output\REVOLT\config.o (symbol from plugin) (atoi)
c:/dev/gcc-arm-none-eabi/bin/../lib/gcc/arm-none-eabi/6.3.1/../../../../arm-none-eabi/lib/thumb/v7e-m/fpv4-sp/hard\libc_nano.a(lib_a-itoa.o)
                              output\REVOLT\spektrumTelemetry.o (symbol from plugin) (itoa)
c:/dev/gcc-arm-none-eabi/bin/../lib/gcc/arm-none-eabi/6.3.1/../../../../arm-none-eabi/lib/thumb/v7e-m/fpv4-sp/hard\libc_nano.a(lib_a-locale.o)
                              output\REVOLT\config.o (symbol from plugin) (__locale_ctype_ptr)
c:/dev/gcc-arm-none-eabi/bin/../lib/gcc/arm-none-eabi/6.3.1/../../../../arm-none-eabi/lib/thumb/v7e-m/fpv4-sp/hard\libc_nano.a(lib_a-mbtowc_r.o)
                              c:/dev/gcc-arm-none-eabi/bin/../lib/gcc/arm-none-eabi/6.3.1/../../../../arm-none-eabi/lib/thumb/v7e-m/fpv4-sp/hard\libc_nano.a(lib_a-locale.o) (__ascii_mbtowc)
c:/dev/gcc-arm-none-eabi/bin/../lib/gcc/arm-none-eabi/6.3.1/../../../../arm-none-eabi/lib/thumb/v7e-m/fpv4-sp/hard\libc_nano.a(lib_a-rand.o)
                              output\REVOLT\config.o (symbol from plugin) (rand)
c:/dev/gcc-arm-none-eabi/bin/../lib/gcc/arm-none-eabi/6.3.1/../../../../arm-none-eabi/lib/thumb/v7e-m/fpv4-sp/hard\libc_nano.a(lib_a-strcmp.o)
                              c:/dev/gcc-arm-none-eabi/bin/../lib/gcc/arm-none-eabi/6.3.1/../../../../arm-none-eabi/lib/thumb/v7e-m/fpv4-sp/hard\libc_nano.a(lib_a-locale.o) (strcmp)
c:/dev/gcc-arm-none-eabi/bin/../lib/gcc/arm-none-eabi/6.3.1/../../../../arm-none-eabi/lib/thumb/v7e-m/fpv4-sp/hard\libc_nano.a(lib_a-strtod.o)
                              c:/dev/gcc-arm-none-eabi/bin/../lib/gcc/arm-none-eabi/6.3.1/../../../../arm-none-eabi/lib/thumb/v7e-m/fpv4-sp/hard\libc_nano.a(lib_a-atof.o) (strtod)
c:/dev/gcc-arm-none-eabi/bin/../lib/gcc/arm-none-eabi/6.3.1/../../../../arm-none-eabi/lib/thumb/v7e-m/fpv4-sp/hard\libc_nano.a(lib_a-strtol.o)
                              c:/dev/gcc-arm-none-eabi/bin/../lib/gcc/arm-none-eabi/6.3.1/../../../../arm-none-eabi/lib/thumb/v7e-m/fpv4-sp/hard\libc_nano.a(lib_a-atoi.o) (_strtol_r)
c:/dev/gcc-arm-none-eabi/bin/../lib/gcc/arm-none-eabi/6.3.1/../../../../arm-none-eabi/lib/thumb/v7e-m/fpv4-sp/hard\libc_nano.a(lib_a-utoa.o)
                              c:/dev/gcc-arm-none-eabi/bin/../lib/gcc/arm-none-eabi/6.3.1/../../../../arm-none-eabi/lib/thumb/v7e-m/fpv4-sp/hard\libc_nano.a(lib_a-itoa.o) (__utoa)
c:/dev/gcc-arm-none-eabi/bin/../lib/gcc/arm-none-eabi/6.3.1/../../../../arm-none-eabi/lib/thumb/v7e-m/fpv4-sp/hard\libc_nano.a(lib_a-wctomb_r.o)
                              c:/dev/gcc-arm-none-eabi/bin/../lib/gcc/arm-none-eabi/6.3.1/../../../../arm-none-eabi/lib/thumb/v7e-m/fpv4-sp/hard\libc_nano.a(lib_a-locale.o) (__ascii_wctomb)
c:/dev/gcc-arm-none-eabi/bin/../lib/gcc/arm-none-eabi/6.3.1/../../../../arm-none-eabi/lib/thumb/v7e-m/fpv4-sp/hard\libc_nano.a(lib_a-ctype_.o)
                              c:/dev/gcc-arm-none-eabi/bin/../lib/gcc/arm-none-eabi/6.3.1/../../../../arm-none-eabi/lib/thumb/v7e-m/fpv4-sp/hard\libc_nano.a(lib_a-locale.o) (_ctype_)
c:/dev/gcc-arm-none-eabi/bin/../lib/gcc/arm-none-eabi/6.3.1/../../../../arm-none-eabi/lib/thumb/v7e-m/fpv4-sp/hard\libc_nano.a(lib_a-gdtoa-gethex.o)
                              c:/dev/gcc-arm-none-eabi/bin/../lib/gcc/arm-none-eabi/6.3.1/../../../../arm-none-eabi/lib/thumb/v7e-m/fpv4-sp/hard\libc_nano.a(lib_a-strtod.o) (__gethex)
c:/dev/gcc-arm-none-eabi/bin/../lib/gcc/arm-none-eabi/6.3.1/../../../../arm-none-eabi/lib/thumb/v7e-m/fpv4-sp/hard\libc_nano.a(lib_a-gdtoa-hexnan.o)
                              c:/dev/gcc-arm-none-eabi/bin/../lib/gcc/arm-none-eabi/6.3.1/../../../../arm-none-eabi/lib/thumb/v7e-m/fpv4-sp/hard\libc_nano.a(lib_a-strtod.o) (__match)
c:/dev/gcc-arm-none-eabi/bin/../lib/gcc/arm-none-eabi/6.3.1/../../../../arm-none-eabi/lib/thumb/v7e-m/fpv4-sp/hard\libc_nano.a(lib_a-impure.o)
                              c:/dev/gcc-arm-none-eabi/bin/../lib/gcc/arm-none-eabi/6.3.1/../../../../arm-none-eabi/lib/thumb/v7e-m/fpv4-sp/hard\libc_nano.a(lib_a-locale.o) (_impure_ptr)
c:/dev/gcc-arm-none-eabi/bin/../lib/gcc/arm-none-eabi/6.3.1/../../../../arm-none-eabi/lib/thumb/v7e-m/fpv4-sp/hard\libc_nano.a(lib_a-localeconv.o)
                              c:/dev/gcc-arm-none-eabi/bin/../lib/gcc/arm-none-eabi/6.3.1/../../../../arm-none-eabi/lib/thumb/v7e-m/fpv4-sp/hard\libc_nano.a(lib_a-strtod.o) (__localeconv_l)
c:/dev/gcc-arm-none-eabi/bin/../lib/gcc/arm-none-eabi/6.3.1/../../../../arm-none-eabi/lib/thumb/v7e-m/fpv4-sp/hard\libc_nano.a(lib_a-malloc.o)
                              c:/dev/gcc-arm-none-eabi/bin/../lib/gcc/arm-none-eabi/6.3.1/../../../../arm-none-eabi/lib/thumb/v7e-m/fpv4-sp/hard\libc_nano.a(lib_a-rand.o) (malloc)
c:/dev/gcc-arm-none-eabi/bin/../lib/gcc/arm-none-eabi/6.3.1/../../../../arm-none-eabi/lib/thumb/v7e-m/fpv4-sp/hard\libc_nano.a(lib_a-memcpy-stub.o)
                              c:/dev/gcc-arm-none-eabi/bin/../lib/gcc/arm-none-eabi/6.3.1/../../../../arm-none-eabi/lib/thumb/v7e-m/fpv4-sp/hard\libc_nano.a(lib_a-strtod.o) (memcpy)
c:/dev/gcc-arm-none-eabi/bin/../lib/gcc/arm-none-eabi/6.3.1/../../../../arm-none-eabi/lib/thumb/v7e-m/fpv4-sp/hard\libc_nano.a(lib_a-mprec.o)
                              c:/dev/gcc-arm-none-eabi/bin/../lib/gcc/arm-none-eabi/6.3.1/../../../../arm-none-eabi/lib/thumb/v7e-m/fpv4-sp/hard\libc_nano.a(lib_a-strtod.o) (_Balloc)
c:/dev/gcc-arm-none-eabi/bin/../lib/gcc/arm-none-eabi/6.3.1/../../../../arm-none-eabi/lib/thumb/v7e-m/fpv4-sp/hard\libc_nano.a(lib_a-nano-callocr.o)
                              c:/dev/gcc-arm-none-eabi/bin/../lib/gcc/arm-none-eabi/6.3.1/../../../../arm-none-eabi/lib/thumb/v7e-m/fpv4-sp/hard\libc_nano.a(lib_a-mprec.o) (_calloc_r)
c:/dev/gcc-arm-none-eabi/bin/../lib/gcc/arm-none-eabi/6.3.1/../../../../arm-none-eabi/lib/thumb/v7e-m/fpv4-sp/hard\libc_nano.a(lib_a-nano-freer.o)
                              c:/dev/gcc-arm-none-eabi/bin/../lib/gcc/arm-none-eabi/6.3.1/../../../../arm-none-eabi/lib/thumb/v7e-m/fpv4-sp/hard\libc_nano.a(lib_a-malloc.o) (_free_r)
c:/dev/gcc-arm-none-eabi/bin/../lib/gcc/arm-none-eabi/6.3.1/../../../../arm-none-eabi/lib/thumb/v7e-m/fpv4-sp/hard\libc_nano.a(lib_a-nano-mallocr.o)
                              c:/dev/gcc-arm-none-eabi/bin/../lib/gcc/arm-none-eabi/6.3.1/../../../../arm-none-eabi/lib/thumb/v7e-m/fpv4-sp/hard\libc_nano.a(lib_a-malloc.o) (_malloc_r)
c:/dev/gcc-arm-none-eabi/bin/../lib/gcc/arm-none-eabi/6.3.1/../../../../arm-none-eabi/lib/thumb/v7e-m/fpv4-sp/hard\libc_nano.a(lib_a-sbrkr.o)
                              c:/dev/gcc-arm-none-eabi/bin/../lib/gcc/arm-none-eabi/6.3.1/../../../../arm-none-eabi/lib/thumb/v7e-m/fpv4-sp/hard\libc_nano.a(lib_a-nano-mallocr.o) (_sbrk_r)
c:/dev/gcc-arm-none-eabi/bin/../lib/gcc/arm-none-eabi/6.3.1/../../../../arm-none-eabi/lib/thumb/v7e-m/fpv4-sp/hard\libc_nano.a(lib_a-sf_nan.o)
                              c:/dev/gcc-arm-none-eabi/bin/../lib/gcc/arm-none-eabi/6.3.1/../../../../arm-none-eabi/lib/thumb/v7e-m/fpv4-sp/hard\libc_nano.a(lib_a-strtod.o) (nanf)
c:/dev/gcc-arm-none-eabi/bin/../lib/gcc/arm-none-eabi/6.3.1/../../../../arm-none-eabi/lib/thumb/v7e-m/fpv4-sp/hard\libc_nano.a(lib_a-strlen.o)
                              c:/dev/gcc-arm-none-eabi/bin/../lib/gcc/arm-none-eabi/6.3.1/../../../../arm-none-eabi/lib/thumb/v7e-m/fpv4-sp/hard\libc_nano.a(lib_a-strtod.o) (strlen)
c:/dev/gcc-arm-none-eabi/bin/../lib/gcc/arm-none-eabi/6.3.1/../../../../arm-none-eabi/lib/thumb/v7e-m/fpv4-sp/hard\libc_nano.a(lib_a-strncmp.o)
                              c:/dev/gcc-arm-none-eabi/bin/../lib/gcc/arm-none-eabi/6.3.1/../../../../arm-none-eabi/lib/thumb/v7e-m/fpv4-sp/hard\libc_nano.a(lib_a-strtod.o) (strncmp)
c:/dev/gcc-arm-none-eabi/bin/../lib/gcc/arm-none-eabi/6.3.1/../../../../arm-none-eabi/lib/thumb/v7e-m/fpv4-sp/hard\libc_nano.a(lib_a-memset.o)
                              c:/dev/gcc-arm-none-eabi/bin/../lib/gcc/arm-none-eabi/6.3.1/../../../../arm-none-eabi/lib/thumb/v7e-m/fpv4-sp/hard\libc_nano.a(lib_a-nano-callocr.o) (memset)
c:/dev/gcc-arm-none-eabi/bin/../lib/gcc/arm-none-eabi/6.3.1/../../../../arm-none-eabi/lib/thumb/v7e-m/fpv4-sp/hard\libc_nano.a(lib_a-mlock.o)
                              c:/dev/gcc-arm-none-eabi/bin/../lib/gcc/arm-none-eabi/6.3.1/../../../../arm-none-eabi/lib/thumb/v7e-m/fpv4-sp/hard\libc_nano.a(lib_a-nano-freer.o) (__malloc_lock)
c:/dev/gcc-arm-none-eabi/bin/../lib/gcc/arm-none-eabi/6.3.1/../../../../arm-none-eabi/lib/thumb/v7e-m/fpv4-sp/hard\libc_nano.a(lib_a-reent.o)
                              c:/dev/gcc-arm-none-eabi/bin/../lib/gcc/arm-none-eabi/6.3.1/../../../../arm-none-eabi/lib/thumb/v7e-m/fpv4-sp/hard\libc_nano.a(lib_a-sbrkr.o) (errno)
c:/dev/gcc-arm-none-eabi/bin/../lib/gcc/arm-none-eabi/6.3.1/../../../../arm-none-eabi/lib/thumb/v7e-m/fpv4-sp/hard\libnosys.a(sbrk.o)
                              c:/dev/gcc-arm-none-eabi/bin/../lib/gcc/arm-none-eabi/6.3.1/../../../../arm-none-eabi/lib/thumb/v7e-m/fpv4-sp/hard\libc_nano.a(lib_a-sbrkr.o) (_sbrk)
c:/dev/gcc-arm-none-eabi/bin/../lib/gcc/arm-none-eabi/6.3.1/thumb/v7e-m/fpv4-sp/hard\libgcc.a(_arm_addsubdf3.o)
                              c:/dev/gcc-arm-none-eabi/bin/../lib/gcc/arm-none-eabi/6.3.1/../../../../arm-none-eabi/lib/thumb/v7e-m/fpv4-sp/hard\libc_nano.a(lib_a-strtod.o) (__aeabi_dsub)
c:/dev/gcc-arm-none-eabi/bin/../lib/gcc/arm-none-eabi/6.3.1/thumb/v7e-m/fpv4-sp/hard\libgcc.a(_arm_muldivdf3.o)
                              c:/dev/gcc-arm-none-eabi/bin/../lib/gcc/arm-none-eabi/6.3.1/../../../../arm-none-eabi/lib/thumb/v7e-m/fpv4-sp/hard\libc_nano.a(lib_a-strtod.o) (__aeabi_dmul)
c:/dev/gcc-arm-none-eabi/bin/../lib/gcc/arm-none-eabi/6.3.1/thumb/v7e-m/fpv4-sp/hard\libgcc.a(_arm_cmpdf2.o)
                              c:/dev/gcc-arm-none-eabi/bin/../lib/gcc/arm-none-eabi/6.3.1/../../../../arm-none-eabi/lib/thumb/v7e-m/fpv4-sp/hard\libc_nano.a(lib_a-strtod.o) (__aeabi_dcmpeq)
c:/dev/gcc-arm-none-eabi/bin/../lib/gcc/arm-none-eabi/6.3.1/thumb/v7e-m/fpv4-sp/hard\libgcc.a(_arm_unorddf2.o)
                              c:/dev/gcc-arm-none-eabi/bin/../lib/gcc/arm-none-eabi/6.3.1/../../../../arm-none-eabi/lib/thumb/v7e-m/fpv4-sp/hard\libc_nano.a(lib_a-strtod.o) (__aeabi_dcmpun)
c:/dev/gcc-arm-none-eabi/bin/../lib/gcc/arm-none-eabi/6.3.1/thumb/v7e-m/fpv4-sp/hard\libgcc.a(_arm_fixdfsi.o)
                              c:/dev/gcc-arm-none-eabi/bin/../lib/gcc/arm-none-eabi/6.3.1/../../../../arm-none-eabi/lib/thumb/v7e-m/fpv4-sp/hard\libc_nano.a(lib_a-strtod.o) (__aeabi_d2iz)
c:/dev/gcc-arm-none-eabi/bin/../lib/gcc/arm-none-eabi/6.3.1/thumb/v7e-m/fpv4-sp/hard\libgcc.a(_arm_fixunsdfsi.o)
                              c:/dev/gcc-arm-none-eabi/bin/../lib/gcc/arm-none-eabi/6.3.1/../../../../arm-none-eabi/lib/thumb/v7e-m/fpv4-sp/hard\libc_nano.a(lib_a-strtod.o) (__aeabi_d2uiz)
c:/dev/gcc-arm-none-eabi/bin/../lib/gcc/arm-none-eabi/6.3.1/thumb/v7e-m/fpv4-sp/hard\libgcc.a(_arm_truncdfsf2.o)
                              c:/dev/gcc-arm-none-eabi/bin/../lib/gcc/arm-none-eabi/6.3.1/../../../../arm-none-eabi/lib/thumb/v7e-m/fpv4-sp/hard\libc_nano.a(lib_a-strtod.o) (__aeabi_d2f)
c:/dev/gcc-arm-none-eabi/bin/../lib/gcc/arm-none-eabi/6.3.1/../../../../arm-none-eabi/lib/thumb/v7e-m/fpv4-sp/hard\libm.a(lib_a-powl.o)
                              C:\Users\PRESTO~1\AppData\Local\Temp\cc3x6Wri.ltrans0.ltrans.o (powl)
c:/dev/gcc-arm-none-eabi/bin/../lib/gcc/arm-none-eabi/6.3.1/../../../../arm-none-eabi/lib/thumb/v7e-m/fpv4-sp/hard\libm.a(lib_a-s_ceil.o)
                              C:\Users\PRESTO~1\AppData\Local\Temp\cc3x6Wri.ltrans13.ltrans.o (ceil)
c:/dev/gcc-arm-none-eabi/bin/../lib/gcc/arm-none-eabi/6.3.1/../../../../arm-none-eabi/lib/thumb/v7e-m/fpv4-sp/hard\libm.a(lib_a-s_lrint.o)
                              C:\Users\PRESTO~1\AppData\Local\Temp\cc3x6Wri.ltrans22.ltrans.o (lrint)
c:/dev/gcc-arm-none-eabi/bin/../lib/gcc/arm-none-eabi/6.3.1/../../../../arm-none-eabi/lib/thumb/v7e-m/fpv4-sp/hard\libm.a(lib_a-s_round.o)
                              C:\Users\PRESTO~1\AppData\Local\Temp\cc3x6Wri.ltrans9.ltrans.o (round)
c:/dev/gcc-arm-none-eabi/bin/../lib/gcc/arm-none-eabi/6.3.1/../../../../arm-none-eabi/lib/thumb/v7e-m/fpv4-sp/hard\libm.a(lib_a-sf_cos.o)
                              C:\Users\PRESTO~1\AppData\Local\Temp\cc3x6Wri.ltrans2.ltrans.o (cosf)
c:/dev/gcc-arm-none-eabi/bin/../lib/gcc/arm-none-eabi/6.3.1/../../../../arm-none-eabi/lib/thumb/v7e-m/fpv4-sp/hard\libm.a(lib_a-sf_lrint.o)
                              C:\Users\PRESTO~1\AppData\Local\Temp\cc3x6Wri.ltrans4.ltrans.o (lrintf)
c:/dev/gcc-arm-none-eabi/bin/../lib/gcc/arm-none-eabi/6.3.1/../../../../arm-none-eabi/lib/thumb/v7e-m/fpv4-sp/hard\libm.a(lib_a-sf_sin.o)
                              C:\Users\PRESTO~1\AppData\Local\Temp\cc3x6Wri.ltrans2.ltrans.o (sinf)
c:/dev/gcc-arm-none-eabi/bin/../lib/gcc/arm-none-eabi/6.3.1/../../../../arm-none-eabi/lib/thumb/v7e-m/fpv4-sp/hard\libm.a(lib_a-w_pow.o)
                              c:/dev/gcc-arm-none-eabi/bin/../lib/gcc/arm-none-eabi/6.3.1/../../../../arm-none-eabi/lib/thumb/v7e-m/fpv4-sp/hard\libm.a(lib_a-powl.o) (pow)
c:/dev/gcc-arm-none-eabi/bin/../lib/gcc/arm-none-eabi/6.3.1/../../../../arm-none-eabi/lib/thumb/v7e-m/fpv4-sp/hard\libm.a(lib_a-wf_sqrt.o)
                              C:\Users\PRESTO~1\AppData\Local\Temp\cc3x6Wri.ltrans1.ltrans.o (sqrtf)
c:/dev/gcc-arm-none-eabi/bin/../lib/gcc/arm-none-eabi/6.3.1/../../../../arm-none-eabi/lib/thumb/v7e-m/fpv4-sp/hard\libm.a(lib_a-e_pow.o)
                              c:/dev/gcc-arm-none-eabi/bin/../lib/gcc/arm-none-eabi/6.3.1/../../../../arm-none-eabi/lib/thumb/v7e-m/fpv4-sp/hard\libm.a(lib_a-w_pow.o) (__ieee754_pow)
c:/dev/gcc-arm-none-eabi/bin/../lib/gcc/arm-none-eabi/6.3.1/../../../../arm-none-eabi/lib/thumb/v7e-m/fpv4-sp/hard\libm.a(lib_a-e_sqrt.o)
                              c:/dev/gcc-arm-none-eabi/bin/../lib/gcc/arm-none-eabi/6.3.1/../../../../arm-none-eabi/lib/thumb/v7e-m/fpv4-sp/hard\libm.a(lib_a-e_pow.o) (__ieee754_sqrt)
c:/dev/gcc-arm-none-eabi/bin/../lib/gcc/arm-none-eabi/6.3.1/../../../../arm-none-eabi/lib/thumb/v7e-m/fpv4-sp/hard\libm.a(lib_a-ef_rem_pio2.o)
                              c:/dev/gcc-arm-none-eabi/bin/../lib/gcc/arm-none-eabi/6.3.1/../../../../arm-none-eabi/lib/thumb/v7e-m/fpv4-sp/hard\libm.a(lib_a-sf_cos.o) (__ieee754_rem_pio2f)
c:/dev/gcc-arm-none-eabi/bin/../lib/gcc/arm-none-eabi/6.3.1/../../../../arm-none-eabi/lib/thumb/v7e-m/fpv4-sp/hard\libm.a(lib_a-ef_sqrt.o)
                              c:/dev/gcc-arm-none-eabi/bin/../lib/gcc/arm-none-eabi/6.3.1/../../../../arm-none-eabi/lib/thumb/v7e-m/fpv4-sp/hard\libm.a(lib_a-wf_sqrt.o) (__ieee754_sqrtf)
c:/dev/gcc-arm-none-eabi/bin/../lib/gcc/arm-none-eabi/6.3.1/../../../../arm-none-eabi/lib/thumb/v7e-m/fpv4-sp/hard\libm.a(lib_a-kf_cos.o)
                              c:/dev/gcc-arm-none-eabi/bin/../lib/gcc/arm-none-eabi/6.3.1/../../../../arm-none-eabi/lib/thumb/v7e-m/fpv4-sp/hard\libm.a(lib_a-sf_cos.o) (__kernel_cosf)
c:/dev/gcc-arm-none-eabi/bin/../lib/gcc/arm-none-eabi/6.3.1/../../../../arm-none-eabi/lib/thumb/v7e-m/fpv4-sp/hard\libm.a(lib_a-kf_rem_pio2.o)
                              c:/dev/gcc-arm-none-eabi/bin/../lib/gcc/arm-none-eabi/6.3.1/../../../../arm-none-eabi/lib/thumb/v7e-m/fpv4-sp/hard\libm.a(lib_a-ef_rem_pio2.o) (__kernel_rem_pio2f)
c:/dev/gcc-arm-none-eabi/bin/../lib/gcc/arm-none-eabi/6.3.1/../../../../arm-none-eabi/lib/thumb/v7e-m/fpv4-sp/hard\libm.a(lib_a-kf_sin.o)
                              c:/dev/gcc-arm-none-eabi/bin/../lib/gcc/arm-none-eabi/6.3.1/../../../../arm-none-eabi/lib/thumb/v7e-m/fpv4-sp/hard\libm.a(lib_a-sf_cos.o) (__kernel_sinf)
c:/dev/gcc-arm-none-eabi/bin/../lib/gcc/arm-none-eabi/6.3.1/../../../../arm-none-eabi/lib/thumb/v7e-m/fpv4-sp/hard\libm.a(lib_a-s_fabs.o)
                              c:/dev/gcc-arm-none-eabi/bin/../lib/gcc/arm-none-eabi/6.3.1/../../../../arm-none-eabi/lib/thumb/v7e-m/fpv4-sp/hard\libm.a(lib_a-e_pow.o) (fabs)
c:/dev/gcc-arm-none-eabi/bin/../lib/gcc/arm-none-eabi/6.3.1/../../../../arm-none-eabi/lib/thumb/v7e-m/fpv4-sp/hard\libm.a(lib_a-s_finite.o)
                              c:/dev/gcc-arm-none-eabi/bin/../lib/gcc/arm-none-eabi/6.3.1/../../../../arm-none-eabi/lib/thumb/v7e-m/fpv4-sp/hard\libm.a(lib_a-w_pow.o) (finite)
c:/dev/gcc-arm-none-eabi/bin/../lib/gcc/arm-none-eabi/6.3.1/../../../../arm-none-eabi/lib/thumb/v7e-m/fpv4-sp/hard\libm.a(lib_a-s_lib_ver.o)
                              c:/dev/gcc-arm-none-eabi/bin/../lib/gcc/arm-none-eabi/6.3.1/../../../../arm-none-eabi/lib/thumb/v7e-m/fpv4-sp/hard\libm.a(lib_a-w_pow.o) (__fdlib_version)
c:/dev/gcc-arm-none-eabi/bin/../lib/gcc/arm-none-eabi/6.3.1/../../../../arm-none-eabi/lib/thumb/v7e-m/fpv4-sp/hard\libm.a(lib_a-s_matherr.o)
                              c:/dev/gcc-arm-none-eabi/bin/../lib/gcc/arm-none-eabi/6.3.1/../../../../arm-none-eabi/lib/thumb/v7e-m/fpv4-sp/hard\libm.a(lib_a-w_pow.o) (matherr)
c:/dev/gcc-arm-none-eabi/bin/../lib/gcc/arm-none-eabi/6.3.1/../../../../arm-none-eabi/lib/thumb/v7e-m/fpv4-sp/hard\libm.a(lib_a-s_nan.o)
                              c:/dev/gcc-arm-none-eabi/bin/../lib/gcc/arm-none-eabi/6.3.1/../../../../arm-none-eabi/lib/thumb/v7e-m/fpv4-sp/hard\libm.a(lib_a-e_pow.o) (nan)
c:/dev/gcc-arm-none-eabi/bin/../lib/gcc/arm-none-eabi/6.3.1/../../../../arm-none-eabi/lib/thumb/v7e-m/fpv4-sp/hard\libm.a(lib_a-s_rint.o)
                              c:/dev/gcc-arm-none-eabi/bin/../lib/gcc/arm-none-eabi/6.3.1/../../../../arm-none-eabi/lib/thumb/v7e-m/fpv4-sp/hard\libm.a(lib_a-w_pow.o) (rint)
c:/dev/gcc-arm-none-eabi/bin/../lib/gcc/arm-none-eabi/6.3.1/../../../../arm-none-eabi/lib/thumb/v7e-m/fpv4-sp/hard\libm.a(lib_a-s_scalbn.o)
                              c:/dev/gcc-arm-none-eabi/bin/../lib/gcc/arm-none-eabi/6.3.1/../../../../arm-none-eabi/lib/thumb/v7e-m/fpv4-sp/hard\libm.a(lib_a-e_pow.o) (scalbn)
c:/dev/gcc-arm-none-eabi/bin/../lib/gcc/arm-none-eabi/6.3.1/../../../../arm-none-eabi/lib/thumb/v7e-m/fpv4-sp/hard\libm.a(lib_a-sf_fabs.o)
                              c:/dev/gcc-arm-none-eabi/bin/../lib/gcc/arm-none-eabi/6.3.1/../../../../arm-none-eabi/lib/thumb/v7e-m/fpv4-sp/hard\libm.a(lib_a-ef_rem_pio2.o) (fabsf)
c:/dev/gcc-arm-none-eabi/bin/../lib/gcc/arm-none-eabi/6.3.1/../../../../arm-none-eabi/lib/thumb/v7e-m/fpv4-sp/hard\libm.a(lib_a-sf_floor.o)
                              c:/dev/gcc-arm-none-eabi/bin/../lib/gcc/arm-none-eabi/6.3.1/../../../../arm-none-eabi/lib/thumb/v7e-m/fpv4-sp/hard\libm.a(lib_a-kf_rem_pio2.o) (floorf)
c:/dev/gcc-arm-none-eabi/bin/../lib/gcc/arm-none-eabi/6.3.1/../../../../arm-none-eabi/lib/thumb/v7e-m/fpv4-sp/hard\libm.a(lib_a-sf_scalbn.o)
                              c:/dev/gcc-arm-none-eabi/bin/../lib/gcc/arm-none-eabi/6.3.1/../../../../arm-none-eabi/lib/thumb/v7e-m/fpv4-sp/hard\libm.a(lib_a-kf_rem_pio2.o) (scalbnf)
c:/dev/gcc-arm-none-eabi/bin/../lib/gcc/arm-none-eabi/6.3.1/../../../../arm-none-eabi/lib/thumb/v7e-m/fpv4-sp/hard\libm.a(lib_a-s_copysign.o)
                              c:/dev/gcc-arm-none-eabi/bin/../lib/gcc/arm-none-eabi/6.3.1/../../../../arm-none-eabi/lib/thumb/v7e-m/fpv4-sp/hard\libm.a(lib_a-s_scalbn.o) (copysign)
c:/dev/gcc-arm-none-eabi/bin/../lib/gcc/arm-none-eabi/6.3.1/../../../../arm-none-eabi/lib/thumb/v7e-m/fpv4-sp/hard\libm.a(lib_a-sf_copysign.o)
                              c:/dev/gcc-arm-none-eabi/bin/../lib/gcc/arm-none-eabi/6.3.1/../../../../arm-none-eabi/lib/thumb/v7e-m/fpv4-sp/hard\libm.a(lib_a-sf_scalbn.o) (copysignf)
c:/dev/gcc-arm-none-eabi/bin/../lib/gcc/arm-none-eabi/6.3.1/../../../../arm-none-eabi/lib/thumb/v7e-m/fpv4-sp/hard\libc_nano.a(lib_a-errno.o)
                              c:/dev/gcc-arm-none-eabi/bin/../lib/gcc/arm-none-eabi/6.3.1/../../../../arm-none-eabi/lib/thumb/v7e-m/fpv4-sp/hard\libm.a(lib_a-w_pow.o) (__errno)
c:/dev/gcc-arm-none-eabi/bin/../lib/gcc/arm-none-eabi/6.3.1/../../../../arm-none-eabi/lib/thumb/v7e-m/fpv4-sp/hard\libc_nano.a(lib_a-snprintf.o)
                              C:\Users\PRESTO~1\AppData\Local\Temp\cc3x6Wri.ltrans0.ltrans.o (snprintf)
c:/dev/gcc-arm-none-eabi/bin/../lib/gcc/arm-none-eabi/6.3.1/../../../../arm-none-eabi/lib/thumb/v7e-m/fpv4-sp/hard\libc_nano.a(lib_a-sprintf.o)
                              C:\Users\PRESTO~1\AppData\Local\Temp\cc3x6Wri.ltrans0.ltrans.o (sprintf)
c:/dev/gcc-arm-none-eabi/bin/../lib/gcc/arm-none-eabi/6.3.1/../../../../arm-none-eabi/lib/thumb/v7e-m/fpv4-sp/hard\libc_nano.a(lib_a-strcat.o)
                              C:\Users\PRESTO~1\AppData\Local\Temp\cc3x6Wri.ltrans0.ltrans.o (strcat)
c:/dev/gcc-arm-none-eabi/bin/../lib/gcc/arm-none-eabi/6.3.1/../../../../arm-none-eabi/lib/thumb/v7e-m/fpv4-sp/hard\libc_nano.a(lib_a-strchr.o)
                              C:\Users\PRESTO~1\AppData\Local\Temp\cc3x6Wri.ltrans31.ltrans.o (strchr)
c:/dev/gcc-arm-none-eabi/bin/../lib/gcc/arm-none-eabi/6.3.1/../../../../arm-none-eabi/lib/thumb/v7e-m/fpv4-sp/hard\libc_nano.a(lib_a-strcpy.o)
                              C:\Users\PRESTO~1\AppData\Local\Temp\cc3x6Wri.ltrans0.ltrans.o (strcpy)
c:/dev/gcc-arm-none-eabi/bin/../lib/gcc/arm-none-eabi/6.3.1/../../../../arm-none-eabi/lib/thumb/v7e-m/fpv4-sp/hard\libc_nano.a(lib_a-strncasecmp.o)
                              C:\Users\PRESTO~1\AppData\Local\Temp\cc3x6Wri.ltrans7.ltrans.o (strncasecmp)
c:/dev/gcc-arm-none-eabi/bin/../lib/gcc/arm-none-eabi/6.3.1/../../../../arm-none-eabi/lib/thumb/v7e-m/fpv4-sp/hard\libc_nano.a(lib_a-strncpy.o)
                              C:\Users\PRESTO~1\AppData\Local\Temp\cc3x6Wri.ltrans0.ltrans.o (strncpy)
c:/dev/gcc-arm-none-eabi/bin/../lib/gcc/arm-none-eabi/6.3.1/../../../../arm-none-eabi/lib/thumb/v7e-m/fpv4-sp/hard\libc_nano.a(lib_a-nano-svfprintf.o)
                              c:/dev/gcc-arm-none-eabi/bin/../lib/gcc/arm-none-eabi/6.3.1/../../../../arm-none-eabi/lib/thumb/v7e-m/fpv4-sp/hard\libc_nano.a(lib_a-snprintf.o) (_svfprintf_r)
c:/dev/gcc-arm-none-eabi/bin/../lib/gcc/arm-none-eabi/6.3.1/../../../../arm-none-eabi/lib/thumb/v7e-m/fpv4-sp/hard\libc_nano.a(lib_a-nano-vfprintf_i.o)
                              c:/dev/gcc-arm-none-eabi/bin/../lib/gcc/arm-none-eabi/6.3.1/../../../../arm-none-eabi/lib/thumb/v7e-m/fpv4-sp/hard\libc_nano.a(lib_a-nano-svfprintf.o) (_printf_i)
c:/dev/gcc-arm-none-eabi/bin/../lib/gcc/arm-none-eabi/6.3.1/../../../../arm-none-eabi/lib/thumb/v7e-m/fpv4-sp/hard\libc_nano.a(lib_a-memchr.o)
                              c:/dev/gcc-arm-none-eabi/bin/../lib/gcc/arm-none-eabi/6.3.1/../../../../arm-none-eabi/lib/thumb/v7e-m/fpv4-sp/hard\libc_nano.a(lib_a-nano-svfprintf.o) (memchr)
c:/dev/gcc-arm-none-eabi/bin/../lib/gcc/arm-none-eabi/6.3.1/../../../../arm-none-eabi/lib/thumb/v7e-m/fpv4-sp/hard\libc_nano.a(lib_a-memmove.o)
                              c:/dev/gcc-arm-none-eabi/bin/../lib/gcc/arm-none-eabi/6.3.1/../../../../arm-none-eabi/lib/thumb/v7e-m/fpv4-sp/hard\libc_nano.a(lib_a-nano-svfprintf.o) (memmove)
c:/dev/gcc-arm-none-eabi/bin/../lib/gcc/arm-none-eabi/6.3.1/../../../../arm-none-eabi/lib/thumb/v7e-m/fpv4-sp/hard\libc_nano.a(lib_a-nano-reallocr.o)
                              c:/dev/gcc-arm-none-eabi/bin/../lib/gcc/arm-none-eabi/6.3.1/../../../../arm-none-eabi/lib/thumb/v7e-m/fpv4-sp/hard\libc_nano.a(lib_a-nano-svfprintf.o) (_realloc_r)
c:/dev/gcc-arm-none-eabi/bin/../lib/gcc/arm-none-eabi/6.3.1/../../../../arm-none-eabi/lib/thumb/v7e-m/fpv4-sp/hard\libc_nano.a(lib_a-nano-msizer.o)
                              c:/dev/gcc-arm-none-eabi/bin/../lib/gcc/arm-none-eabi/6.3.1/../../../../arm-none-eabi/lib/thumb/v7e-m/fpv4-sp/hard\libc_nano.a(lib_a-nano-reallocr.o) (_malloc_usable_size_r)

Allocating common symbols
Common symbol       size              file

requestedDegrees    0xc               output\REVOLT\imu.o (symbol from plugin)
pidsUsedThisTime    0x84              output\REVOLT\pid.o (symbol from plugin)
captureTime         0x4               output\REVOLT\spm_laptimer.o (symbol from plugin)
errno               0x4               c:/dev/gcc-arm-none-eabi/bin/../lib/gcc/arm-none-eabi/6.3.1/../../../../arm-none-eabi/lib/thumb/v7e-m/fpv4-sp/hard\libc_nano.a(lib_a-reent.o)
kiError             0xc               output\REVOLT\pid.o (symbol from plugin)
debugF              0x20              output\REVOLT\debug.o (symbol from plugin)
inertialFrameQuat   0x10              output\REVOLT\imu.o (symbol from plugin)
dshotTimer          0x3c              output\REVOLT\dshotTwoWay.o (symbol from plugin)
fallingEdges        0x1               output\REVOLT\spm_laptimer.o (symbol from plugin)
row9                0xc               output\REVOLT\spektrumTelemetry.o (symbol from plugin)
lap_timer           0x10              output\REVOLT\spm_laptimer.o (symbol from plugin)
errorQuat           0x10              output\REVOLT\imu.o (symbol from plugin)
lastProgramTime     0x4               output\REVOLT\flight_logger.o (symbol from plugin)
flashWriteAddress   0x4               output\REVOLT\flash_chip.o (symbol from plugin)
dshotOutBuffer      0xc0              output\REVOLT\dshotTwoWay.o (symbol from plugin)
row6                0xc               output\REVOLT\spektrumTelemetry.o (symbol from plugin)
row1                0xc               output\REVOLT\spektrumTelemetry.o (symbol from plugin)
lastRXPacket        0x4               output\REVOLT\serial.o (symbol from plugin)
pulseIndex          0x4               output\REVOLT\spm_laptimer.o (symbol from plugin)
accBodyQuat         0x10              output\REVOLT\imu.o (symbol from plugin)
crsfOutBuffer       0x20              output\REVOLT\crossfire.o (symbol from plugin)
txTransimissionReady
                    0x1               output\REVOLT\general_functions.o (symbol from plugin)
tInBuffer           0x40              output\REVOLT\scheduler.o (symbol from plugin)
risingEdges         0x1               output\REVOLT\spm_laptimer.o (symbol from plugin)
headerToWrite       0x4               output\REVOLT\config.o (symbol from plugin)
gyroFiltUsed        0xc               output\REVOLT\flight.o (symbol from plugin)
checkRxData         0x40              output\REVOLT\wizard.o (symbol from plugin)
quopa_style         0x1               output\REVOLT\general_functions.o (symbol from plugin)
dshotInBuffer       0x600             output\REVOLT\dshotTwoWay.o (symbol from plugin)
voltageStorage      0x18              output\REVOLT\adc.o (symbol from plugin)
pafKdStates         0x6c              output\REVOLT\flight.o (symbol from plugin)
accQuat             0x10              output\REVOLT\imu.o (symbol from plugin)
softPwmRecord       0x13              output\REVOLT\softPwm.o (symbol from plugin)
boostedPulseValueRange
                    0x4               output\REVOLT\actuator_output.o (symbol from plugin)
mspRxBuffer         0x19              output\REVOLT\mspTelemetry.o (symbol from plugin)
transmitDataBuffer  0x24              output\REVOLT\sPortTelemetry.o (symbol from plugin)
serialOutBuffer     0x100             output\REVOLT\softSerial.o (symbol from plugin)
hits                0x4               output\REVOLT\spm_laptimer.o (symbol from plugin)
accWorldQuat        0x10              output\REVOLT\imu.o (symbol from plugin)
debugU32            0x20              output\REVOLT\debug.o (symbol from plugin)
row7                0xc               output\REVOLT\spektrumTelemetry.o (symbol from plugin)
lpfFilterStateKd    0x6c              output\REVOLT\flight.o (symbol from plugin)
row4                0xc               output\REVOLT\spektrumTelemetry.o (symbol from plugin)
lastTimegate        0x4               output\REVOLT\spm_laptimer.o (symbol from plugin)
pulseCodeDebug      0x1               output\REVOLT\spm_laptimer.o (symbol from plugin)
flashWriteInProgress
                    0x4               output\REVOLT\flash_chip.o (symbol from plugin)
boostedIdlePulseValue
                    0x4               output\REVOLT\actuator_output.o (symbol from plugin)
lastTimeLap         0x4               output\REVOLT\spm_laptimer.o (symbol from plugin)
flashAlign          0x4               output\REVOLT\flight_logger.o (symbol from plugin)
stabilizerAttenuation
                    0x4               output\REVOLT\mixer.o (symbol from plugin)
axis                0x4               output\REVOLT\pid.o (symbol from plugin)
flightLog           0x10              output\REVOLT\general_functions.o (symbol from plugin)
rotationalMatrix    0x24              output\REVOLT\imu.o (symbol from plugin)
hpfFilterStateAcc   0xd8              output\REVOLT\flight.o (symbol from plugin)
retValChk           0x4               output\REVOLT\main.o (symbol from plugin)
onePulseWidth       0x44              output\REVOLT\dmaShenanigans.o (symbol from plugin)
rfOsdTxBuffer       0x3c              output\REVOLT\rfosdTelemetry.o (symbol from plugin)
rfReplyBuffer       0x40              output\REVOLT\config.o (symbol from plugin)
copiedBufferData    0x40              output\REVOLT\rx.o (symbol from plugin)
kdFilter            0x24              output\REVOLT\pid.o (symbol from plugin)
onOffBitArray       0x2c              output\REVOLT\newSoftSerial.o (symbol from plugin)
softSerialSwitchBuffer
                    0x4               output\REVOLT\scheduler.o (symbol from plugin)
row5                0xc               output\REVOLT\spektrumTelemetry.o (symbol from plugin)
sConfigOCHandles    0x1c0             output\REVOLT\boarddef.o (symbol from plugin)
softPwmTimer        0x3c              output\REVOLT\softPwm.o (symbol from plugin)
softSerialCurBuf    0x4               output\REVOLT\scheduler.o (symbol from plugin)
currKiTrim          0xc               output\REVOLT\flight_logger.o (symbol from plugin)
pwmTimerBase        0x3c              output\REVOLT\dmaShenanigans.o (symbol from plugin)
headerWritten       0x4               output\REVOLT\config.o (symbol from plugin)
stringArray         0x87              output\REVOLT\spektrumTelemetry.o (symbol from plugin)
flashRxBuffer       0x4               output\REVOLT\flash_chip.o (symbol from plugin)
softSerialBuf       0x280             output\REVOLT\scheduler.o (symbol from plugin)
escHexByPosition    0x1fe             output\REVOLT\esc_1wire.o (symbol from plugin)
vtxData             0x5               output\REVOLT\rx.o (symbol from plugin)
ws2812_led          0x60              output\REVOLT\dmaShenanigans.o (symbol from plugin)
boardSize           0x4               output\REVOLT\boarddef.o (symbol from plugin)
softserialCallbackFunctionArray
                    0x4               output\REVOLT\softSerial.o (symbol from plugin)
gpioStatus          0x1               output\REVOLT\spm_laptimer.o (symbol from plugin)
rfVtxRxBuffer       0x4               output\REVOLT\rfVtx.o (symbol from plugin)
rfCustomSendBufferAdder
                    0x3f              output\REVOLT\config.o (symbol from plugin)
currIteration       0x4               output\REVOLT\flight_logger.o (symbol from plugin)
row8                0xc               output\REVOLT\spektrumTelemetry.o (symbol from plugin)
currThrottleVelocity
                    0x4               output\REVOLT\flight_logger.o (symbol from plugin)
proccesedSoftSerial
                    0x19              output\REVOLT\scheduler.o (symbol from plugin)
flashTxBuffer       0x4               output\REVOLT\flash_chip.o (symbol from plugin)
actuator            0x60              output\REVOLT\spm_laptimer.o (symbol from plugin)
softSerialInd       0x8               output\REVOLT\scheduler.o (symbol from plugin)
mspTxBuffer         0x19              output\REVOLT\mspTelemetry.o (symbol from plugin)
sPortPacket         0x8               output\REVOLT\sPortTelemetry.o (symbol from plugin)
inputChannelMapped  0x40              output\REVOLT\wizard.o (symbol from plugin)
pulseCode           0x1               output\REVOLT\spm_laptimer.o (symbol from plugin)
currDpsGyroArray    0xc               output\REVOLT\flight_logger.o (symbol from plugin)
vtxOutPacket        0x4               output\REVOLT\rfVtx.o (symbol from plugin)
rfOsdLineBuffer     0x1e              output\REVOLT\rfosdTelemetry.o (symbol from plugin)
receivedDataBuffer  0x24              output\REVOLT\sPortTelemetry.o (symbol from plugin)
lpfFilterStateAcc   0x6c              output\REVOLT\flight.o (symbol from plugin)
row3                0xc               output\REVOLT\spektrumTelemetry.o (symbol from plugin)
row2                0xc               output\REVOLT\spektrumTelemetry.o (symbol from plugin)
accNoise            0x18              output\REVOLT\flight.o (symbol from plugin)
pulseDuration       0x20              output\REVOLT\spm_laptimer.o (symbol from plugin)
xbus                0xb               output\REVOLT\general_functions.o (symbol from plugin)
serialTxBuffer      0x180             output\REVOLT\boarddef.o (symbol from plugin)
tempRc              0x164             output\REVOLT\wizard.o (symbol from plugin)
flightSetPoints     0xc               output\REVOLT\flight.o (symbol from plugin)
zeroPulseWidth      0x44              output\REVOLT\dmaShenanigans.o (symbol from plugin)
flightcodeTime      0x4               output\REVOLT\flight.o (symbol from plugin)
spis                0x18              output\REVOLT\boarddef.o (symbol from plugin)
USBD_StrDesc        0x200             output\REVOLT\usbd_desc.o (symbol from plugin)
pafAccStates        0x6c              output\REVOLT\flight.o (symbol from plugin)
softSerialLastByteProcessedLocation
                    0x4               output\REVOLT\scheduler.o (symbol from plugin)
currentTime         0x4               output\REVOLT\spm_laptimer.o (symbol from plugin)
rotationQuat        0x10              output\REVOLT\imu.o (symbol from plugin)
currTime            0x4               output\REVOLT\flight_logger.o (symbol from plugin)
telemtryRxBufferIdx
                    0x4               output\REVOLT\sPortTelemetry.o (symbol from plugin)
softSerialRxTimeBuffer
                    0x4               output\REVOLT\newSoftSerial.o (symbol from plugin)
oneWireOngoing      0x4               output\REVOLT\esc_1wire.o (symbol from plugin)

Discarded input sections

 .text          0x00000000        0x0 output\REVOLT\general_functions.o (symbol from plugin)
 .data          0x00000000        0x0 C:\Users\PRESTO~1\AppData\Local\Temp\cc3x6Wri.ltrans0.ltrans.o
 .text          0x00000000        0x0 C:\Users\PRESTO~1\AppData\Local\Temp\cc3x6Wri.ltrans3.ltrans.o
 .data          0x00000000        0x0 C:\Users\PRESTO~1\AppData\Local\Temp\cc3x6Wri.ltrans5.ltrans.o
 .bss           0x00000000        0x0 C:\Users\PRESTO~1\AppData\Local\Temp\cc3x6Wri.ltrans5.ltrans.o
 .data          0x00000000        0x0 C:\Users\PRESTO~1\AppData\Local\Temp\cc3x6Wri.ltrans7.ltrans.o
 .data          0x00000000        0x0 C:\Users\PRESTO~1\AppData\Local\Temp\cc3x6Wri.ltrans9.ltrans.o
 .data          0x00000000        0x0 C:\Users\PRESTO~1\AppData\Local\Temp\cc3x6Wri.ltrans11.ltrans.o
 .data          0x00000000        0x0 C:\Users\PRESTO~1\AppData\Local\Temp\cc3x6Wri.ltrans13.ltrans.o
 .data          0x00000000        0x0 C:\Users\PRESTO~1\AppData\Local\Temp\cc3x6Wri.ltrans14.ltrans.o
 .data          0x00000000        0x0 C:\Users\PRESTO~1\AppData\Local\Temp\cc3x6Wri.ltrans15.ltrans.o
 .data          0x00000000        0x0 C:\Users\PRESTO~1\AppData\Local\Temp\cc3x6Wri.ltrans17.ltrans.o
 .data          0x00000000        0x0 C:\Users\PRESTO~1\AppData\Local\Temp\cc3x6Wri.ltrans18.ltrans.o
 .data          0x00000000        0x0 C:\Users\PRESTO~1\AppData\Local\Temp\cc3x6Wri.ltrans19.ltrans.o
 .data          0x00000000        0x0 C:\Users\PRESTO~1\AppData\Local\Temp\cc3x6Wri.ltrans20.ltrans.o
 .data          0x00000000        0x0 C:\Users\PRESTO~1\AppData\Local\Temp\cc3x6Wri.ltrans22.ltrans.o
 .data          0x00000000        0x0 C:\Users\PRESTO~1\AppData\Local\Temp\cc3x6Wri.ltrans24.ltrans.o
 .rodata        0x00000000        0x4 C:\Users\PRESTO~1\AppData\Local\Temp\cc3x6Wri.ltrans25.ltrans.o
 .data          0x00000000        0x0 C:\Users\PRESTO~1\AppData\Local\Temp\cc3x6Wri.ltrans26.ltrans.o
 .data          0x00000000        0x0 C:\Users\PRESTO~1\AppData\Local\Temp\cc3x6Wri.ltrans27.ltrans.o
 .data          0x00000000        0x0 C:\Users\PRESTO~1\AppData\Local\Temp\cc3x6Wri.ltrans29.ltrans.o
 .data          0x00000000        0x0 C:\Users\PRESTO~1\AppData\Local\Temp\cc3x6Wri.ltrans30.ltrans.o
 .bss           0x00000000        0x0 C:\Users\PRESTO~1\AppData\Local\Temp\cc3x6Wri.ltrans30.ltrans.o
 .bss           0x00000000        0x0 C:\Users\PRESTO~1\AppData\Local\Temp\cc3x6Wri.ltrans31.ltrans.o
 .text          0x00000000        0x0 output\REVOLT\boarddef.o (symbol from plugin)
 .text          0x00000000        0x0 output\REVOLT\flash.o (symbol from plugin)
 .text          0x00000000        0x0 output\REVOLT\stm32f4.o (symbol from plugin)
 .text          0x00000000        0x0 output\REVOLT\stm32f4xx_hal_msp.o (symbol from plugin)
 .text          0x00000000        0x0 output\REVOLT\stm32f4xx_hal_tim_msp.o (symbol from plugin)
 .text          0x00000000        0x0 output\REVOLT\stm32f4xx_it.o (symbol from plugin)
 .text          0x00000000        0x0 output\REVOLT\stm32f4xx_spi_msp.o (symbol from plugin)
 .text          0x00000000        0x0 output\REVOLT\system_stm32f4xx.o (symbol from plugin)
 .text          0x00000000        0x0 output\REVOLT\config.o (symbol from plugin)
 .text          0x00000000        0x0 output\REVOLT\debug.o (symbol from plugin)
 .text          0x00000000        0x0 output\REVOLT\exti.o (symbol from plugin)
 .text          0x00000000        0x0 output\REVOLT\filter.o (symbol from plugin)
 .text          0x00000000        0x0 output\REVOLT\flight.o (symbol from plugin)
 .text          0x00000000        0x0 output\REVOLT\flight_logger.o (symbol from plugin)
 .text          0x00000000        0x0 output\REVOLT\imu.o (symbol from plugin)
 .text          0x00000000        0x0 output\REVOLT\learning.o (symbol from plugin)
 .text          0x00000000        0x0 output\REVOLT\main.o (symbol from plugin)
 .text          0x00000000        0x0 output\REVOLT\mixer.o (symbol from plugin)
 .text          0x00000000        0x0 output\REVOLT\modes.o (symbol from plugin)
 .text          0x00000000        0x0 output\REVOLT\newSoftSerial.o (symbol from plugin)
 .text          0x00000000        0x0 output\REVOLT\pid.o (symbol from plugin)
 .text          0x00000000        0x0 output\REVOLT\quopa.o (symbol from plugin)
 .text          0x00000000        0x0 output\REVOLT\rfbl_functions.o (symbol from plugin)
 .text          0x00000000        0x0 output\REVOLT\rf_math.o (symbol from plugin)
 .text          0x00000000        0x0 output\REVOLT\scheduler.o (symbol from plugin)
 .text          0x00000000        0x0 output\REVOLT\watchdog.o (symbol from plugin)
 .text          0x00000000        0x0 output\REVOLT\wizard.o (symbol from plugin)
 .text          0x00000000        0x0 output\REVOLT\stm32f4xx_hal.o (symbol from plugin)
 .text          0x00000000        0x0 output\REVOLT\stm32f4xx_hal_adc.o (symbol from plugin)
 .text          0x00000000        0x0 output\REVOLT\stm32f4xx_hal_adc_ex.o (symbol from plugin)
 .text          0x00000000        0x0 output\REVOLT\stm32f4xx_hal_can.o (symbol from plugin)
 .text          0x00000000        0x0 output\REVOLT\stm32f4xx_hal_cec.o (symbol from plugin)
 .text          0x00000000        0x0 output\REVOLT\stm32f4xx_hal_cortex.o (symbol from plugin)
 .text          0x00000000        0x0 output\REVOLT\stm32f4xx_hal_crc.o (symbol from plugin)
 .text          0x00000000        0x0 output\REVOLT\stm32f4xx_hal_cryp.o (symbol from plugin)
 .text          0x00000000        0x0 output\REVOLT\stm32f4xx_hal_cryp_ex.o (symbol from plugin)
 .text          0x00000000        0x0 output\REVOLT\stm32f4xx_hal_dac.o (symbol from plugin)
 .text          0x00000000        0x0 output\REVOLT\stm32f4xx_hal_dac_ex.o (symbol from plugin)
 .text          0x00000000        0x0 output\REVOLT\stm32f4xx_hal_dcmi.o (symbol from plugin)
 .text          0x00000000        0x0 output\REVOLT\stm32f4xx_hal_dcmi_ex.o (symbol from plugin)
 .text          0x00000000        0x0 output\REVOLT\stm32f4xx_hal_dfsdm.o (symbol from plugin)
 .text          0x00000000        0x0 output\REVOLT\stm32f4xx_hal_dma.o (symbol from plugin)
 .text          0x00000000        0x0 output\REVOLT\stm32f4xx_hal_dma2d.o (symbol from plugin)
 .text          0x00000000        0x0 output\REVOLT\stm32f4xx_hal_dma_ex.o (symbol from plugin)
 .text          0x00000000        0x0 output\REVOLT\stm32f4xx_hal_dsi.o (symbol from plugin)
 .text          0x00000000        0x0 output\REVOLT\stm32f4xx_hal_eth.o (symbol from plugin)
 .text          0x00000000        0x0 output\REVOLT\stm32f4xx_hal_flash.o (symbol from plugin)
 .text          0x00000000        0x0 output\REVOLT\stm32f4xx_hal_flash_ex.o (symbol from plugin)
 .text          0x00000000        0x0 output\REVOLT\stm32f4xx_hal_flash_ramfunc.o (symbol from plugin)
 .text          0x00000000        0x0 output\REVOLT\stm32f4xx_hal_fmpi2c.o (symbol from plugin)
 .text          0x00000000        0x0 output\REVOLT\stm32f4xx_hal_fmpi2c_ex.o (symbol from plugin)
 .text          0x00000000        0x0 output\REVOLT\stm32f4xx_hal_gpio.o (symbol from plugin)
 .text          0x00000000        0x0 output\REVOLT\stm32f4xx_hal_hash.o (symbol from plugin)
 .text          0x00000000        0x0 output\REVOLT\stm32f4xx_hal_hash_ex.o (symbol from plugin)
 .text          0x00000000        0x0 output\REVOLT\stm32f4xx_hal_hcd.o (symbol from plugin)
 .text          0x00000000        0x0 output\REVOLT\stm32f4xx_hal_i2c.o (symbol from plugin)
 .text          0x00000000        0x0 output\REVOLT\stm32f4xx_hal_i2c_ex.o (symbol from plugin)
 .text          0x00000000        0x0 output\REVOLT\stm32f4xx_hal_i2s.o (symbol from plugin)
 .text          0x00000000        0x0 output\REVOLT\stm32f4xx_hal_i2s_ex.o (symbol from plugin)
 .text          0x00000000        0x0 output\REVOLT\stm32f4xx_hal_irda.o (symbol from plugin)
 .text          0x00000000        0x0 output\REVOLT\stm32f4xx_hal_iwdg.o (symbol from plugin)
 .text          0x00000000        0x0 output\REVOLT\stm32f4xx_hal_lptim.o (symbol from plugin)
 .text          0x00000000        0x0 output\REVOLT\stm32f4xx_hal_ltdc.o (symbol from plugin)
 .text          0x00000000        0x0 output\REVOLT\stm32f4xx_hal_ltdc_ex.o (symbol from plugin)
 .text          0x00000000        0x0 output\REVOLT\stm32f4xx_hal_nand.o (symbol from plugin)
 .text          0x00000000        0x0 output\REVOLT\stm32f4xx_hal_nor.o (symbol from plugin)
 .text          0x00000000        0x0 output\REVOLT\stm32f4xx_hal_pccard.o (symbol from plugin)
 .text          0x00000000        0x0 output\REVOLT\stm32f4xx_hal_pcd.o (symbol from plugin)
 .text          0x00000000        0x0 output\REVOLT\stm32f4xx_hal_pcd_ex.o (symbol from plugin)
 .text          0x00000000        0x0 output\REVOLT\stm32f4xx_hal_pwr.o (symbol from plugin)
 .text          0x00000000        0x0 output\REVOLT\stm32f4xx_hal_pwr_ex.o (symbol from plugin)
 .text          0x00000000        0x0 output\REVOLT\stm32f4xx_hal_qspi.o (symbol from plugin)
 .text          0x00000000        0x0 output\REVOLT\stm32f4xx_hal_rcc.o (symbol from plugin)
 .text          0x00000000        0x0 output\REVOLT\stm32f4xx_hal_rcc_ex.o (symbol from plugin)
 .text          0x00000000        0x0 output\REVOLT\stm32f4xx_hal_rng.o (symbol from plugin)
 .text          0x00000000        0x0 output\REVOLT\stm32f4xx_hal_rtc.o (symbol from plugin)
 .text          0x00000000        0x0 output\REVOLT\stm32f4xx_hal_rtc_ex.o (symbol from plugin)
 .text          0x00000000        0x0 output\REVOLT\stm32f4xx_hal_sai.o (symbol from plugin)
 .text          0x00000000        0x0 output\REVOLT\stm32f4xx_hal_sai_ex.o (symbol from plugin)
 .text          0x00000000        0x0 output\REVOLT\stm32f4xx_hal_sd.o (symbol from plugin)
 .text          0x00000000        0x0 output\REVOLT\stm32f4xx_hal_sdram.o (symbol from plugin)
 .text          0x00000000        0x0 output\REVOLT\stm32f4xx_hal_smartcard.o (symbol from plugin)
 .text          0x00000000        0x0 output\REVOLT\stm32f4xx_hal_spdifrx.o (symbol from plugin)
 .text          0x00000000        0x0 output\REVOLT\stm32f4xx_hal_spi.o (symbol from plugin)
 .text          0x00000000        0x0 output\REVOLT\stm32f4xx_hal_sram.o (symbol from plugin)
 .text          0x00000000        0x0 output\REVOLT\stm32f4xx_hal_tim.o (symbol from plugin)
 .text          0x00000000        0x0 output\REVOLT\stm32f4xx_hal_tim_ex.o (symbol from plugin)
 .text          0x00000000        0x0 output\REVOLT\stm32f4xx_hal_uart.o (symbol from plugin)
 .text          0x00000000        0x0 output\REVOLT\stm32f4xx_hal_usart.o (symbol from plugin)
 .text          0x00000000        0x0 output\REVOLT\stm32f4xx_hal_wwdg.o (symbol from plugin)
 .text          0x00000000        0x0 output\REVOLT\stm32f4xx_ll_fmc.o (symbol from plugin)
 .text          0x00000000        0x0 output\REVOLT\stm32f4xx_ll_fsmc.o (symbol from plugin)
 .text          0x00000000        0x0 output\REVOLT\stm32f4xx_ll_sdmmc.o (symbol from plugin)
 .text          0x00000000        0x0 output\REVOLT\stm32f4xx_ll_usb.o (symbol from plugin)
 .text          0x00000000        0x0 output\REVOLT\crossfire.o (symbol from plugin)
 .text          0x00000000        0x0 output\REVOLT\dshotTwoWay.o (symbol from plugin)
 .text          0x00000000        0x0 output\REVOLT\mspTelemetry.o (symbol from plugin)
 .text          0x00000000        0x0 output\REVOLT\rfosdTelemetry.o (symbol from plugin)
 .text          0x00000000        0x0 output\REVOLT\rfVtx.o (symbol from plugin)
 .text          0x00000000        0x0 output\REVOLT\smartAudio.o (symbol from plugin)
 .text          0x00000000        0x0 output\REVOLT\spektrumTelemetry.o (symbol from plugin)
 .text          0x00000000        0x0 output\REVOLT\sPortTelemetry.o (symbol from plugin)
 .text          0x00000000        0x0 output\REVOLT\telemetry.o (symbol from plugin)
 .text          0x00000000        0x0 output\REVOLT\trampTelemetry.o (symbol from plugin)
 .text          0x00000000        0x0 output\REVOLT\gyro.o (symbol from plugin)
 .text          0x00000000        0x0 output\REVOLT\usbd_core.o (symbol from plugin)
 .text          0x00000000        0x0 output\REVOLT\usbd_ctlreq.o (symbol from plugin)
 .text          0x00000000        0x0 output\REVOLT\usbd_ioreq.o (symbol from plugin)
 .text          0x00000000        0x0 output\REVOLT\usbd_hid.o (symbol from plugin)
 .text          0x00000000        0x0 output\REVOLT\usbd_desc.o (symbol from plugin)
 .text          0x00000000        0x0 output\REVOLT\usb_device.o (symbol from plugin)
 .text          0x00000000        0x0 output\REVOLT\usbd_conf.o (symbol from plugin)
 .text          0x00000000       0x14 output\REVOLT\startup_stm32f405xx.o
 .data          0x00000000        0x0 output\REVOLT\startup_stm32f405xx.o
 .bss           0x00000000        0x0 output\REVOLT\startup_stm32f405xx.o
 .text          0x00000000        0x0 output\REVOLT\adc.o (symbol from plugin)
 .text          0x00000000        0x0 output\REVOLT\transponder.o (symbol from plugin)
 .text          0x00000000        0x0 output\REVOLT\softSerial.o (symbol from plugin)
 .text          0x00000000        0x0 output\REVOLT\maxOsd.o (symbol from plugin)
 .text          0x00000000        0x0 output\REVOLT\esc_1wire.o (symbol from plugin)
 .text          0x00000000        0x0 output\REVOLT\leds.o (symbol from plugin)
 .text          0x00000000        0x0 output\REVOLT\softPwm.o (symbol from plugin)
 .text          0x00000000        0x0 output\REVOLT\dmaShenanigans.o (symbol from plugin)
 .text          0x00000000        0x0 output\REVOLT\actuator_output.o (symbol from plugin)
 .text          0x00000000        0x0 output\REVOLT\buzzer.o (symbol from plugin)
 .text          0x00000000        0x0 output\REVOLT\flash_chip.o (symbol from plugin)
 .text          0x00000000        0x0 output\REVOLT\invensense_mpu_icm_device.o (symbol from plugin)
 .text          0x00000000        0x0 output\REVOLT\invensense_bus_spi.o (symbol from plugin)
 .text          0x00000000        0x0 output\REVOLT\rx.o (symbol from plugin)
 .text          0x00000000        0x0 output\REVOLT\serial.o (symbol from plugin)
 .text          0x00000000        0x0 output\REVOLT\spm_laptimer.o (symbol from plugin)
 .text          0x00000000        0x0 output\REVOLT\arm_mat_add_f32.o (symbol from plugin)
 .text          0x00000000        0x0 output\REVOLT\arm_mat_init_f32.o (symbol from plugin)
 .text          0x00000000        0x0 output\REVOLT\arm_mat_mult_f32.o (symbol from plugin)
 .text          0x00000000        0x0 output\REVOLT\arm_mat_sub_f32.o (symbol from plugin)
 .text          0x00000000        0x0 output\REVOLT\arm_mat_trans_f32.o (symbol from plugin)
 .text          0x00000000        0x0 output\REVOLT\arm_mat_inverse_f32.o (symbol from plugin)
 .text          0x00000000        0x0 output\REVOLT\arm_common_tables.o (symbol from plugin)
 .text          0x00000000        0x0 output\REVOLT\arm_cos_f32.o (symbol from plugin)
 .text          0x00000000        0x0 output\REVOLT\arm_sin_f32.o (symbol from plugin)
 .text          0x00000000        0x0 output\REVOLT\arm_fir_init_f32.o (symbol from plugin)
 .text          0x00000000        0x0 output\REVOLT\arm_fir_f32.o (symbol from plugin)
 .text          0x00000000        0x0 c:/dev/gcc-arm-none-eabi/bin/../lib/gcc/arm-none-eabi/6.3.1/../../../../arm-none-eabi/lib/thumb/v7e-m/fpv4-sp/hard\libc_nano.a(lib_a-atof.o)
 .data          0x00000000        0x0 c:/dev/gcc-arm-none-eabi/bin/../lib/gcc/arm-none-eabi/6.3.1/../../../../arm-none-eabi/lib/thumb/v7e-m/fpv4-sp/hard\libc_nano.a(lib_a-atof.o)
 .bss           0x00000000        0x0 c:/dev/gcc-arm-none-eabi/bin/../lib/gcc/arm-none-eabi/6.3.1/../../../../arm-none-eabi/lib/thumb/v7e-m/fpv4-sp/hard\libc_nano.a(lib_a-atof.o)
 .text          0x00000000        0x0 c:/dev/gcc-arm-none-eabi/bin/../lib/gcc/arm-none-eabi/6.3.1/../../../../arm-none-eabi/lib/thumb/v7e-m/fpv4-sp/hard\libc_nano.a(lib_a-atoi.o)
 .data          0x00000000        0x0 c:/dev/gcc-arm-none-eabi/bin/../lib/gcc/arm-none-eabi/6.3.1/../../../../arm-none-eabi/lib/thumb/v7e-m/fpv4-sp/hard\libc_nano.a(lib_a-atoi.o)
 .bss           0x00000000        0x0 c:/dev/gcc-arm-none-eabi/bin/../lib/gcc/arm-none-eabi/6.3.1/../../../../arm-none-eabi/lib/thumb/v7e-m/fpv4-sp/hard\libc_nano.a(lib_a-atoi.o)
 .text._atoi_r  0x00000000        0x8 c:/dev/gcc-arm-none-eabi/bin/../lib/gcc/arm-none-eabi/6.3.1/../../../../arm-none-eabi/lib/thumb/v7e-m/fpv4-sp/hard\libc_nano.a(lib_a-atoi.o)
 .text          0x00000000        0x0 c:/dev/gcc-arm-none-eabi/bin/../lib/gcc/arm-none-eabi/6.3.1/../../../../arm-none-eabi/lib/thumb/v7e-m/fpv4-sp/hard\libc_nano.a(lib_a-itoa.o)
 .data          0x00000000        0x0 c:/dev/gcc-arm-none-eabi/bin/../lib/gcc/arm-none-eabi/6.3.1/../../../../arm-none-eabi/lib/thumb/v7e-m/fpv4-sp/hard\libc_nano.a(lib_a-itoa.o)
 .bss           0x00000000        0x0 c:/dev/gcc-arm-none-eabi/bin/../lib/gcc/arm-none-eabi/6.3.1/../../../../arm-none-eabi/lib/thumb/v7e-m/fpv4-sp/hard\libc_nano.a(lib_a-itoa.o)
 .text          0x00000000        0x0 c:/dev/gcc-arm-none-eabi/bin/../lib/gcc/arm-none-eabi/6.3.1/../../../../arm-none-eabi/lib/thumb/v7e-m/fpv4-sp/hard\libc_nano.a(lib_a-locale.o)
 .data          0x00000000        0x0 c:/dev/gcc-arm-none-eabi/bin/../lib/gcc/arm-none-eabi/6.3.1/../../../../arm-none-eabi/lib/thumb/v7e-m/fpv4-sp/hard\libc_nano.a(lib_a-locale.o)
 .bss           0x00000000        0x0 c:/dev/gcc-arm-none-eabi/bin/../lib/gcc/arm-none-eabi/6.3.1/../../../../arm-none-eabi/lib/thumb/v7e-m/fpv4-sp/hard\libc_nano.a(lib_a-locale.o)
 .text._setlocale_r
                0x00000000       0x38 c:/dev/gcc-arm-none-eabi/bin/../lib/gcc/arm-none-eabi/6.3.1/../../../../arm-none-eabi/lib/thumb/v7e-m/fpv4-sp/hard\libc_nano.a(lib_a-locale.o)
 .text.__locale_mb_cur_max
                0x00000000       0x1c c:/dev/gcc-arm-none-eabi/bin/../lib/gcc/arm-none-eabi/6.3.1/../../../../arm-none-eabi/lib/thumb/v7e-m/fpv4-sp/hard\libc_nano.a(lib_a-locale.o)
 .text.setlocale
                0x00000000       0x10 c:/dev/gcc-arm-none-eabi/bin/../lib/gcc/arm-none-eabi/6.3.1/../../../../arm-none-eabi/lib/thumb/v7e-m/fpv4-sp/hard\libc_nano.a(lib_a-locale.o)
 .bss._PathLocale
                0x00000000        0x4 c:/dev/gcc-arm-none-eabi/bin/../lib/gcc/arm-none-eabi/6.3.1/../../../../arm-none-eabi/lib/thumb/v7e-m/fpv4-sp/hard\libc_nano.a(lib_a-locale.o)
 .text          0x00000000        0x0 c:/dev/gcc-arm-none-eabi/bin/../lib/gcc/arm-none-eabi/6.3.1/../../../../arm-none-eabi/lib/thumb/v7e-m/fpv4-sp/hard\libc_nano.a(lib_a-mbtowc_r.o)
 .data          0x00000000        0x0 c:/dev/gcc-arm-none-eabi/bin/../lib/gcc/arm-none-eabi/6.3.1/../../../../arm-none-eabi/lib/thumb/v7e-m/fpv4-sp/hard\libc_nano.a(lib_a-mbtowc_r.o)
 .bss           0x00000000        0x0 c:/dev/gcc-arm-none-eabi/bin/../lib/gcc/arm-none-eabi/6.3.1/../../../../arm-none-eabi/lib/thumb/v7e-m/fpv4-sp/hard\libc_nano.a(lib_a-mbtowc_r.o)
 .text._mbtowc_r
                0x00000000       0x24 c:/dev/gcc-arm-none-eabi/bin/../lib/gcc/arm-none-eabi/6.3.1/../../../../arm-none-eabi/lib/thumb/v7e-m/fpv4-sp/hard\libc_nano.a(lib_a-mbtowc_r.o)
 .text          0x00000000        0x0 c:/dev/gcc-arm-none-eabi/bin/../lib/gcc/arm-none-eabi/6.3.1/../../../../arm-none-eabi/lib/thumb/v7e-m/fpv4-sp/hard\libc_nano.a(lib_a-rand.o)
 .data          0x00000000        0x0 c:/dev/gcc-arm-none-eabi/bin/../lib/gcc/arm-none-eabi/6.3.1/../../../../arm-none-eabi/lib/thumb/v7e-m/fpv4-sp/hard\libc_nano.a(lib_a-rand.o)
 .bss           0x00000000        0x0 c:/dev/gcc-arm-none-eabi/bin/../lib/gcc/arm-none-eabi/6.3.1/../../../../arm-none-eabi/lib/thumb/v7e-m/fpv4-sp/hard\libc_nano.a(lib_a-rand.o)
 .text.srand    0x00000000       0x50 c:/dev/gcc-arm-none-eabi/bin/../lib/gcc/arm-none-eabi/6.3.1/../../../../arm-none-eabi/lib/thumb/v7e-m/fpv4-sp/hard\libc_nano.a(lib_a-rand.o)
 .data          0x00000000        0x0 c:/dev/gcc-arm-none-eabi/bin/../lib/gcc/arm-none-eabi/6.3.1/../../../../arm-none-eabi/lib/thumb/v7e-m/fpv4-sp/hard\libc_nano.a(lib_a-strcmp.o)
 .bss           0x00000000        0x0 c:/dev/gcc-arm-none-eabi/bin/../lib/gcc/arm-none-eabi/6.3.1/../../../../arm-none-eabi/lib/thumb/v7e-m/fpv4-sp/hard\libc_nano.a(lib_a-strcmp.o)
 .text          0x00000000        0x0 c:/dev/gcc-arm-none-eabi/bin/../lib/gcc/arm-none-eabi/6.3.1/../../../../arm-none-eabi/lib/thumb/v7e-m/fpv4-sp/hard\libc_nano.a(lib_a-strtod.o)
 .data          0x00000000        0x0 c:/dev/gcc-arm-none-eabi/bin/../lib/gcc/arm-none-eabi/6.3.1/../../../../arm-none-eabi/lib/thumb/v7e-m/fpv4-sp/hard\libc_nano.a(lib_a-strtod.o)
 .bss           0x00000000        0x0 c:/dev/gcc-arm-none-eabi/bin/../lib/gcc/arm-none-eabi/6.3.1/../../../../arm-none-eabi/lib/thumb/v7e-m/fpv4-sp/hard\libc_nano.a(lib_a-strtod.o)
 .text._strtod_r
                0x00000000       0x20 c:/dev/gcc-arm-none-eabi/bin/../lib/gcc/arm-none-eabi/6.3.1/../../../../arm-none-eabi/lib/thumb/v7e-m/fpv4-sp/hard\libc_nano.a(lib_a-strtod.o)
 .text.strtod_l
                0x00000000       0x14 c:/dev/gcc-arm-none-eabi/bin/../lib/gcc/arm-none-eabi/6.3.1/../../../../arm-none-eabi/lib/thumb/v7e-m/fpv4-sp/hard\libc_nano.a(lib_a-strtod.o)
 .text.strtof_l
                0x00000000       0x9c c:/dev/gcc-arm-none-eabi/bin/../lib/gcc/arm-none-eabi/6.3.1/../../../../arm-none-eabi/lib/thumb/v7e-m/fpv4-sp/hard\libc_nano.a(lib_a-strtod.o)
 .text.strtof   0x00000000       0xa8 c:/dev/gcc-arm-none-eabi/bin/../lib/gcc/arm-none-eabi/6.3.1/../../../../arm-none-eabi/lib/thumb/v7e-m/fpv4-sp/hard\libc_nano.a(lib_a-strtod.o)
 .text          0x00000000        0x0 c:/dev/gcc-arm-none-eabi/bin/../lib/gcc/arm-none-eabi/6.3.1/../../../../arm-none-eabi/lib/thumb/v7e-m/fpv4-sp/hard\libc_nano.a(lib_a-strtol.o)
 .data          0x00000000        0x0 c:/dev/gcc-arm-none-eabi/bin/../lib/gcc/arm-none-eabi/6.3.1/../../../../arm-none-eabi/lib/thumb/v7e-m/fpv4-sp/hard\libc_nano.a(lib_a-strtol.o)
 .bss           0x00000000        0x0 c:/dev/gcc-arm-none-eabi/bin/../lib/gcc/arm-none-eabi/6.3.1/../../../../arm-none-eabi/lib/thumb/v7e-m/fpv4-sp/hard\libc_nano.a(lib_a-strtol.o)
 .text._strtol_r
                0x00000000       0x24 c:/dev/gcc-arm-none-eabi/bin/../lib/gcc/arm-none-eabi/6.3.1/../../../../arm-none-eabi/lib/thumb/v7e-m/fpv4-sp/hard\libc_nano.a(lib_a-strtol.o)
 .text.strtol_l
                0x00000000       0x1c c:/dev/gcc-arm-none-eabi/bin/../lib/gcc/arm-none-eabi/6.3.1/../../../../arm-none-eabi/lib/thumb/v7e-m/fpv4-sp/hard\libc_nano.a(lib_a-strtol.o)
 .text          0x00000000        0x0 c:/dev/gcc-arm-none-eabi/bin/../lib/gcc/arm-none-eabi/6.3.1/../../../../arm-none-eabi/lib/thumb/v7e-m/fpv4-sp/hard\libc_nano.a(lib_a-utoa.o)
 .data          0x00000000        0x0 c:/dev/gcc-arm-none-eabi/bin/../lib/gcc/arm-none-eabi/6.3.1/../../../../arm-none-eabi/lib/thumb/v7e-m/fpv4-sp/hard\libc_nano.a(lib_a-utoa.o)
 .bss           0x00000000        0x0 c:/dev/gcc-arm-none-eabi/bin/../lib/gcc/arm-none-eabi/6.3.1/../../../../arm-none-eabi/lib/thumb/v7e-m/fpv4-sp/hard\libc_nano.a(lib_a-utoa.o)
 .text.utoa     0x00000000        0x4 c:/dev/gcc-arm-none-eabi/bin/../lib/gcc/arm-none-eabi/6.3.1/../../../../arm-none-eabi/lib/thumb/v7e-m/fpv4-sp/hard\libc_nano.a(lib_a-utoa.o)
 .text          0x00000000        0x0 c:/dev/gcc-arm-none-eabi/bin/../lib/gcc/arm-none-eabi/6.3.1/../../../../arm-none-eabi/lib/thumb/v7e-m/fpv4-sp/hard\libc_nano.a(lib_a-wctomb_r.o)
 .data          0x00000000        0x0 c:/dev/gcc-arm-none-eabi/bin/../lib/gcc/arm-none-eabi/6.3.1/../../../../arm-none-eabi/lib/thumb/v7e-m/fpv4-sp/hard\libc_nano.a(lib_a-wctomb_r.o)
 .bss           0x00000000        0x0 c:/dev/gcc-arm-none-eabi/bin/../lib/gcc/arm-none-eabi/6.3.1/../../../../arm-none-eabi/lib/thumb/v7e-m/fpv4-sp/hard\libc_nano.a(lib_a-wctomb_r.o)
 .text._wctomb_r
                0x00000000       0x24 c:/dev/gcc-arm-none-eabi/bin/../lib/gcc/arm-none-eabi/6.3.1/../../../../arm-none-eabi/lib/thumb/v7e-m/fpv4-sp/hard\libc_nano.a(lib_a-wctomb_r.o)
 .text          0x00000000        0x0 c:/dev/gcc-arm-none-eabi/bin/../lib/gcc/arm-none-eabi/6.3.1/../../../../arm-none-eabi/lib/thumb/v7e-m/fpv4-sp/hard\libc_nano.a(lib_a-ctype_.o)
 .data          0x00000000        0x0 c:/dev/gcc-arm-none-eabi/bin/../lib/gcc/arm-none-eabi/6.3.1/../../../../arm-none-eabi/lib/thumb/v7e-m/fpv4-sp/hard\libc_nano.a(lib_a-ctype_.o)
 .bss           0x00000000        0x0 c:/dev/gcc-arm-none-eabi/bin/../lib/gcc/arm-none-eabi/6.3.1/../../../../arm-none-eabi/lib/thumb/v7e-m/fpv4-sp/hard\libc_nano.a(lib_a-ctype_.o)
 .text          0x00000000        0x0 c:/dev/gcc-arm-none-eabi/bin/../lib/gcc/arm-none-eabi/6.3.1/../../../../arm-none-eabi/lib/thumb/v7e-m/fpv4-sp/hard\libc_nano.a(lib_a-gdtoa-gethex.o)
 .data          0x00000000        0x0 c:/dev/gcc-arm-none-eabi/bin/../lib/gcc/arm-none-eabi/6.3.1/../../../../arm-none-eabi/lib/thumb/v7e-m/fpv4-sp/hard\libc_nano.a(lib_a-gdtoa-gethex.o)
 .bss           0x00000000        0x0 c:/dev/gcc-arm-none-eabi/bin/../lib/gcc/arm-none-eabi/6.3.1/../../../../arm-none-eabi/lib/thumb/v7e-m/fpv4-sp/hard\libc_nano.a(lib_a-gdtoa-gethex.o)
 .text          0x00000000        0x0 c:/dev/gcc-arm-none-eabi/bin/../lib/gcc/arm-none-eabi/6.3.1/../../../../arm-none-eabi/lib/thumb/v7e-m/fpv4-sp/hard\libc_nano.a(lib_a-gdtoa-hexnan.o)
 .data          0x00000000        0x0 c:/dev/gcc-arm-none-eabi/bin/../lib/gcc/arm-none-eabi/6.3.1/../../../../arm-none-eabi/lib/thumb/v7e-m/fpv4-sp/hard\libc_nano.a(lib_a-gdtoa-hexnan.o)
 .bss           0x00000000        0x0 c:/dev/gcc-arm-none-eabi/bin/../lib/gcc/arm-none-eabi/6.3.1/../../../../arm-none-eabi/lib/thumb/v7e-m/fpv4-sp/hard\libc_nano.a(lib_a-gdtoa-hexnan.o)
 .text          0x00000000        0x0 c:/dev/gcc-arm-none-eabi/bin/../lib/gcc/arm-none-eabi/6.3.1/../../../../arm-none-eabi/lib/thumb/v7e-m/fpv4-sp/hard\libc_nano.a(lib_a-impure.o)
 .data          0x00000000        0x0 c:/dev/gcc-arm-none-eabi/bin/../lib/gcc/arm-none-eabi/6.3.1/../../../../arm-none-eabi/lib/thumb/v7e-m/fpv4-sp/hard\libc_nano.a(lib_a-impure.o)
 .bss           0x00000000        0x0 c:/dev/gcc-arm-none-eabi/bin/../lib/gcc/arm-none-eabi/6.3.1/../../../../arm-none-eabi/lib/thumb/v7e-m/fpv4-sp/hard\libc_nano.a(lib_a-impure.o)
 .rodata._global_impure_ptr
                0x00000000        0x4 c:/dev/gcc-arm-none-eabi/bin/../lib/gcc/arm-none-eabi/6.3.1/../../../../arm-none-eabi/lib/thumb/v7e-m/fpv4-sp/hard\libc_nano.a(lib_a-impure.o)
 .text          0x00000000        0x0 c:/dev/gcc-arm-none-eabi/bin/../lib/gcc/arm-none-eabi/6.3.1/../../../../arm-none-eabi/lib/thumb/v7e-m/fpv4-sp/hard\libc_nano.a(lib_a-localeconv.o)
 .data          0x00000000        0x0 c:/dev/gcc-arm-none-eabi/bin/../lib/gcc/arm-none-eabi/6.3.1/../../../../arm-none-eabi/lib/thumb/v7e-m/fpv4-sp/hard\libc_nano.a(lib_a-localeconv.o)
 .bss           0x00000000        0x0 c:/dev/gcc-arm-none-eabi/bin/../lib/gcc/arm-none-eabi/6.3.1/../../../../arm-none-eabi/lib/thumb/v7e-m/fpv4-sp/hard\libc_nano.a(lib_a-localeconv.o)
 .text._localeconv_r
                0x00000000       0x1c c:/dev/gcc-arm-none-eabi/bin/../lib/gcc/arm-none-eabi/6.3.1/../../../../arm-none-eabi/lib/thumb/v7e-m/fpv4-sp/hard\libc_nano.a(lib_a-localeconv.o)
 .text.localeconv
                0x00000000       0x1c c:/dev/gcc-arm-none-eabi/bin/../lib/gcc/arm-none-eabi/6.3.1/../../../../arm-none-eabi/lib/thumb/v7e-m/fpv4-sp/hard\libc_nano.a(lib_a-localeconv.o)
 .text          0x00000000        0x0 c:/dev/gcc-arm-none-eabi/bin/../lib/gcc/arm-none-eabi/6.3.1/../../../../arm-none-eabi/lib/thumb/v7e-m/fpv4-sp/hard\libc_nano.a(lib_a-malloc.o)
 .data          0x00000000        0x0 c:/dev/gcc-arm-none-eabi/bin/../lib/gcc/arm-none-eabi/6.3.1/../../../../arm-none-eabi/lib/thumb/v7e-m/fpv4-sp/hard\libc_nano.a(lib_a-malloc.o)
 .bss           0x00000000        0x0 c:/dev/gcc-arm-none-eabi/bin/../lib/gcc/arm-none-eabi/6.3.1/../../../../arm-none-eabi/lib/thumb/v7e-m/fpv4-sp/hard\libc_nano.a(lib_a-malloc.o)
 .text          0x00000000        0x0 c:/dev/gcc-arm-none-eabi/bin/../lib/gcc/arm-none-eabi/6.3.1/../../../../arm-none-eabi/lib/thumb/v7e-m/fpv4-sp/hard\libc_nano.a(lib_a-memcpy-stub.o)
 .data          0x00000000        0x0 c:/dev/gcc-arm-none-eabi/bin/../lib/gcc/arm-none-eabi/6.3.1/../../../../arm-none-eabi/lib/thumb/v7e-m/fpv4-sp/hard\libc_nano.a(lib_a-memcpy-stub.o)
 .bss           0x00000000        0x0 c:/dev/gcc-arm-none-eabi/bin/../lib/gcc/arm-none-eabi/6.3.1/../../../../arm-none-eabi/lib/thumb/v7e-m/fpv4-sp/hard\libc_nano.a(lib_a-memcpy-stub.o)
 .text          0x00000000        0x0 c:/dev/gcc-arm-none-eabi/bin/../lib/gcc/arm-none-eabi/6.3.1/../../../../arm-none-eabi/lib/thumb/v7e-m/fpv4-sp/hard\libc_nano.a(lib_a-mprec.o)
 .data          0x00000000        0x0 c:/dev/gcc-arm-none-eabi/bin/../lib/gcc/arm-none-eabi/6.3.1/../../../../arm-none-eabi/lib/thumb/v7e-m/fpv4-sp/hard\libc_nano.a(lib_a-mprec.o)
 .bss           0x00000000        0x0 c:/dev/gcc-arm-none-eabi/bin/../lib/gcc/arm-none-eabi/6.3.1/../../../../arm-none-eabi/lib/thumb/v7e-m/fpv4-sp/hard\libc_nano.a(lib_a-mprec.o)
 .text._mprec_log10
                0x00000000       0x3c c:/dev/gcc-arm-none-eabi/bin/../lib/gcc/arm-none-eabi/6.3.1/../../../../arm-none-eabi/lib/thumb/v7e-m/fpv4-sp/hard\libc_nano.a(lib_a-mprec.o)
 .rodata.__mprec_tinytens
                0x00000000       0x28 c:/dev/gcc-arm-none-eabi/bin/../lib/gcc/arm-none-eabi/6.3.1/../../../../arm-none-eabi/lib/thumb/v7e-m/fpv4-sp/hard\libc_nano.a(lib_a-mprec.o)
 .text          0x00000000        0x0 c:/dev/gcc-arm-none-eabi/bin/../lib/gcc/arm-none-eabi/6.3.1/../../../../arm-none-eabi/lib/thumb/v7e-m/fpv4-sp/hard\libc_nano.a(lib_a-nano-callocr.o)
 .data          0x00000000        0x0 c:/dev/gcc-arm-none-eabi/bin/../lib/gcc/arm-none-eabi/6.3.1/../../../../arm-none-eabi/lib/thumb/v7e-m/fpv4-sp/hard\libc_nano.a(lib_a-nano-callocr.o)
 .bss           0x00000000        0x0 c:/dev/gcc-arm-none-eabi/bin/../lib/gcc/arm-none-eabi/6.3.1/../../../../arm-none-eabi/lib/thumb/v7e-m/fpv4-sp/hard\libc_nano.a(lib_a-nano-callocr.o)
 .text          0x00000000        0x0 c:/dev/gcc-arm-none-eabi/bin/../lib/gcc/arm-none-eabi/6.3.1/../../../../arm-none-eabi/lib/thumb/v7e-m/fpv4-sp/hard\libc_nano.a(lib_a-nano-freer.o)
 .data          0x00000000        0x0 c:/dev/gcc-arm-none-eabi/bin/../lib/gcc/arm-none-eabi/6.3.1/../../../../arm-none-eabi/lib/thumb/v7e-m/fpv4-sp/hard\libc_nano.a(lib_a-nano-freer.o)
 .bss           0x00000000        0x0 c:/dev/gcc-arm-none-eabi/bin/../lib/gcc/arm-none-eabi/6.3.1/../../../../arm-none-eabi/lib/thumb/v7e-m/fpv4-sp/hard\libc_nano.a(lib_a-nano-freer.o)
 .text          0x00000000        0x0 c:/dev/gcc-arm-none-eabi/bin/../lib/gcc/arm-none-eabi/6.3.1/../../../../arm-none-eabi/lib/thumb/v7e-m/fpv4-sp/hard\libc_nano.a(lib_a-nano-mallocr.o)
 .data          0x00000000        0x0 c:/dev/gcc-arm-none-eabi/bin/../lib/gcc/arm-none-eabi/6.3.1/../../../../arm-none-eabi/lib/thumb/v7e-m/fpv4-sp/hard\libc_nano.a(lib_a-nano-mallocr.o)
 .bss           0x00000000        0x0 c:/dev/gcc-arm-none-eabi/bin/../lib/gcc/arm-none-eabi/6.3.1/../../../../arm-none-eabi/lib/thumb/v7e-m/fpv4-sp/hard\libc_nano.a(lib_a-nano-mallocr.o)
 .text          0x00000000        0x0 c:/dev/gcc-arm-none-eabi/bin/../lib/gcc/arm-none-eabi/6.3.1/../../../../arm-none-eabi/lib/thumb/v7e-m/fpv4-sp/hard\libc_nano.a(lib_a-sbrkr.o)
 .data          0x00000000        0x0 c:/dev/gcc-arm-none-eabi/bin/../lib/gcc/arm-none-eabi/6.3.1/../../../../arm-none-eabi/lib/thumb/v7e-m/fpv4-sp/hard\libc_nano.a(lib_a-sbrkr.o)
 .bss           0x00000000        0x0 c:/dev/gcc-arm-none-eabi/bin/../lib/gcc/arm-none-eabi/6.3.1/../../../../arm-none-eabi/lib/thumb/v7e-m/fpv4-sp/hard\libc_nano.a(lib_a-sbrkr.o)
 .text          0x00000000        0x0 c:/dev/gcc-arm-none-eabi/bin/../lib/gcc/arm-none-eabi/6.3.1/../../../../arm-none-eabi/lib/thumb/v7e-m/fpv4-sp/hard\libc_nano.a(lib_a-sf_nan.o)
 .data          0x00000000        0x0 c:/dev/gcc-arm-none-eabi/bin/../lib/gcc/arm-none-eabi/6.3.1/../../../../arm-none-eabi/lib/thumb/v7e-m/fpv4-sp/hard\libc_nano.a(lib_a-sf_nan.o)
 .bss           0x00000000        0x0 c:/dev/gcc-arm-none-eabi/bin/../lib/gcc/arm-none-eabi/6.3.1/../../../../arm-none-eabi/lib/thumb/v7e-m/fpv4-sp/hard\libc_nano.a(lib_a-sf_nan.o)
 .text.nanf     0x00000000        0xc c:/dev/gcc-arm-none-eabi/bin/../lib/gcc/arm-none-eabi/6.3.1/../../../../arm-none-eabi/lib/thumb/v7e-m/fpv4-sp/hard\libc_nano.a(lib_a-sf_nan.o)
 .debug_frame   0x00000000       0x20 c:/dev/gcc-arm-none-eabi/bin/../lib/gcc/arm-none-eabi/6.3.1/../../../../arm-none-eabi/lib/thumb/v7e-m/fpv4-sp/hard\libc_nano.a(lib_a-sf_nan.o)
 .ARM.attributes
                0x00000000       0x34 c:/dev/gcc-arm-none-eabi/bin/../lib/gcc/arm-none-eabi/6.3.1/../../../../arm-none-eabi/lib/thumb/v7e-m/fpv4-sp/hard\libc_nano.a(lib_a-sf_nan.o)
 .data          0x00000000        0x0 c:/dev/gcc-arm-none-eabi/bin/../lib/gcc/arm-none-eabi/6.3.1/../../../../arm-none-eabi/lib/thumb/v7e-m/fpv4-sp/hard\libc_nano.a(lib_a-strlen.o)
 .bss           0x00000000        0x0 c:/dev/gcc-arm-none-eabi/bin/../lib/gcc/arm-none-eabi/6.3.1/../../../../arm-none-eabi/lib/thumb/v7e-m/fpv4-sp/hard\libc_nano.a(lib_a-strlen.o)
 .text          0x00000000        0x0 c:/dev/gcc-arm-none-eabi/bin/../lib/gcc/arm-none-eabi/6.3.1/../../../../arm-none-eabi/lib/thumb/v7e-m/fpv4-sp/hard\libc_nano.a(lib_a-strncmp.o)
 .data          0x00000000        0x0 c:/dev/gcc-arm-none-eabi/bin/../lib/gcc/arm-none-eabi/6.3.1/../../../../arm-none-eabi/lib/thumb/v7e-m/fpv4-sp/hard\libc_nano.a(lib_a-strncmp.o)
 .bss           0x00000000        0x0 c:/dev/gcc-arm-none-eabi/bin/../lib/gcc/arm-none-eabi/6.3.1/../../../../arm-none-eabi/lib/thumb/v7e-m/fpv4-sp/hard\libc_nano.a(lib_a-strncmp.o)
 .text          0x00000000        0x0 c:/dev/gcc-arm-none-eabi/bin/../lib/gcc/arm-none-eabi/6.3.1/../../../../arm-none-eabi/lib/thumb/v7e-m/fpv4-sp/hard\libc_nano.a(lib_a-memset.o)
 .data          0x00000000        0x0 c:/dev/gcc-arm-none-eabi/bin/../lib/gcc/arm-none-eabi/6.3.1/../../../../arm-none-eabi/lib/thumb/v7e-m/fpv4-sp/hard\libc_nano.a(lib_a-memset.o)
 .bss           0x00000000        0x0 c:/dev/gcc-arm-none-eabi/bin/../lib/gcc/arm-none-eabi/6.3.1/../../../../arm-none-eabi/lib/thumb/v7e-m/fpv4-sp/hard\libc_nano.a(lib_a-memset.o)
 .text          0x00000000        0x0 c:/dev/gcc-arm-none-eabi/bin/../lib/gcc/arm-none-eabi/6.3.1/../../../../arm-none-eabi/lib/thumb/v7e-m/fpv4-sp/hard\libc_nano.a(lib_a-mlock.o)
 .data          0x00000000        0x0 c:/dev/gcc-arm-none-eabi/bin/../lib/gcc/arm-none-eabi/6.3.1/../../../../arm-none-eabi/lib/thumb/v7e-m/fpv4-sp/hard\libc_nano.a(lib_a-mlock.o)
 .bss           0x00000000        0x0 c:/dev/gcc-arm-none-eabi/bin/../lib/gcc/arm-none-eabi/6.3.1/../../../../arm-none-eabi/lib/thumb/v7e-m/fpv4-sp/hard\libc_nano.a(lib_a-mlock.o)
 .text          0x00000000        0x0 c:/dev/gcc-arm-none-eabi/bin/../lib/gcc/arm-none-eabi/6.3.1/../../../../arm-none-eabi/lib/thumb/v7e-m/fpv4-sp/hard\libc_nano.a(lib_a-reent.o)
 .data          0x00000000        0x0 c:/dev/gcc-arm-none-eabi/bin/../lib/gcc/arm-none-eabi/6.3.1/../../../../arm-none-eabi/lib/thumb/v7e-m/fpv4-sp/hard\libc_nano.a(lib_a-reent.o)
 .bss           0x00000000        0x0 c:/dev/gcc-arm-none-eabi/bin/../lib/gcc/arm-none-eabi/6.3.1/../../../../arm-none-eabi/lib/thumb/v7e-m/fpv4-sp/hard\libc_nano.a(lib_a-reent.o)
 .text.cleanup_glue
                0x00000000       0x1a c:/dev/gcc-arm-none-eabi/bin/../lib/gcc/arm-none-eabi/6.3.1/../../../../arm-none-eabi/lib/thumb/v7e-m/fpv4-sp/hard\libc_nano.a(lib_a-reent.o)
 .text._reclaim_reent
                0x00000000       0xb8 c:/dev/gcc-arm-none-eabi/bin/../lib/gcc/arm-none-eabi/6.3.1/../../../../arm-none-eabi/lib/thumb/v7e-m/fpv4-sp/hard\libc_nano.a(lib_a-reent.o)
 .text          0x00000000        0x0 c:/dev/gcc-arm-none-eabi/bin/../lib/gcc/arm-none-eabi/6.3.1/../../../../arm-none-eabi/lib/thumb/v7e-m/fpv4-sp/hard\libnosys.a(sbrk.o)
 .data          0x00000000        0x0 c:/dev/gcc-arm-none-eabi/bin/../lib/gcc/arm-none-eabi/6.3.1/../../../../arm-none-eabi/lib/thumb/v7e-m/fpv4-sp/hard\libnosys.a(sbrk.o)
 .bss           0x00000000        0x0 c:/dev/gcc-arm-none-eabi/bin/../lib/gcc/arm-none-eabi/6.3.1/../../../../arm-none-eabi/lib/thumb/v7e-m/fpv4-sp/hard\libnosys.a(sbrk.o)
 .data          0x00000000        0x0 c:/dev/gcc-arm-none-eabi/bin/../lib/gcc/arm-none-eabi/6.3.1/thumb/v7e-m/fpv4-sp/hard\libgcc.a(_arm_addsubdf3.o)
 .bss           0x00000000        0x0 c:/dev/gcc-arm-none-eabi/bin/../lib/gcc/arm-none-eabi/6.3.1/thumb/v7e-m/fpv4-sp/hard\libgcc.a(_arm_addsubdf3.o)
 .data          0x00000000        0x0 c:/dev/gcc-arm-none-eabi/bin/../lib/gcc/arm-none-eabi/6.3.1/thumb/v7e-m/fpv4-sp/hard\libgcc.a(_arm_muldivdf3.o)
 .bss           0x00000000        0x0 c:/dev/gcc-arm-none-eabi/bin/../lib/gcc/arm-none-eabi/6.3.1/thumb/v7e-m/fpv4-sp/hard\libgcc.a(_arm_muldivdf3.o)
 .data          0x00000000        0x0 c:/dev/gcc-arm-none-eabi/bin/../lib/gcc/arm-none-eabi/6.3.1/thumb/v7e-m/fpv4-sp/hard\libgcc.a(_arm_cmpdf2.o)
 .bss           0x00000000        0x0 c:/dev/gcc-arm-none-eabi/bin/../lib/gcc/arm-none-eabi/6.3.1/thumb/v7e-m/fpv4-sp/hard\libgcc.a(_arm_cmpdf2.o)
 .data          0x00000000        0x0 c:/dev/gcc-arm-none-eabi/bin/../lib/gcc/arm-none-eabi/6.3.1/thumb/v7e-m/fpv4-sp/hard\libgcc.a(_arm_unorddf2.o)
 .bss           0x00000000        0x0 c:/dev/gcc-arm-none-eabi/bin/../lib/gcc/arm-none-eabi/6.3.1/thumb/v7e-m/fpv4-sp/hard\libgcc.a(_arm_unorddf2.o)
 .data          0x00000000        0x0 c:/dev/gcc-arm-none-eabi/bin/../lib/gcc/arm-none-eabi/6.3.1/thumb/v7e-m/fpv4-sp/hard\libgcc.a(_arm_fixdfsi.o)
 .bss           0x00000000        0x0 c:/dev/gcc-arm-none-eabi/bin/../lib/gcc/arm-none-eabi/6.3.1/thumb/v7e-m/fpv4-sp/hard\libgcc.a(_arm_fixdfsi.o)
 .data          0x00000000        0x0 c:/dev/gcc-arm-none-eabi/bin/../lib/gcc/arm-none-eabi/6.3.1/thumb/v7e-m/fpv4-sp/hard\libgcc.a(_arm_fixunsdfsi.o)
 .bss           0x00000000        0x0 c:/dev/gcc-arm-none-eabi/bin/../lib/gcc/arm-none-eabi/6.3.1/thumb/v7e-m/fpv4-sp/hard\libgcc.a(_arm_fixunsdfsi.o)
 .data          0x00000000        0x0 c:/dev/gcc-arm-none-eabi/bin/../lib/gcc/arm-none-eabi/6.3.1/thumb/v7e-m/fpv4-sp/hard\libgcc.a(_arm_truncdfsf2.o)
 .bss           0x00000000        0x0 c:/dev/gcc-arm-none-eabi/bin/../lib/gcc/arm-none-eabi/6.3.1/thumb/v7e-m/fpv4-sp/hard\libgcc.a(_arm_truncdfsf2.o)
 .text          0x00000000        0x0 c:/dev/gcc-arm-none-eabi/bin/../lib/gcc/arm-none-eabi/6.3.1/../../../../arm-none-eabi/lib/thumb/v7e-m/fpv4-sp/hard\libm.a(lib_a-powl.o)
 .data          0x00000000        0x0 c:/dev/gcc-arm-none-eabi/bin/../lib/gcc/arm-none-eabi/6.3.1/../../../../arm-none-eabi/lib/thumb/v7e-m/fpv4-sp/hard\libm.a(lib_a-powl.o)
 .bss           0x00000000        0x0 c:/dev/gcc-arm-none-eabi/bin/../lib/gcc/arm-none-eabi/6.3.1/../../../../arm-none-eabi/lib/thumb/v7e-m/fpv4-sp/hard\libm.a(lib_a-powl.o)
 .text          0x00000000        0x0 c:/dev/gcc-arm-none-eabi/bin/../lib/gcc/arm-none-eabi/6.3.1/../../../../arm-none-eabi/lib/thumb/v7e-m/fpv4-sp/hard\libm.a(lib_a-s_ceil.o)
 .data          0x00000000        0x0 c:/dev/gcc-arm-none-eabi/bin/../lib/gcc/arm-none-eabi/6.3.1/../../../../arm-none-eabi/lib/thumb/v7e-m/fpv4-sp/hard\libm.a(lib_a-s_ceil.o)
 .bss           0x00000000        0x0 c:/dev/gcc-arm-none-eabi/bin/../lib/gcc/arm-none-eabi/6.3.1/../../../../arm-none-eabi/lib/thumb/v7e-m/fpv4-sp/hard\libm.a(lib_a-s_ceil.o)
 .text          0x00000000        0x0 c:/dev/gcc-arm-none-eabi/bin/../lib/gcc/arm-none-eabi/6.3.1/../../../../arm-none-eabi/lib/thumb/v7e-m/fpv4-sp/hard\libm.a(lib_a-s_lrint.o)
 .data          0x00000000        0x0 c:/dev/gcc-arm-none-eabi/bin/../lib/gcc/arm-none-eabi/6.3.1/../../../../arm-none-eabi/lib/thumb/v7e-m/fpv4-sp/hard\libm.a(lib_a-s_lrint.o)
 .bss           0x00000000        0x0 c:/dev/gcc-arm-none-eabi/bin/../lib/gcc/arm-none-eabi/6.3.1/../../../../arm-none-eabi/lib/thumb/v7e-m/fpv4-sp/hard\libm.a(lib_a-s_lrint.o)
 .text          0x00000000        0x0 c:/dev/gcc-arm-none-eabi/bin/../lib/gcc/arm-none-eabi/6.3.1/../../../../arm-none-eabi/lib/thumb/v7e-m/fpv4-sp/hard\libm.a(lib_a-s_round.o)
 .data          0x00000000        0x0 c:/dev/gcc-arm-none-eabi/bin/../lib/gcc/arm-none-eabi/6.3.1/../../../../arm-none-eabi/lib/thumb/v7e-m/fpv4-sp/hard\libm.a(lib_a-s_round.o)
 .bss           0x00000000        0x0 c:/dev/gcc-arm-none-eabi/bin/../lib/gcc/arm-none-eabi/6.3.1/../../../../arm-none-eabi/lib/thumb/v7e-m/fpv4-sp/hard\libm.a(lib_a-s_round.o)
 .text          0x00000000        0x0 c:/dev/gcc-arm-none-eabi/bin/../lib/gcc/arm-none-eabi/6.3.1/../../../../arm-none-eabi/lib/thumb/v7e-m/fpv4-sp/hard\libm.a(lib_a-sf_cos.o)
 .data          0x00000000        0x0 c:/dev/gcc-arm-none-eabi/bin/../lib/gcc/arm-none-eabi/6.3.1/../../../../arm-none-eabi/lib/thumb/v7e-m/fpv4-sp/hard\libm.a(lib_a-sf_cos.o)
 .bss           0x00000000        0x0 c:/dev/gcc-arm-none-eabi/bin/../lib/gcc/arm-none-eabi/6.3.1/../../../../arm-none-eabi/lib/thumb/v7e-m/fpv4-sp/hard\libm.a(lib_a-sf_cos.o)
 .text          0x00000000        0x0 c:/dev/gcc-arm-none-eabi/bin/../lib/gcc/arm-none-eabi/6.3.1/../../../../arm-none-eabi/lib/thumb/v7e-m/fpv4-sp/hard\libm.a(lib_a-sf_lrint.o)
 .data          0x00000000        0x0 c:/dev/gcc-arm-none-eabi/bin/../lib/gcc/arm-none-eabi/6.3.1/../../../../arm-none-eabi/lib/thumb/v7e-m/fpv4-sp/hard\libm.a(lib_a-sf_lrint.o)
 .bss           0x00000000        0x0 c:/dev/gcc-arm-none-eabi/bin/../lib/gcc/arm-none-eabi/6.3.1/../../../../arm-none-eabi/lib/thumb/v7e-m/fpv4-sp/hard\libm.a(lib_a-sf_lrint.o)
 .text          0x00000000        0x0 c:/dev/gcc-arm-none-eabi/bin/../lib/gcc/arm-none-eabi/6.3.1/../../../../arm-none-eabi/lib/thumb/v7e-m/fpv4-sp/hard\libm.a(lib_a-sf_sin.o)
 .data          0x00000000        0x0 c:/dev/gcc-arm-none-eabi/bin/../lib/gcc/arm-none-eabi/6.3.1/../../../../arm-none-eabi/lib/thumb/v7e-m/fpv4-sp/hard\libm.a(lib_a-sf_sin.o)
 .bss           0x00000000        0x0 c:/dev/gcc-arm-none-eabi/bin/../lib/gcc/arm-none-eabi/6.3.1/../../../../arm-none-eabi/lib/thumb/v7e-m/fpv4-sp/hard\libm.a(lib_a-sf_sin.o)
 .text          0x00000000        0x0 c:/dev/gcc-arm-none-eabi/bin/../lib/gcc/arm-none-eabi/6.3.1/../../../../arm-none-eabi/lib/thumb/v7e-m/fpv4-sp/hard\libm.a(lib_a-w_pow.o)
 .data          0x00000000        0x0 c:/dev/gcc-arm-none-eabi/bin/../lib/gcc/arm-none-eabi/6.3.1/../../../../arm-none-eabi/lib/thumb/v7e-m/fpv4-sp/hard\libm.a(lib_a-w_pow.o)
 .bss           0x00000000        0x0 c:/dev/gcc-arm-none-eabi/bin/../lib/gcc/arm-none-eabi/6.3.1/../../../../arm-none-eabi/lib/thumb/v7e-m/fpv4-sp/hard\libm.a(lib_a-w_pow.o)
 .text          0x00000000        0x0 c:/dev/gcc-arm-none-eabi/bin/../lib/gcc/arm-none-eabi/6.3.1/../../../../arm-none-eabi/lib/thumb/v7e-m/fpv4-sp/hard\libm.a(lib_a-wf_sqrt.o)
 .data          0x00000000        0x0 c:/dev/gcc-arm-none-eabi/bin/../lib/gcc/arm-none-eabi/6.3.1/../../../../arm-none-eabi/lib/thumb/v7e-m/fpv4-sp/hard\libm.a(lib_a-wf_sqrt.o)
 .bss           0x00000000        0x0 c:/dev/gcc-arm-none-eabi/bin/../lib/gcc/arm-none-eabi/6.3.1/../../../../arm-none-eabi/lib/thumb/v7e-m/fpv4-sp/hard\libm.a(lib_a-wf_sqrt.o)
 .text          0x00000000        0x0 c:/dev/gcc-arm-none-eabi/bin/../lib/gcc/arm-none-eabi/6.3.1/../../../../arm-none-eabi/lib/thumb/v7e-m/fpv4-sp/hard\libm.a(lib_a-e_pow.o)
 .data          0x00000000        0x0 c:/dev/gcc-arm-none-eabi/bin/../lib/gcc/arm-none-eabi/6.3.1/../../../../arm-none-eabi/lib/thumb/v7e-m/fpv4-sp/hard\libm.a(lib_a-e_pow.o)
 .bss           0x00000000        0x0 c:/dev/gcc-arm-none-eabi/bin/../lib/gcc/arm-none-eabi/6.3.1/../../../../arm-none-eabi/lib/thumb/v7e-m/fpv4-sp/hard\libm.a(lib_a-e_pow.o)
 .text          0x00000000        0x0 c:/dev/gcc-arm-none-eabi/bin/../lib/gcc/arm-none-eabi/6.3.1/../../../../arm-none-eabi/lib/thumb/v7e-m/fpv4-sp/hard\libm.a(lib_a-e_sqrt.o)
 .data          0x00000000        0x0 c:/dev/gcc-arm-none-eabi/bin/../lib/gcc/arm-none-eabi/6.3.1/../../../../arm-none-eabi/lib/thumb/v7e-m/fpv4-sp/hard\libm.a(lib_a-e_sqrt.o)
 .bss           0x00000000        0x0 c:/dev/gcc-arm-none-eabi/bin/../lib/gcc/arm-none-eabi/6.3.1/../../../../arm-none-eabi/lib/thumb/v7e-m/fpv4-sp/hard\libm.a(lib_a-e_sqrt.o)
 .text          0x00000000        0x0 c:/dev/gcc-arm-none-eabi/bin/../lib/gcc/arm-none-eabi/6.3.1/../../../../arm-none-eabi/lib/thumb/v7e-m/fpv4-sp/hard\libm.a(lib_a-ef_rem_pio2.o)
 .data          0x00000000        0x0 c:/dev/gcc-arm-none-eabi/bin/../lib/gcc/arm-none-eabi/6.3.1/../../../../arm-none-eabi/lib/thumb/v7e-m/fpv4-sp/hard\libm.a(lib_a-ef_rem_pio2.o)
 .bss           0x00000000        0x0 c:/dev/gcc-arm-none-eabi/bin/../lib/gcc/arm-none-eabi/6.3.1/../../../../arm-none-eabi/lib/thumb/v7e-m/fpv4-sp/hard\libm.a(lib_a-ef_rem_pio2.o)
 .text          0x00000000        0x0 c:/dev/gcc-arm-none-eabi/bin/../lib/gcc/arm-none-eabi/6.3.1/../../../../arm-none-eabi/lib/thumb/v7e-m/fpv4-sp/hard\libm.a(lib_a-ef_sqrt.o)
 .data          0x00000000        0x0 c:/dev/gcc-arm-none-eabi/bin/../lib/gcc/arm-none-eabi/6.3.1/../../../../arm-none-eabi/lib/thumb/v7e-m/fpv4-sp/hard\libm.a(lib_a-ef_sqrt.o)
 .bss           0x00000000        0x0 c:/dev/gcc-arm-none-eabi/bin/../lib/gcc/arm-none-eabi/6.3.1/../../../../arm-none-eabi/lib/thumb/v7e-m/fpv4-sp/hard\libm.a(lib_a-ef_sqrt.o)
 .text          0x00000000        0x0 c:/dev/gcc-arm-none-eabi/bin/../lib/gcc/arm-none-eabi/6.3.1/../../../../arm-none-eabi/lib/thumb/v7e-m/fpv4-sp/hard\libm.a(lib_a-kf_cos.o)
 .data          0x00000000        0x0 c:/dev/gcc-arm-none-eabi/bin/../lib/gcc/arm-none-eabi/6.3.1/../../../../arm-none-eabi/lib/thumb/v7e-m/fpv4-sp/hard\libm.a(lib_a-kf_cos.o)
 .bss           0x00000000        0x0 c:/dev/gcc-arm-none-eabi/bin/../lib/gcc/arm-none-eabi/6.3.1/../../../../arm-none-eabi/lib/thumb/v7e-m/fpv4-sp/hard\libm.a(lib_a-kf_cos.o)
 .text          0x00000000        0x0 c:/dev/gcc-arm-none-eabi/bin/../lib/gcc/arm-none-eabi/6.3.1/../../../../arm-none-eabi/lib/thumb/v7e-m/fpv4-sp/hard\libm.a(lib_a-kf_rem_pio2.o)
 .data          0x00000000        0x0 c:/dev/gcc-arm-none-eabi/bin/../lib/gcc/arm-none-eabi/6.3.1/../../../../arm-none-eabi/lib/thumb/v7e-m/fpv4-sp/hard\libm.a(lib_a-kf_rem_pio2.o)
 .bss           0x00000000        0x0 c:/dev/gcc-arm-none-eabi/bin/../lib/gcc/arm-none-eabi/6.3.1/../../../../arm-none-eabi/lib/thumb/v7e-m/fpv4-sp/hard\libm.a(lib_a-kf_rem_pio2.o)
 .text          0x00000000        0x0 c:/dev/gcc-arm-none-eabi/bin/../lib/gcc/arm-none-eabi/6.3.1/../../../../arm-none-eabi/lib/thumb/v7e-m/fpv4-sp/hard\libm.a(lib_a-kf_sin.o)
 .data          0x00000000        0x0 c:/dev/gcc-arm-none-eabi/bin/../lib/gcc/arm-none-eabi/6.3.1/../../../../arm-none-eabi/lib/thumb/v7e-m/fpv4-sp/hard\libm.a(lib_a-kf_sin.o)
 .bss           0x00000000        0x0 c:/dev/gcc-arm-none-eabi/bin/../lib/gcc/arm-none-eabi/6.3.1/../../../../arm-none-eabi/lib/thumb/v7e-m/fpv4-sp/hard\libm.a(lib_a-kf_sin.o)
 .text          0x00000000        0x0 c:/dev/gcc-arm-none-eabi/bin/../lib/gcc/arm-none-eabi/6.3.1/../../../../arm-none-eabi/lib/thumb/v7e-m/fpv4-sp/hard\libm.a(lib_a-s_fabs.o)
 .data          0x00000000        0x0 c:/dev/gcc-arm-none-eabi/bin/../lib/gcc/arm-none-eabi/6.3.1/../../../../arm-none-eabi/lib/thumb/v7e-m/fpv4-sp/hard\libm.a(lib_a-s_fabs.o)
 .bss           0x00000000        0x0 c:/dev/gcc-arm-none-eabi/bin/../lib/gcc/arm-none-eabi/6.3.1/../../../../arm-none-eabi/lib/thumb/v7e-m/fpv4-sp/hard\libm.a(lib_a-s_fabs.o)
 .text          0x00000000        0x0 c:/dev/gcc-arm-none-eabi/bin/../lib/gcc/arm-none-eabi/6.3.1/../../../../arm-none-eabi/lib/thumb/v7e-m/fpv4-sp/hard\libm.a(lib_a-s_finite.o)
 .data          0x00000000        0x0 c:/dev/gcc-arm-none-eabi/bin/../lib/gcc/arm-none-eabi/6.3.1/../../../../arm-none-eabi/lib/thumb/v7e-m/fpv4-sp/hard\libm.a(lib_a-s_finite.o)
 .bss           0x00000000        0x0 c:/dev/gcc-arm-none-eabi/bin/../lib/gcc/arm-none-eabi/6.3.1/../../../../arm-none-eabi/lib/thumb/v7e-m/fpv4-sp/hard\libm.a(lib_a-s_finite.o)
 .text          0x00000000        0x0 c:/dev/gcc-arm-none-eabi/bin/../lib/gcc/arm-none-eabi/6.3.1/../../../../arm-none-eabi/lib/thumb/v7e-m/fpv4-sp/hard\libm.a(lib_a-s_lib_ver.o)
 .data          0x00000000        0x0 c:/dev/gcc-arm-none-eabi/bin/../lib/gcc/arm-none-eabi/6.3.1/../../../../arm-none-eabi/lib/thumb/v7e-m/fpv4-sp/hard\libm.a(lib_a-s_lib_ver.o)
 .bss           0x00000000        0x0 c:/dev/gcc-arm-none-eabi/bin/../lib/gcc/arm-none-eabi/6.3.1/../../../../arm-none-eabi/lib/thumb/v7e-m/fpv4-sp/hard\libm.a(lib_a-s_lib_ver.o)
 .text          0x00000000        0x0 c:/dev/gcc-arm-none-eabi/bin/../lib/gcc/arm-none-eabi/6.3.1/../../../../arm-none-eabi/lib/thumb/v7e-m/fpv4-sp/hard\libm.a(lib_a-s_matherr.o)
 .data          0x00000000        0x0 c:/dev/gcc-arm-none-eabi/bin/../lib/gcc/arm-none-eabi/6.3.1/../../../../arm-none-eabi/lib/thumb/v7e-m/fpv4-sp/hard\libm.a(lib_a-s_matherr.o)
 .bss           0x00000000        0x0 c:/dev/gcc-arm-none-eabi/bin/../lib/gcc/arm-none-eabi/6.3.1/../../../../arm-none-eabi/lib/thumb/v7e-m/fpv4-sp/hard\libm.a(lib_a-s_matherr.o)
 .text          0x00000000        0x0 c:/dev/gcc-arm-none-eabi/bin/../lib/gcc/arm-none-eabi/6.3.1/../../../../arm-none-eabi/lib/thumb/v7e-m/fpv4-sp/hard\libm.a(lib_a-s_nan.o)
 .data          0x00000000        0x0 c:/dev/gcc-arm-none-eabi/bin/../lib/gcc/arm-none-eabi/6.3.1/../../../../arm-none-eabi/lib/thumb/v7e-m/fpv4-sp/hard\libm.a(lib_a-s_nan.o)
 .bss           0x00000000        0x0 c:/dev/gcc-arm-none-eabi/bin/../lib/gcc/arm-none-eabi/6.3.1/../../../../arm-none-eabi/lib/thumb/v7e-m/fpv4-sp/hard\libm.a(lib_a-s_nan.o)
 .text          0x00000000        0x0 c:/dev/gcc-arm-none-eabi/bin/../lib/gcc/arm-none-eabi/6.3.1/../../../../arm-none-eabi/lib/thumb/v7e-m/fpv4-sp/hard\libm.a(lib_a-s_rint.o)
 .data          0x00000000        0x0 c:/dev/gcc-arm-none-eabi/bin/../lib/gcc/arm-none-eabi/6.3.1/../../../../arm-none-eabi/lib/thumb/v7e-m/fpv4-sp/hard\libm.a(lib_a-s_rint.o)
 .bss           0x00000000        0x0 c:/dev/gcc-arm-none-eabi/bin/../lib/gcc/arm-none-eabi/6.3.1/../../../../arm-none-eabi/lib/thumb/v7e-m/fpv4-sp/hard\libm.a(lib_a-s_rint.o)
 .text          0x00000000        0x0 c:/dev/gcc-arm-none-eabi/bin/../lib/gcc/arm-none-eabi/6.3.1/../../../../arm-none-eabi/lib/thumb/v7e-m/fpv4-sp/hard\libm.a(lib_a-s_scalbn.o)
 .data          0x00000000        0x0 c:/dev/gcc-arm-none-eabi/bin/../lib/gcc/arm-none-eabi/6.3.1/../../../../arm-none-eabi/lib/thumb/v7e-m/fpv4-sp/hard\libm.a(lib_a-s_scalbn.o)
 .bss           0x00000000        0x0 c:/dev/gcc-arm-none-eabi/bin/../lib/gcc/arm-none-eabi/6.3.1/../../../../arm-none-eabi/lib/thumb/v7e-m/fpv4-sp/hard\libm.a(lib_a-s_scalbn.o)
 .text          0x00000000        0x0 c:/dev/gcc-arm-none-eabi/bin/../lib/gcc/arm-none-eabi/6.3.1/../../../../arm-none-eabi/lib/thumb/v7e-m/fpv4-sp/hard\libm.a(lib_a-sf_fabs.o)
 .data          0x00000000        0x0 c:/dev/gcc-arm-none-eabi/bin/../lib/gcc/arm-none-eabi/6.3.1/../../../../arm-none-eabi/lib/thumb/v7e-m/fpv4-sp/hard\libm.a(lib_a-sf_fabs.o)
 .bss           0x00000000        0x0 c:/dev/gcc-arm-none-eabi/bin/../lib/gcc/arm-none-eabi/6.3.1/../../../../arm-none-eabi/lib/thumb/v7e-m/fpv4-sp/hard\libm.a(lib_a-sf_fabs.o)
 .text          0x00000000        0x0 c:/dev/gcc-arm-none-eabi/bin/../lib/gcc/arm-none-eabi/6.3.1/../../../../arm-none-eabi/lib/thumb/v7e-m/fpv4-sp/hard\libm.a(lib_a-sf_floor.o)
 .data          0x00000000        0x0 c:/dev/gcc-arm-none-eabi/bin/../lib/gcc/arm-none-eabi/6.3.1/../../../../arm-none-eabi/lib/thumb/v7e-m/fpv4-sp/hard\libm.a(lib_a-sf_floor.o)
 .bss           0x00000000        0x0 c:/dev/gcc-arm-none-eabi/bin/../lib/gcc/arm-none-eabi/6.3.1/../../../../arm-none-eabi/lib/thumb/v7e-m/fpv4-sp/hard\libm.a(lib_a-sf_floor.o)
 .text          0x00000000        0x0 c:/dev/gcc-arm-none-eabi/bin/../lib/gcc/arm-none-eabi/6.3.1/../../../../arm-none-eabi/lib/thumb/v7e-m/fpv4-sp/hard\libm.a(lib_a-sf_scalbn.o)
 .data          0x00000000        0x0 c:/dev/gcc-arm-none-eabi/bin/../lib/gcc/arm-none-eabi/6.3.1/../../../../arm-none-eabi/lib/thumb/v7e-m/fpv4-sp/hard\libm.a(lib_a-sf_scalbn.o)
 .bss           0x00000000        0x0 c:/dev/gcc-arm-none-eabi/bin/../lib/gcc/arm-none-eabi/6.3.1/../../../../arm-none-eabi/lib/thumb/v7e-m/fpv4-sp/hard\libm.a(lib_a-sf_scalbn.o)
 .text          0x00000000        0x0 c:/dev/gcc-arm-none-eabi/bin/../lib/gcc/arm-none-eabi/6.3.1/../../../../arm-none-eabi/lib/thumb/v7e-m/fpv4-sp/hard\libm.a(lib_a-s_copysign.o)
 .data          0x00000000        0x0 c:/dev/gcc-arm-none-eabi/bin/../lib/gcc/arm-none-eabi/6.3.1/../../../../arm-none-eabi/lib/thumb/v7e-m/fpv4-sp/hard\libm.a(lib_a-s_copysign.o)
 .bss           0x00000000        0x0 c:/dev/gcc-arm-none-eabi/bin/../lib/gcc/arm-none-eabi/6.3.1/../../../../arm-none-eabi/lib/thumb/v7e-m/fpv4-sp/hard\libm.a(lib_a-s_copysign.o)
 .text          0x00000000        0x0 c:/dev/gcc-arm-none-eabi/bin/../lib/gcc/arm-none-eabi/6.3.1/../../../../arm-none-eabi/lib/thumb/v7e-m/fpv4-sp/hard\libm.a(lib_a-sf_copysign.o)
 .data          0x00000000        0x0 c:/dev/gcc-arm-none-eabi/bin/../lib/gcc/arm-none-eabi/6.3.1/../../../../arm-none-eabi/lib/thumb/v7e-m/fpv4-sp/hard\libm.a(lib_a-sf_copysign.o)
 .bss           0x00000000        0x0 c:/dev/gcc-arm-none-eabi/bin/../lib/gcc/arm-none-eabi/6.3.1/../../../../arm-none-eabi/lib/thumb/v7e-m/fpv4-sp/hard\libm.a(lib_a-sf_copysign.o)
 .text          0x00000000        0x0 c:/dev/gcc-arm-none-eabi/bin/../lib/gcc/arm-none-eabi/6.3.1/../../../../arm-none-eabi/lib/thumb/v7e-m/fpv4-sp/hard\libc_nano.a(lib_a-errno.o)
 .data          0x00000000        0x0 c:/dev/gcc-arm-none-eabi/bin/../lib/gcc/arm-none-eabi/6.3.1/../../../../arm-none-eabi/lib/thumb/v7e-m/fpv4-sp/hard\libc_nano.a(lib_a-errno.o)
 .bss           0x00000000        0x0 c:/dev/gcc-arm-none-eabi/bin/../lib/gcc/arm-none-eabi/6.3.1/../../../../arm-none-eabi/lib/thumb/v7e-m/fpv4-sp/hard\libc_nano.a(lib_a-errno.o)
 .text          0x00000000        0x0 c:/dev/gcc-arm-none-eabi/bin/../lib/gcc/arm-none-eabi/6.3.1/../../../../arm-none-eabi/lib/thumb/v7e-m/fpv4-sp/hard\libc_nano.a(lib_a-snprintf.o)
 .data          0x00000000        0x0 c:/dev/gcc-arm-none-eabi/bin/../lib/gcc/arm-none-eabi/6.3.1/../../../../arm-none-eabi/lib/thumb/v7e-m/fpv4-sp/hard\libc_nano.a(lib_a-snprintf.o)
 .bss           0x00000000        0x0 c:/dev/gcc-arm-none-eabi/bin/../lib/gcc/arm-none-eabi/6.3.1/../../../../arm-none-eabi/lib/thumb/v7e-m/fpv4-sp/hard\libc_nano.a(lib_a-snprintf.o)
 .text._snprintf_r
                0x00000000       0x5e c:/dev/gcc-arm-none-eabi/bin/../lib/gcc/arm-none-eabi/6.3.1/../../../../arm-none-eabi/lib/thumb/v7e-m/fpv4-sp/hard\libc_nano.a(lib_a-snprintf.o)
 .text          0x00000000        0x0 c:/dev/gcc-arm-none-eabi/bin/../lib/gcc/arm-none-eabi/6.3.1/../../../../arm-none-eabi/lib/thumb/v7e-m/fpv4-sp/hard\libc_nano.a(lib_a-sprintf.o)
 .data          0x00000000        0x0 c:/dev/gcc-arm-none-eabi/bin/../lib/gcc/arm-none-eabi/6.3.1/../../../../arm-none-eabi/lib/thumb/v7e-m/fpv4-sp/hard\libc_nano.a(lib_a-sprintf.o)
 .bss           0x00000000        0x0 c:/dev/gcc-arm-none-eabi/bin/../lib/gcc/arm-none-eabi/6.3.1/../../../../arm-none-eabi/lib/thumb/v7e-m/fpv4-sp/hard\libc_nano.a(lib_a-sprintf.o)
 .text._sprintf_r
                0x00000000       0x40 c:/dev/gcc-arm-none-eabi/bin/../lib/gcc/arm-none-eabi/6.3.1/../../../../arm-none-eabi/lib/thumb/v7e-m/fpv4-sp/hard\libc_nano.a(lib_a-sprintf.o)
 .text          0x00000000        0x0 c:/dev/gcc-arm-none-eabi/bin/../lib/gcc/arm-none-eabi/6.3.1/../../../../arm-none-eabi/lib/thumb/v7e-m/fpv4-sp/hard\libc_nano.a(lib_a-strcat.o)
 .data          0x00000000        0x0 c:/dev/gcc-arm-none-eabi/bin/../lib/gcc/arm-none-eabi/6.3.1/../../../../arm-none-eabi/lib/thumb/v7e-m/fpv4-sp/hard\libc_nano.a(lib_a-strcat.o)
 .bss           0x00000000        0x0 c:/dev/gcc-arm-none-eabi/bin/../lib/gcc/arm-none-eabi/6.3.1/../../../../arm-none-eabi/lib/thumb/v7e-m/fpv4-sp/hard\libc_nano.a(lib_a-strcat.o)
 .text          0x00000000        0x0 c:/dev/gcc-arm-none-eabi/bin/../lib/gcc/arm-none-eabi/6.3.1/../../../../arm-none-eabi/lib/thumb/v7e-m/fpv4-sp/hard\libc_nano.a(lib_a-strchr.o)
 .data          0x00000000        0x0 c:/dev/gcc-arm-none-eabi/bin/../lib/gcc/arm-none-eabi/6.3.1/../../../../arm-none-eabi/lib/thumb/v7e-m/fpv4-sp/hard\libc_nano.a(lib_a-strchr.o)
 .bss           0x00000000        0x0 c:/dev/gcc-arm-none-eabi/bin/../lib/gcc/arm-none-eabi/6.3.1/../../../../arm-none-eabi/lib/thumb/v7e-m/fpv4-sp/hard\libc_nano.a(lib_a-strchr.o)
 .text          0x00000000        0x0 c:/dev/gcc-arm-none-eabi/bin/../lib/gcc/arm-none-eabi/6.3.1/../../../../arm-none-eabi/lib/thumb/v7e-m/fpv4-sp/hard\libc_nano.a(lib_a-strcpy.o)
 .data          0x00000000        0x0 c:/dev/gcc-arm-none-eabi/bin/../lib/gcc/arm-none-eabi/6.3.1/../../../../arm-none-eabi/lib/thumb/v7e-m/fpv4-sp/hard\libc_nano.a(lib_a-strcpy.o)
 .bss           0x00000000        0x0 c:/dev/gcc-arm-none-eabi/bin/../lib/gcc/arm-none-eabi/6.3.1/../../../../arm-none-eabi/lib/thumb/v7e-m/fpv4-sp/hard\libc_nano.a(lib_a-strcpy.o)
 .text          0x00000000        0x0 c:/dev/gcc-arm-none-eabi/bin/../lib/gcc/arm-none-eabi/6.3.1/../../../../arm-none-eabi/lib/thumb/v7e-m/fpv4-sp/hard\libc_nano.a(lib_a-strncasecmp.o)
 .data          0x00000000        0x0 c:/dev/gcc-arm-none-eabi/bin/../lib/gcc/arm-none-eabi/6.3.1/../../../../arm-none-eabi/lib/thumb/v7e-m/fpv4-sp/hard\libc_nano.a(lib_a-strncasecmp.o)
 .bss           0x00000000        0x0 c:/dev/gcc-arm-none-eabi/bin/../lib/gcc/arm-none-eabi/6.3.1/../../../../arm-none-eabi/lib/thumb/v7e-m/fpv4-sp/hard\libc_nano.a(lib_a-strncasecmp.o)
 .text          0x00000000        0x0 c:/dev/gcc-arm-none-eabi/bin/../lib/gcc/arm-none-eabi/6.3.1/../../../../arm-none-eabi/lib/thumb/v7e-m/fpv4-sp/hard\libc_nano.a(lib_a-strncpy.o)
 .data          0x00000000        0x0 c:/dev/gcc-arm-none-eabi/bin/../lib/gcc/arm-none-eabi/6.3.1/../../../../arm-none-eabi/lib/thumb/v7e-m/fpv4-sp/hard\libc_nano.a(lib_a-strncpy.o)
 .bss           0x00000000        0x0 c:/dev/gcc-arm-none-eabi/bin/../lib/gcc/arm-none-eabi/6.3.1/../../../../arm-none-eabi/lib/thumb/v7e-m/fpv4-sp/hard\libc_nano.a(lib_a-strncpy.o)
 .text          0x00000000        0x0 c:/dev/gcc-arm-none-eabi/bin/../lib/gcc/arm-none-eabi/6.3.1/../../../../arm-none-eabi/lib/thumb/v7e-m/fpv4-sp/hard\libc_nano.a(lib_a-nano-svfprintf.o)
 .data          0x00000000        0x0 c:/dev/gcc-arm-none-eabi/bin/../lib/gcc/arm-none-eabi/6.3.1/../../../../arm-none-eabi/lib/thumb/v7e-m/fpv4-sp/hard\libc_nano.a(lib_a-nano-svfprintf.o)
 .bss           0x00000000        0x0 c:/dev/gcc-arm-none-eabi/bin/../lib/gcc/arm-none-eabi/6.3.1/../../../../arm-none-eabi/lib/thumb/v7e-m/fpv4-sp/hard\libc_nano.a(lib_a-nano-svfprintf.o)
 .text.__ssprint_r
                0x00000000       0xf4 c:/dev/gcc-arm-none-eabi/bin/../lib/gcc/arm-none-eabi/6.3.1/../../../../arm-none-eabi/lib/thumb/v7e-m/fpv4-sp/hard\libc_nano.a(lib_a-nano-svfprintf.o)
 .text          0x00000000        0x0 c:/dev/gcc-arm-none-eabi/bin/../lib/gcc/arm-none-eabi/6.3.1/../../../../arm-none-eabi/lib/thumb/v7e-m/fpv4-sp/hard\libc_nano.a(lib_a-nano-vfprintf_i.o)
 .data          0x00000000        0x0 c:/dev/gcc-arm-none-eabi/bin/../lib/gcc/arm-none-eabi/6.3.1/../../../../arm-none-eabi/lib/thumb/v7e-m/fpv4-sp/hard\libc_nano.a(lib_a-nano-vfprintf_i.o)
 .bss           0x00000000        0x0 c:/dev/gcc-arm-none-eabi/bin/../lib/gcc/arm-none-eabi/6.3.1/../../../../arm-none-eabi/lib/thumb/v7e-m/fpv4-sp/hard\libc_nano.a(lib_a-nano-vfprintf_i.o)
 .data          0x00000000        0x0 c:/dev/gcc-arm-none-eabi/bin/../lib/gcc/arm-none-eabi/6.3.1/../../../../arm-none-eabi/lib/thumb/v7e-m/fpv4-sp/hard\libc_nano.a(lib_a-memchr.o)
 .bss           0x00000000        0x0 c:/dev/gcc-arm-none-eabi/bin/../lib/gcc/arm-none-eabi/6.3.1/../../../../arm-none-eabi/lib/thumb/v7e-m/fpv4-sp/hard\libc_nano.a(lib_a-memchr.o)
 .text          0x00000000        0x0 c:/dev/gcc-arm-none-eabi/bin/../lib/gcc/arm-none-eabi/6.3.1/../../../../arm-none-eabi/lib/thumb/v7e-m/fpv4-sp/hard\libc_nano.a(lib_a-memmove.o)
 .data          0x00000000        0x0 c:/dev/gcc-arm-none-eabi/bin/../lib/gcc/arm-none-eabi/6.3.1/../../../../arm-none-eabi/lib/thumb/v7e-m/fpv4-sp/hard\libc_nano.a(lib_a-memmove.o)
 .bss           0x00000000        0x0 c:/dev/gcc-arm-none-eabi/bin/../lib/gcc/arm-none-eabi/6.3.1/../../../../arm-none-eabi/lib/thumb/v7e-m/fpv4-sp/hard\libc_nano.a(lib_a-memmove.o)
 .text          0x00000000        0x0 c:/dev/gcc-arm-none-eabi/bin/../lib/gcc/arm-none-eabi/6.3.1/../../../../arm-none-eabi/lib/thumb/v7e-m/fpv4-sp/hard\libc_nano.a(lib_a-nano-reallocr.o)
 .data          0x00000000        0x0 c:/dev/gcc-arm-none-eabi/bin/../lib/gcc/arm-none-eabi/6.3.1/../../../../arm-none-eabi/lib/thumb/v7e-m/fpv4-sp/hard\libc_nano.a(lib_a-nano-reallocr.o)
 .bss           0x00000000        0x0 c:/dev/gcc-arm-none-eabi/bin/../lib/gcc/arm-none-eabi/6.3.1/../../../../arm-none-eabi/lib/thumb/v7e-m/fpv4-sp/hard\libc_nano.a(lib_a-nano-reallocr.o)
 .text          0x00000000        0x0 c:/dev/gcc-arm-none-eabi/bin/../lib/gcc/arm-none-eabi/6.3.1/../../../../arm-none-eabi/lib/thumb/v7e-m/fpv4-sp/hard\libc_nano.a(lib_a-nano-msizer.o)
 .data          0x00000000        0x0 c:/dev/gcc-arm-none-eabi/bin/../lib/gcc/arm-none-eabi/6.3.1/../../../../arm-none-eabi/lib/thumb/v7e-m/fpv4-sp/hard\libc_nano.a(lib_a-nano-msizer.o)
 .bss           0x00000000        0x0 c:/dev/gcc-arm-none-eabi/bin/../lib/gcc/arm-none-eabi/6.3.1/../../../../arm-none-eabi/lib/thumb/v7e-m/fpv4-sp/hard\libc_nano.a(lib_a-nano-msizer.o)

Memory Configuration

Name             Origin             Length             Attributes
FLASH            0x08020000         0x000c0000         xr
RAM              0x20000000         0x00020000         xrw
MEMORY_B1        0x60000000         0x00000000         xr
*default*        0x00000000         0xffffffff

Linker script and memory map

LOAD output\REVOLT\general_functions.o
LOAD C:\Users\PRESTO~1\AppData\Local\Temp\cc3x6Wri.ltrans0.ltrans.o
LOAD C:\Users\PRESTO~1\AppData\Local\Temp\cc3x6Wri.ltrans1.ltrans.o
LOAD C:\Users\PRESTO~1\AppData\Local\Temp\cc3x6Wri.ltrans2.ltrans.o
LOAD C:\Users\PRESTO~1\AppData\Local\Temp\cc3x6Wri.ltrans3.ltrans.o
LOAD C:\Users\PRESTO~1\AppData\Local\Temp\cc3x6Wri.ltrans4.ltrans.o
LOAD C:\Users\PRESTO~1\AppData\Local\Temp\cc3x6Wri.ltrans5.ltrans.o
LOAD C:\Users\PRESTO~1\AppData\Local\Temp\cc3x6Wri.ltrans6.ltrans.o
LOAD C:\Users\PRESTO~1\AppData\Local\Temp\cc3x6Wri.ltrans7.ltrans.o
LOAD C:\Users\PRESTO~1\AppData\Local\Temp\cc3x6Wri.ltrans8.ltrans.o
LOAD C:\Users\PRESTO~1\AppData\Local\Temp\cc3x6Wri.ltrans9.ltrans.o
LOAD C:\Users\PRESTO~1\AppData\Local\Temp\cc3x6Wri.ltrans10.ltrans.o
LOAD C:\Users\PRESTO~1\AppData\Local\Temp\cc3x6Wri.ltrans11.ltrans.o
LOAD C:\Users\PRESTO~1\AppData\Local\Temp\cc3x6Wri.ltrans12.ltrans.o
LOAD C:\Users\PRESTO~1\AppData\Local\Temp\cc3x6Wri.ltrans13.ltrans.o
LOAD C:\Users\PRESTO~1\AppData\Local\Temp\cc3x6Wri.ltrans14.ltrans.o
LOAD C:\Users\PRESTO~1\AppData\Local\Temp\cc3x6Wri.ltrans15.ltrans.o
LOAD C:\Users\PRESTO~1\AppData\Local\Temp\cc3x6Wri.ltrans16.ltrans.o
LOAD C:\Users\PRESTO~1\AppData\Local\Temp\cc3x6Wri.ltrans17.ltrans.o
LOAD C:\Users\PRESTO~1\AppData\Local\Temp\cc3x6Wri.ltrans18.ltrans.o
LOAD C:\Users\PRESTO~1\AppData\Local\Temp\cc3x6Wri.ltrans19.ltrans.o
LOAD C:\Users\PRESTO~1\AppData\Local\Temp\cc3x6Wri.ltrans20.ltrans.o
LOAD C:\Users\PRESTO~1\AppData\Local\Temp\cc3x6Wri.ltrans21.ltrans.o
LOAD C:\Users\PRESTO~1\AppData\Local\Temp\cc3x6Wri.ltrans22.ltrans.o
LOAD C:\Users\PRESTO~1\AppData\Local\Temp\cc3x6Wri.ltrans23.ltrans.o
LOAD C:\Users\PRESTO~1\AppData\Local\Temp\cc3x6Wri.ltrans24.ltrans.o
LOAD C:\Users\PRESTO~1\AppData\Local\Temp\cc3x6Wri.ltrans25.ltrans.o
LOAD C:\Users\PRESTO~1\AppData\Local\Temp\cc3x6Wri.ltrans26.ltrans.o
LOAD C:\Users\PRESTO~1\AppData\Local\Temp\cc3x6Wri.ltrans27.ltrans.o
LOAD C:\Users\PRESTO~1\AppData\Local\Temp\cc3x6Wri.ltrans28.ltrans.o
LOAD C:\Users\PRESTO~1\AppData\Local\Temp\cc3x6Wri.ltrans29.ltrans.o
LOAD C:\Users\PRESTO~1\AppData\Local\Temp\cc3x6Wri.ltrans30.ltrans.o
LOAD C:\Users\PRESTO~1\AppData\Local\Temp\cc3x6Wri.ltrans31.ltrans.o
LOAD output\REVOLT\boarddef.o
LOAD output\REVOLT\flash.o
LOAD output\REVOLT\stm32f4.o
LOAD output\REVOLT\stm32f4xx_hal_msp.o
LOAD output\REVOLT\stm32f4xx_hal_tim_msp.o
LOAD output\REVOLT\stm32f4xx_it.o
LOAD output\REVOLT\stm32f4xx_spi_msp.o
LOAD output\REVOLT\system_stm32f4xx.o
LOAD output\REVOLT\config.o
LOAD output\REVOLT\debug.o
LOAD output\REVOLT\exti.o
LOAD output\REVOLT\filter.o
LOAD output\REVOLT\flight.o
LOAD output\REVOLT\flight_logger.o
LOAD output\REVOLT\imu.o
LOAD output\REVOLT\learning.o
LOAD output\REVOLT\main.o
LOAD output\REVOLT\mixer.o
LOAD output\REVOLT\modes.o
LOAD output\REVOLT\newSoftSerial.o
LOAD output\REVOLT\pid.o
LOAD output\REVOLT\quopa.o
LOAD output\REVOLT\rfbl_functions.o
LOAD output\REVOLT\rf_math.o
LOAD output\REVOLT\scheduler.o
LOAD output\REVOLT\watchdog.o
LOAD output\REVOLT\wizard.o
LOAD output\REVOLT\stm32f4xx_hal.o
LOAD output\REVOLT\stm32f4xx_hal_adc.o
LOAD output\REVOLT\stm32f4xx_hal_adc_ex.o
LOAD output\REVOLT\stm32f4xx_hal_can.o
LOAD output\REVOLT\stm32f4xx_hal_cec.o
LOAD output\REVOLT\stm32f4xx_hal_cortex.o
LOAD output\REVOLT\stm32f4xx_hal_crc.o
LOAD output\REVOLT\stm32f4xx_hal_cryp.o
LOAD output\REVOLT\stm32f4xx_hal_cryp_ex.o
LOAD output\REVOLT\stm32f4xx_hal_dac.o
LOAD output\REVOLT\stm32f4xx_hal_dac_ex.o
LOAD output\REVOLT\stm32f4xx_hal_dcmi.o
LOAD output\REVOLT\stm32f4xx_hal_dcmi_ex.o
LOAD output\REVOLT\stm32f4xx_hal_dfsdm.o
LOAD output\REVOLT\stm32f4xx_hal_dma.o
LOAD output\REVOLT\stm32f4xx_hal_dma2d.o
LOAD output\REVOLT\stm32f4xx_hal_dma_ex.o
LOAD output\REVOLT\stm32f4xx_hal_dsi.o
LOAD output\REVOLT\stm32f4xx_hal_eth.o
LOAD output\REVOLT\stm32f4xx_hal_flash.o
LOAD output\REVOLT\stm32f4xx_hal_flash_ex.o
LOAD output\REVOLT\stm32f4xx_hal_flash_ramfunc.o
LOAD output\REVOLT\stm32f4xx_hal_fmpi2c.o
LOAD output\REVOLT\stm32f4xx_hal_fmpi2c_ex.o
LOAD output\REVOLT\stm32f4xx_hal_gpio.o
LOAD output\REVOLT\stm32f4xx_hal_hash.o
LOAD output\REVOLT\stm32f4xx_hal_hash_ex.o
LOAD output\REVOLT\stm32f4xx_hal_hcd.o
LOAD output\REVOLT\stm32f4xx_hal_i2c.o
LOAD output\REVOLT\stm32f4xx_hal_i2c_ex.o
LOAD output\REVOLT\stm32f4xx_hal_i2s.o
LOAD output\REVOLT\stm32f4xx_hal_i2s_ex.o
LOAD output\REVOLT\stm32f4xx_hal_irda.o
LOAD output\REVOLT\stm32f4xx_hal_iwdg.o
LOAD output\REVOLT\stm32f4xx_hal_lptim.o
LOAD output\REVOLT\stm32f4xx_hal_ltdc.o
LOAD output\REVOLT\stm32f4xx_hal_ltdc_ex.o
LOAD output\REVOLT\stm32f4xx_hal_nand.o
LOAD output\REVOLT\stm32f4xx_hal_nor.o
LOAD output\REVOLT\stm32f4xx_hal_pccard.o
LOAD output\REVOLT\stm32f4xx_hal_pcd.o
LOAD output\REVOLT\stm32f4xx_hal_pcd_ex.o
LOAD output\REVOLT\stm32f4xx_hal_pwr.o
LOAD output\REVOLT\stm32f4xx_hal_pwr_ex.o
LOAD output\REVOLT\stm32f4xx_hal_qspi.o
LOAD output\REVOLT\stm32f4xx_hal_rcc.o
LOAD output\REVOLT\stm32f4xx_hal_rcc_ex.o
LOAD output\REVOLT\stm32f4xx_hal_rng.o
LOAD output\REVOLT\stm32f4xx_hal_rtc.o
LOAD output\REVOLT\stm32f4xx_hal_rtc_ex.o
LOAD output\REVOLT\stm32f4xx_hal_sai.o
LOAD output\REVOLT\stm32f4xx_hal_sai_ex.o
LOAD output\REVOLT\stm32f4xx_hal_sd.o
LOAD output\REVOLT\stm32f4xx_hal_sdram.o
LOAD output\REVOLT\stm32f4xx_hal_smartcard.o
LOAD output\REVOLT\stm32f4xx_hal_spdifrx.o
LOAD output\REVOLT\stm32f4xx_hal_spi.o
LOAD output\REVOLT\stm32f4xx_hal_sram.o
LOAD output\REVOLT\stm32f4xx_hal_tim.o
LOAD output\REVOLT\stm32f4xx_hal_tim_ex.o
LOAD output\REVOLT\stm32f4xx_hal_uart.o
LOAD output\REVOLT\stm32f4xx_hal_usart.o
LOAD output\REVOLT\stm32f4xx_hal_wwdg.o
LOAD output\REVOLT\stm32f4xx_ll_fmc.o
LOAD output\REVOLT\stm32f4xx_ll_fsmc.o
LOAD output\REVOLT\stm32f4xx_ll_sdmmc.o
LOAD output\REVOLT\stm32f4xx_ll_usb.o
LOAD output\REVOLT\crossfire.o
LOAD output\REVOLT\dshotTwoWay.o
LOAD output\REVOLT\mspTelemetry.o
LOAD output\REVOLT\rfosdTelemetry.o
LOAD output\REVOLT\rfVtx.o
LOAD output\REVOLT\smartAudio.o
LOAD output\REVOLT\spektrumTelemetry.o
LOAD output\REVOLT\sPortTelemetry.o
LOAD output\REVOLT\telemetry.o
LOAD output\REVOLT\trampTelemetry.o
LOAD output\REVOLT\gyro.o
LOAD output\REVOLT\usbd_core.o
LOAD output\REVOLT\usbd_ctlreq.o
LOAD output\REVOLT\usbd_ioreq.o
LOAD output\REVOLT\usbd_hid.o
LOAD output\REVOLT\usbd_desc.o
LOAD output\REVOLT\usb_device.o
LOAD output\REVOLT\usbd_conf.o
LOAD output\REVOLT\startup_stm32f405xx.o
LOAD output\REVOLT\adc.o
LOAD output\REVOLT\transponder.o
LOAD output\REVOLT\softSerial.o
LOAD output\REVOLT\maxOsd.o
LOAD output\REVOLT\esc_1wire.o
LOAD output\REVOLT\leds.o
LOAD output\REVOLT\softPwm.o
LOAD output\REVOLT\dmaShenanigans.o
LOAD output\REVOLT\actuator_output.o
LOAD output\REVOLT\buzzer.o
LOAD output\REVOLT\flash_chip.o
LOAD output\REVOLT\invensense_mpu_icm_device.o
LOAD output\REVOLT\invensense_bus_spi.o
LOAD output\REVOLT\rx.o
LOAD output\REVOLT\serial.o
LOAD output\REVOLT\spm_laptimer.o
LOAD output\REVOLT\arm_mat_add_f32.o
LOAD output\REVOLT\arm_mat_init_f32.o
LOAD output\REVOLT\arm_mat_mult_f32.o
LOAD output\REVOLT\arm_mat_sub_f32.o
LOAD output\REVOLT\arm_mat_trans_f32.o
LOAD output\REVOLT\arm_mat_inverse_f32.o
LOAD output\REVOLT\arm_common_tables.o
LOAD output\REVOLT\arm_cos_f32.o
LOAD output\REVOLT\arm_sin_f32.o
LOAD output\REVOLT\arm_fir_init_f32.o
LOAD output\REVOLT\arm_fir_f32.o
LOAD c:/dev/gcc-arm-none-eabi/bin/../lib/gcc/arm-none-eabi/6.3.1/../../../../arm-none-eabi/lib/thumb/v7e-m/fpv4-sp/hard\libm.a
LOAD c:/dev/gcc-arm-none-eabi/bin/../lib/gcc/arm-none-eabi/6.3.1/../../../../arm-none-eabi/lib/thumb/v7e-m/fpv4-sp/hard\libc_nano.a
LOAD c:/dev/gcc-arm-none-eabi/bin/../lib/gcc/arm-none-eabi/6.3.1/../../../../arm-none-eabi/lib/thumb/v7e-m/fpv4-sp/hard\libnosys.a
START GROUP
LOAD c:/dev/gcc-arm-none-eabi/bin/../lib/gcc/arm-none-eabi/6.3.1/thumb/v7e-m/fpv4-sp/hard\libgcc.a
LOAD c:/dev/gcc-arm-none-eabi/bin/../lib/gcc/arm-none-eabi/6.3.1/../../../../arm-none-eabi/lib/thumb/v7e-m/fpv4-sp/hard\libc_nano.a
END GROUP
START GROUP
LOAD c:/dev/gcc-arm-none-eabi/bin/../lib/gcc/arm-none-eabi/6.3.1/thumb/v7e-m/fpv4-sp/hard\libgcc.a
LOAD c:/dev/gcc-arm-none-eabi/bin/../lib/gcc/arm-none-eabi/6.3.1/../../../../arm-none-eabi/lib/thumb/v7e-m/fpv4-sp/hard\libc_nano.a
END GROUP
                0x00000000                _Min_Heap_Size = 0x0
                0x00000400                _Min_Stack_Size = 0x400
                0x20020000                _estack = (ORIGIN (RAM) + LENGTH (RAM))

.text           0x08020000    0x4266c
                [!provide]                PROVIDE (isr_vector_table_base, .)
 *(.isr_vector)
 .isr_vector    0x08020000      0x188 output\REVOLT\startup_stm32f405xx.o
                0x08020000                g_pfnVectors
                0x08020188                . = ALIGN (0x4)
 *(.text)
 .text          0x08020188     0x3294 C:\Users\PRESTO~1\AppData\Local\Temp\cc3x6Wri.ltrans0.ltrans.o
                0x08020188                ArmBoard
                0x08020258                EXTI_Init
                0x08020548                newftoa.part.1
                0x0802067c                SendRfCustomReplyBuffer
                0x08020778                RfCustomReplyBuffer
                0x080207b8                SaveAndSend
                0x0802085c                StripSpaces
                0x0802089c                GenerateConfig
                0x0802098c                DoIdleStop.lto_priv.208
                0x08020a14                SystemInit
                0x08020a64                SPI3_IRQHandler
                0x08020b98                SPI2_IRQHandler
                0x08020cc8                SPI1_IRQHandler
                0x08020ddc                ADC_IRQHandler
                0x08020f28                EXTI15_10_IRQHandler
                0x08020f3c                EXTI9_5_IRQHandler
                0x08020f50                EXTI4_IRQHandler
                0x08020f64                EXTI3_IRQHandler
                0x08020f78                EXTI2_IRQHandler
                0x08020f8c                EXTI1_IRQHandler
                0x08020fa0                EXTI0_IRQHandler
                0x08020fb4                DMA2_Stream7_IRQHandler
                0x08020fe4                DMA2_Stream6_IRQHandler
                0x08021014                DMA2_Stream5_IRQHandler
                0x08021044                DMA2_Stream4_IRQHandler
                0x08021074                DMA2_Stream3_IRQHandler
                0x080210a4                DMA2_Stream2_IRQHandler
                0x080210d4                DMA2_Stream1_IRQHandler
                0x08021104                DMA2_Stream0_IRQHandler
                0x08021134                DMA1_Stream7_IRQHandler
                0x08021164                DMA1_Stream6_IRQHandler
                0x08021194                DMA1_Stream5_IRQHandler
                0x080211c4                DMA1_Stream4_IRQHandler
                0x080211f4                DMA1_Stream3_IRQHandler
                0x08021224                DMA1_Stream2_IRQHandler
                0x08021254                DMA1_Stream1_IRQHandler
                0x08021284                DMA1_Stream0_IRQHandler
                0x080212b4                TIM1_BRK_TIM9_IRQHandler
                0x080212c8                TIM7_IRQHandler
                0x080212dc                TIM6_DAC_IRQHandler
                0x080212f0                TIM5_IRQHandler
                0x08021304                TIM1_CC_IRQHandler
                0x08021318                TIM1_UP_TIM10_IRQHandler
                0x0802132c                OTG_FS_IRQHandler
                0x080225cc                SysTick_Handler
                0x080225ec                PendSV_Handler
                0x080225f0                DebugMon_Handler
                0x080225f4                SVC_Handler
                0x080225f8                UsageFault_Handler
                0x08022600                BusFault_Handler
                0x08022608                MemManage_Handler
                0x08022610                HardFault_Handler
                0x08022618                NMI_Handler
                0x0802261c                StartSystemClocks.lto_priv.266
                0x08022898                USBInit
                0x080228fc                GetBoardHardwareDefs
                0x08023270                GetExtinFromPin
                0x080232ec                InitializeGpio
                0x08023368                RtcWriteBackupRegister
                0x080233a8                Micros
                0x080233f0                NVIC_SystemReset.lto_priv.213
                0x08023414                SystemReset
 .text          0x0802341c     0x4718 C:\Users\PRESTO~1\AppData\Local\Temp\cc3x6Wri.ltrans1.ltrans.o
                0x0802341c                ProcessCommand.constprop.35
 .text          0x08027b34     0x3de8 C:\Users\PRESTO~1\AppData\Local\Temp\cc3x6Wri.ltrans2.ltrans.o
                0x08028774                InitFlight
                0x0802b80c                DeinitFlight
                0x0802b8c8                DisarmBoard
 .text          0x0802b91c     0x3518 C:\Users\PRESTO~1\AppData\Local\Temp\cc3x6Wri.ltrans4.ltrans.o
                0x0802b91c                InlineFlightCode.constprop.20
 .text          0x0802ee34     0x14d0 C:\Users\PRESTO~1\AppData\Local\Temp\cc3x6Wri.ltrans5.ltrans.o
                0x0802ef0c                SPI_TxISR_16BIT.lto_priv.227
                0x0802ef34                SPI_TxISR_8BIT.lto_priv.228
                0x0802ef5c                SPI_DMAAbortOnError.lto_priv.279
                0x0802ef68                SPI_DMAError.lto_priv.224
                0x0802ef84                SPI_DMAHalfReceiveCplt.lto_priv.220
                0x0802ef88                SPI_DMAHalfTransmitReceiveCplt.lto_priv.222
                0x0802ef8c                SPI_DMATransmitReceiveCplt.lto_priv.223
                0x0802f02c                SPI_DMAReceiveCplt.lto_priv.221
                0x0802f070                HAL_SPI_TransmitReceive.part.2
                0x0802f3a4                HAL_SPI_Transmit.part.1
                0x0802f648                HAL_PCD_EP_SetStall
                0x0802f70c                HAL_GPIO_DeInit
                0x0802f85c                HAL_SPI_DeInit
                0x0802fa80                HAL_SPI_Init
                0x0802ff30                HAL_GPIO_Init
                0x0803015c                HAL_DMA_IRQHandler
 .text          0x08030304     0x20d4 C:\Users\PRESTO~1\AppData\Local\Temp\cc3x6Wri.ltrans6.ltrans.o
                0x08030304                sendSpektrumTelem
                0x08031670                SmartAudioVtxTurnOn.part.3
                0x08031670                SmartAudioVtxTurnPit.part.4
                0x080316f4                SmartAudioGetSettings.part.1
                0x08031968                InitSmartAudio.part.2
                0x08031a88                DeInitSmartAudio
                0x08031d74                HandleRfOsd.part.0
                0x080322fc                InitRfOsd
 .text          0x080323d8     0x1bf8 C:\Users\PRESTO~1\AppData\Local\Temp\cc3x6Wri.ltrans7.ltrans.o
                0x080323d8                ADC_DMAError.lto_priv.270
                0x080323e8                ADC_DMAHalfConvCplt.lto_priv.269
                0x080323ec                ADC_DMAConvCplt.lto_priv.268
                0x08032444                HAL_DMA_Start_IT
                0x080324c8                HAL_DMA_Init
                0x080325fc                HAL_NVIC_SetPriority
                0x08032668                HAL_Delay
                0x08032684                OneWire
 .text          0x08033fd0     0x26e8 C:\Users\PRESTO~1\AppData\Local\Temp\cc3x6Wri.ltrans8.ltrans.o
                0x08033fd0                UART_DMAError.lto_priv.207
                0x08034034                UART_DMATxHalfCplt.lto_priv.206
                0x08034038                UART_DMARxHalfCplt.lto_priv.215
                0x0803403c                UART_DMATransmitCplt.lto_priv.205
                0x08034080                UART_DMAReceiveCplt.lto_priv.214
                0x08035bb0                USB_FlushRxFifo
                0x08035bd0                USB_FlushTxFifo
                0x08035bf4                USB_DisableGlobalInt
                0x08035c04                USB_EnableGlobalInt
                0x08035c14                UART_SetConfig.lto_priv.216
                0x0803604c                HAL_UART_Transmit_DMA
                0x080360c4                HAL_TIMEx_PWMN_Start_DMA
                0x080361c4                HAL_TIM_PWM_Start_DMA.part.14
                0x080362b0                HAL_TIM_PWM_ConfigChannel.part.11
                0x080364bc                TIM_Base_SetConfig
                0x080365a0                HAL_TIM_PWM_Start_DMA
 .text          0x080366b8      0xd7c C:\Users\PRESTO~1\AppData\Local\Temp\cc3x6Wri.ltrans9.ltrans.o
                0x080366b8                NewSoftSerialExtiCallback
                0x08036738                NewSoftSerialTimerCallback
                0x080367e8                HandleDshotBeep.part.1
                0x08036de0                NewProcessSoftSerialBits
                0x08036fa0                SendSoftSerialByteBlocking
                0x0803718c                PrintModes
                0x08037288                CheckRxToModes
                0x08037380                PrintTpaCurves
 .text          0x08037434      0xe5c C:\Users\PRESTO~1\AppData\Local\Temp\cc3x6Wri.ltrans10.ltrans.o
                0x08037434                USBD_HID_Setup.lto_priv.253
                0x08037574                USBD_HID_DeInit.lto_priv.252
                0x08037608                USBD_HID_Init.lto_priv.251
                0x08037834                USBD_CtlSendStatus
                0x080378c4                InlineApplyGyroAccRotationAndScale
                0x08037c54                TrampSendCommand.lto_priv.210
                0x0803811c                TrampGetSettings.part.2
 .text          0x08038290      0xf38 C:\Users\PRESTO~1\AppData\Local\Temp\cc3x6Wri.ltrans11.ltrans.o
                0x08038290                DoLed.constprop.140
                0x080382c4                USBD_LL_StallEP.constprop.120
                0x08038350                USBD_LL_StallEP.constprop.119
                0x080383e8                InitGeneralInterruptTimer.constprop.100
                0x08038668                InitBlockingSoftSerialPort.constprop.99
                0x08038890                InitSoftSerialTimer.constprop.96
                0x08038ac4                SendSoftSerialBlocking.constprop.94
                0x08038bcc                ReceiveSoftSerialBlocking.constprop.92
                0x08038f88                HAL_SPI_Receive.part.3.constprop.89
                0x08039088                HAL_ADC_ConfigChannel.constprop.81
 .text          0x080391c8      0xe6c C:\Users\PRESTO~1\AppData\Local\Temp\cc3x6Wri.ltrans12.ltrans.o
                0x08039274                USBD_FS_InterfaceStrDescriptor
                0x08039300                USBD_FS_ConfigStrDescriptor
                0x0803938c                USBD_FS_SerialStrDescriptor
                0x0803949c                USBD_FS_ManufacturerStrDescriptor
                0x080394e8                USBD_FS_ProductStrDescriptor
                0x08039574                USBD_FS_LangIDStrDescriptor
                0x08039580                USBD_FS_DeviceDescriptor
                0x0803958c                USBD_HID_GetDeviceQualifierDesc.lto_priv.257
                0x08039598                USBD_HID_DataIn.lto_priv.254
                0x080395a4                USBD_HID_GetCfgDesc.lto_priv.256
                0x080396d8                USBD_HID_DataOut.lto_priv.255
                0x08039760                CheckForVideoSignal.part.3
                0x08039b54                DrawScreen.part.0.lto_priv.211
                0x08039cb0                PutSoftSerialActuatorInSendState.lto_priv.202
                0x08039eac                SoftSerialSendReceiveBlocking
 .text          0x0803a034      0xcb8 C:\Users\PRESTO~1\AppData\Local\Temp\cc3x6Wri.ltrans13.ltrans.o
                0x0803a034                MaxSendReceiveCommand.isra.1.constprop.71
                0x0803a0e8                SaveConfig.constprop.68
                0x0803a38c                ProcessSoftSerialLineIdle.constprop.59
                0x0803a608                SoftSerialSendReceiveBlocking.constprop.58
                0x0803aaa8                SoftSerialSendReceiveBlocking.constprop.57
                0x0803abd8                SetMode.constprop.54
 .text          0x0803acec      0xf9c C:\Users\PRESTO~1\AppData\Local\Temp\cc3x6Wri.ltrans14.ltrans.o
                0x0803acec                SportSoftSerialDmaCallback
                0x0803ad88                SportSoftSerialExtiCallback
                0x0803af9c                TrampGetSettings
                0x0803b0ac                InitTrampTelemetry
                0x0803b190                VtxPower
                0x0803b474                VtxBandChannel
                0x0803b730                VtxTurnOn
                0x0803b93c                PutSportIntoSendState.isra.3.lto_priv.259
                0x0803ba6c                InitAllSport
 .text          0x0803bc88     0x2278 C:\Users\PRESTO~1\AppData\Local\Temp\cc3x6Wri.ltrans15.ltrans.o
                0x0803bc88                USB_WritePacket
                0x0803bcb4                InitMsp
                0x0803bd7c                SendMspBoxIds
                0x0803c194                SendMspStatus
                0x0803c60c                SendMspAnalog
                0x0803ca94                SendMspAttitude
                0x0803cf20                CommandToDshot
                0x0803cf40                SendCrsfTelem
                0x0803db78                USB_CoreReset.lto_priv.196
                0x0803dbac                USB_EP0StartXfer
                0x0803dcb4                USB_EPStartXfer
                0x0803de70                USB_ActivateEndpoint
 .text          0x0803df00     0x13e0 C:\Users\PRESTO~1\AppData\Local\Temp\cc3x6Wri.ltrans16.ltrans.o
                0x0803df00                InitOutputForDma.isra.1.lto_priv.229
                0x0803e42c                DeInitAllowedSoftOutputs
                0x0803e540                IsDshotEnabled
                0x0803e560                OutputDDShotDma
                0x0803e66c                DoLed.part.0
                0x0803e694                HandleCoolLeds.lto_priv.265
                0x0803e730                LedModeKnightRider.lto_priv.264
                0x0803e978                LedModeMultiParty.lto_priv.263
                0x0803eaac                LedModeMultiDisco.lto_priv.262
                0x0803eb2c                LedModeParty.lto_priv.261
                0x0803ebfc                LedModeDisco.lto_priv.260
                0x0803ec7c                ProcessEEprom.isra.0.lto_priv.230
                0x0803f16c                OneWireDeinit
 .text          0x0803f2e0      0xbec C:\Users\PRESTO~1\AppData\Local\Temp\cc3x6Wri.ltrans17.ltrans.o
                0x0803f2e0                GetLatestPersistance.lto_priv.276
                0x0803f504                FindLatestPersistance.lto_priv.277
                0x0803f790                SpiInit.lto_priv.273
                0x0803fad8                M25p16ReadIdSetFlashRecord.lto_priv.278
                0x0803fd94                ComplexBuzz
 .text          0x0803fecc      0x884 C:\Users\PRESTO~1\AppData\Local\Temp\cc3x6Wri.ltrans18.ltrans.o
                0x0803fecc                WriteEnableDataFlash
                0x08040210                SavePersistance
                0x08040574                EraseSingleSector.lto_priv.226
 .text          0x08040750     0x1100 C:\Users\PRESTO~1\AppData\Local\Temp\cc3x6Wri.ltrans19.ltrans.o
                0x08040750                BuildKiModel.part.0.lto_priv.275
                0x08040a0c                UpdateImu
                0x08041534                BlackboxWriteUnsignedVB
 .text          0x08041850     0x108c C:\Users\PRESTO~1\AppData\Local\Temp\cc3x6Wri.ltrans20.ltrans.o
                0x08041850                DisconnectBLHeli.lto_priv.236
                0x0804189c                WriteFlashSiLabsBLHeli.lto_priv.238
                0x08041d00                WriteEEpromSiLabsBLHeli.lto_priv.240
                0x08041d3c                EepromEraseSiLabsBLHeli.lto_priv.242
                0x08041df8                PageEraseSiLabsBLHeli.lto_priv.241
                0x08041fe4                ReadFlashSiLabsBLHeli.lto_priv.237
                0x08042270                ReadEEpromSiLabsBLHeli.lto_priv.239
                0x08042338                OneWireSaveConfig
                0x08042640                HandleMaxOsd.part.6
 .text          0x080428dc     0x117c C:\Users\PRESTO~1\AppData\Local\Temp\cc3x6Wri.ltrans21.ltrans.o
                0x080428f8                DoBuzz.constprop.16
                0x08042928                UsartDeInit
                0x08042bc8                DeInitBoardUsarts
                0x08043060                UsartInit
 .text          0x08043a58     0x17b0 C:\Users\PRESTO~1\AppData\Local\Temp\cc3x6Wri.ltrans22.ltrans.o
                0x08043a58                SendSmartPort
                0x08044640                SmartPortCreatePacket.lto_priv.258
                0x08044730                FillLuaPacket
                0x080448c8                GenerateMenus
 .text          0x08045208      0xc90 C:\Users\PRESTO~1\AppData\Local\Temp\cc3x6Wri.ltrans23.ltrans.o
                0x08045208                GyroRxDmaCallback
                0x080453e4                GyroExtiCallback
                0x08045508                FlashDmaRxCallback
                0x08045578                AccGyroWriteRegister
                0x08045648                SPI_Init.lto_priv.267
                0x08045dec                ResetPersistance
 .text          0x08045e98      0xd90 C:\Users\PRESTO~1\AppData\Local\Temp\cc3x6Wri.ltrans24.ltrans.o
                0x08045e98                IdleActuator
                0x08045fac                ZeroActuators
                0x080460e8                InitActuators
                0x08046888                DeInitActuators
                0x080469b0                InitWs2812.part.2
 .text          0x08046c28     0x1008 C:\Users\PRESTO~1\AppData\Local\Temp\cc3x6Wri.ltrans25.ltrans.o
                0x08046c28                InlineCollectRcCommand
                0x08047130                RxUpdate
                0x080475a8                PpmExtiCallback
                0x080479a8                AccGyroDMAReadWriteData.part.3
                0x08047af0                AccGyroVerifyWriteRegister
 .text          0x08047c30     0x117c C:\Users\PRESTO~1\AppData\Local\Temp\cc3x6Wri.ltrans26.ltrans.o
                0x08047df8                GeneralInterruptTimerCallback
                0x08047f50                InitWatchdog
                0x0804801c                HandleWizRc
                0x08048a94                ErrorHandler
                0x08048d9c                CRC4_12
 .text          0x08048dac      0x944 C:\Users\PRESTO~1\AppData\Local\Temp\cc3x6Wri.ltrans27.ltrans.o
                0x08048dac                HAL_RCC_OscConfig.constprop.155
                0x0804904c                OutputSerialDmaByte.constprop.152
                0x08049204                OutputSerialDmaByte.constprop.150
                0x080493e0                OutputSerialDmaByte.constprop.149
                0x08049604                ThrottleToDshot.constprop.144
                0x080496a8                DoLed.constprop.141
 .text          0x080496f0      0xa04 C:\Users\PRESTO~1\AppData\Local\Temp\cc3x6Wri.ltrans28.ltrans.o
                0x080496f0                HAL_GPIO_Init.constprop.186
                0x08049764                HAL_GPIO_Init.constprop.184
                0x080498f8                HAL_GPIO_Init.constprop.183
                0x0804998c                HAL_PCD_Init.constprop.181
                0x08049f48                InitializeGpio.constprop.173
                0x08049fbc                FLASH_WaitForLastOperation.constprop.167
                0x0804a0a8                HAL_InitTick.constprop.158
 .text          0x0804a0f4      0x88c C:\Users\PRESTO~1\AppData\Local\Temp\cc3x6Wri.ltrans29.ltrans.o
                0x0804a0f4                OutputActuators.constprop.53
 .text          0x0804a980      0x284 C:\Users\PRESTO~1\AppData\Local\Temp\cc3x6Wri.ltrans30.ltrans.o
                0x0804a980                WriteByteToFlash
 .text          0x0804ac04      0x2e8 C:\Users\PRESTO~1\AppData\Local\Temp\cc3x6Wri.ltrans31.ltrans.o
                0x0804ac04                PrintCurve.lto_priv.248
                0x0804ad20                ResetTpaCurves
 .text          0x0804aeec       0x14 c:/dev/gcc-arm-none-eabi/bin/../lib/gcc/arm-none-eabi/6.3.1/../../../../arm-none-eabi/lib/thumb/v7e-m/fpv4-sp/hard\libc_nano.a(lib_a-strcmp.o)
                0x0804aeec                strcmp
 .text          0x0804af00       0x10 c:/dev/gcc-arm-none-eabi/bin/../lib/gcc/arm-none-eabi/6.3.1/../../../../arm-none-eabi/lib/thumb/v7e-m/fpv4-sp/hard\libc_nano.a(lib_a-strlen.o)
                0x0804af00                strlen
 .text          0x0804af10      0x370 c:/dev/gcc-arm-none-eabi/bin/../lib/gcc/arm-none-eabi/6.3.1/thumb/v7e-m/fpv4-sp/hard\libgcc.a(_arm_addsubdf3.o)
                0x0804af10                __aeabi_drsub
                0x0804af18                __aeabi_dsub
                0x0804af18                __subdf3
                0x0804af1c                __aeabi_dadd
                0x0804af1c                __adddf3
                0x0804b194                __floatunsidf
                0x0804b194                __aeabi_ui2d
                0x0804b1b4                __floatsidf
                0x0804b1b4                __aeabi_i2d
                0x0804b1d8                __aeabi_f2d
                0x0804b1d8                __extendsfdf2
                0x0804b214                __floatundidf
                0x0804b214                __aeabi_ul2d
                0x0804b224                __floatdidf
                0x0804b224                __aeabi_l2d
 .text          0x0804b280      0x424 c:/dev/gcc-arm-none-eabi/bin/../lib/gcc/arm-none-eabi/6.3.1/thumb/v7e-m/fpv4-sp/hard\libgcc.a(_arm_muldivdf3.o)
                0x0804b280                __aeabi_dmul
                0x0804b280                __muldf3
                0x0804b4d4                __divdf3
                0x0804b4d4                __aeabi_ddiv
 .text          0x0804b6a4      0x110 c:/dev/gcc-arm-none-eabi/bin/../lib/gcc/arm-none-eabi/6.3.1/thumb/v7e-m/fpv4-sp/hard\libgcc.a(_arm_cmpdf2.o)
                0x0804b6a4                __gtdf2
                0x0804b6a4                __gedf2
                0x0804b6ac                __ltdf2
                0x0804b6ac                __ledf2
                0x0804b6b4                __nedf2
                0x0804b6b4                __eqdf2
                0x0804b6b4                __cmpdf2
                0x0804b730                __aeabi_cdrcmple
                0x0804b740                __aeabi_cdcmpeq
                0x0804b740                __aeabi_cdcmple
                0x0804b750                __aeabi_dcmpeq
                0x0804b764                __aeabi_dcmplt
                0x0804b778                __aeabi_dcmple
                0x0804b78c                __aeabi_dcmpge
                0x0804b7a0                __aeabi_dcmpgt
 .text          0x0804b7b4       0x2c c:/dev/gcc-arm-none-eabi/bin/../lib/gcc/arm-none-eabi/6.3.1/thumb/v7e-m/fpv4-sp/hard\libgcc.a(_arm_unorddf2.o)
                0x0804b7b4                __unorddf2
                0x0804b7b4                __aeabi_dcmpun
 .text          0x0804b7e0       0x50 c:/dev/gcc-arm-none-eabi/bin/../lib/gcc/arm-none-eabi/6.3.1/thumb/v7e-m/fpv4-sp/hard\libgcc.a(_arm_fixdfsi.o)
                0x0804b7e0                __aeabi_d2iz
                0x0804b7e0                __fixdfsi
 .text          0x0804b830       0x40 c:/dev/gcc-arm-none-eabi/bin/../lib/gcc/arm-none-eabi/6.3.1/thumb/v7e-m/fpv4-sp/hard\libgcc.a(_arm_fixunsdfsi.o)
                0x0804b830                __aeabi_d2uiz
                0x0804b830                __fixunsdfsi
 .text          0x0804b870       0xa0 c:/dev/gcc-arm-none-eabi/bin/../lib/gcc/arm-none-eabi/6.3.1/thumb/v7e-m/fpv4-sp/hard\libgcc.a(_arm_truncdfsf2.o)
                0x0804b870                __truncdfsf2
                0x0804b870                __aeabi_d2f
 .text          0x0804b910       0xa0 c:/dev/gcc-arm-none-eabi/bin/../lib/gcc/arm-none-eabi/6.3.1/../../../../arm-none-eabi/lib/thumb/v7e-m/fpv4-sp/hard\libc_nano.a(lib_a-memchr.o)
                0x0804b910                memchr
 *(.text*)
 .text.unlikely
                0x0804b9b0      0x374 C:\Users\PRESTO~1\AppData\Local\Temp\cc3x6Wri.ltrans0.ltrans.o
                0x0804b9b0                RfCustomReply
                0x0804ba5c                DlflStatusDump.lto_priv.209
                0x0804ba90                PrintVtxInfo
                0x0804bb98                OutputVarSet
                0x0804bc80                USBDeInit
                0x0804bcb0                GetExtiCallbackFromPin
 .text.startup  0x0804bd24     0x403c C:\Users\PRESTO~1\AppData\Local\Temp\cc3x6Wri.ltrans3.ltrans.o
                0x0804bd24                main
 .text.unlikely
                0x0804fd60       0x7c C:\Users\PRESTO~1\AppData\Local\Temp\cc3x6Wri.ltrans5.ltrans.o
                0x0804fd60                HAL_PCD_Stop.part.2
 .text.unlikely
                0x0804fddc       0x44 C:\Users\PRESTO~1\AppData\Local\Temp\cc3x6Wri.ltrans7.ltrans.o
                0x0804fddc                HAL_SYSTICK_CLKSourceConfig.part.0
                0x0804fdec                HAL_SYSTICK_Config
 .text.unlikely
                0x0804fe20       0xe8 C:\Users\PRESTO~1\AppData\Local\Temp\cc3x6Wri.ltrans12.ltrans.o
                0x0804fe20                MaxSendReceiveCommand.isra.1.lto_priv.198
                0x0804fee0                USBD_LL_Init.part.1
 .text.unlikely
                0x0804ff08      0x444 C:\Users\PRESTO~1\AppData\Local\Temp\cc3x6Wri.ltrans13.ltrans.o
                0x0804ff08                MassEraseDataFlashByPage.constprop.55
 .text.unlikely
                0x0805034c      0x43c C:\Users\PRESTO~1\AppData\Local\Temp\cc3x6Wri.ltrans18.ltrans.o
                0x0805034c                M25p16ReadStatus.lto_priv.203
 .text.unlikely
                0x08050788      0x1f8 C:\Users\PRESTO~1\AppData\Local\Temp\cc3x6Wri.ltrans20.ltrans.o
                0x08050788                BuiltInUpgradeSiLabsBLHeli
 .text.unlikely
                0x08050980      0xf28 C:\Users\PRESTO~1\AppData\Local\Temp\cc3x6Wri.ltrans21.ltrans.o
                0x08050980                SetRxDefaults
 .text.unlikely
                0x080518a8      0x218 C:\Users\PRESTO~1\AppData\Local\Temp\cc3x6Wri.ltrans24.ltrans.o
                0x080518a8                DirectActuator
 .text.unlikely
                0x08051ac0      0x114 C:\Users\PRESTO~1\AppData\Local\Temp\cc3x6Wri.ltrans26.ltrans.o
                0x08051ac0                WizRxCheckRxDataLooksValid.lto_priv.212
                0x08051b5c                MixerWizard
 .text.unlikely
                0x08051bd4      0x1bc C:\Users\PRESTO~1\AppData\Local\Temp\cc3x6Wri.ltrans27.ltrans.o
                0x08051bd4                HAL_RCC_ClockConfig.constprop.156
 .text.unlikely
                0x08051d90      0x1a8 C:\Users\PRESTO~1\AppData\Local\Temp\cc3x6Wri.ltrans29.ltrans.o
                0x08051d90                MaxOsdSetVidoOnOff.constprop.49
                0x08051ee4                CalculateSDSize.constprop.48
 .text.unlikely
                0x08051f38      0x110 C:\Users\PRESTO~1\AppData\Local\Temp\cc3x6Wri.ltrans31.ltrans.o
                0x08051f38                AdjustTpa
 .text.Reset_Handler
                0x08052048       0x68 output\REVOLT\startup_stm32f405xx.o
                0x08052048                Reset_Handler
 .text.Default_Handler
                0x080520b0        0x2 output\REVOLT\startup_stm32f405xx.o
                0x080520b0                RTC_Alarm_IRQHandler
                0x080520b0                HASH_RNG_IRQHandler
                0x080520b0                TIM8_CC_IRQHandler
                0x080520b0                PVD_IRQHandler
                0x080520b0                SDIO_IRQHandler
                0x080520b0                TAMP_STAMP_IRQHandler
                0x080520b0                CAN2_RX1_IRQHandler
                0x080520b0                TIM8_TRG_COM_TIM14_IRQHandler
                0x080520b0                TIM8_UP_TIM13_IRQHandler
                0x080520b0                I2C3_ER_IRQHandler
                0x080520b0                I2C2_EV_IRQHandler
                0x080520b0                CAN1_RX0_IRQHandler
                0x080520b0                FPU_IRQHandler
                0x080520b0                OTG_HS_WKUP_IRQHandler
                0x080520b0                CAN2_SCE_IRQHandler
                0x080520b0                CAN2_RX0_IRQHandler
                0x080520b0                USART6_IRQHandler
                0x080520b0                USART3_IRQHandler
                0x080520b0                CAN1_RX1_IRQHandler
                0x080520b0                UART5_IRQHandler
                0x080520b0                TIM4_IRQHandler
                0x080520b0                I2C1_EV_IRQHandler
                0x080520b0                UART4_IRQHandler
                0x080520b0                TIM3_IRQHandler
                0x080520b0                RCC_IRQHandler
                0x080520b0                TIM8_BRK_TIM12_IRQHandler
                0x080520b0                Default_Handler
                0x080520b0                CAN2_TX_IRQHandler
                0x080520b0                I2C3_EV_IRQHandler
                0x080520b0                RTC_WKUP_IRQHandler
                0x080520b0                OTG_HS_EP1_IN_IRQHandler
                0x080520b0                CAN1_TX_IRQHandler
                0x080520b0                FSMC_IRQHandler
                0x080520b0                OTG_HS_EP1_OUT_IRQHandler
                0x080520b0                WWDG_IRQHandler
                0x080520b0                TIM2_IRQHandler
                0x080520b0                OTG_FS_WKUP_IRQHandler
                0x080520b0                TIM1_TRG_COM_TIM11_IRQHandler
                0x080520b0                OTG_HS_IRQHandler
                0x080520b0                USART2_IRQHandler
                0x080520b0                I2C2_ER_IRQHandler
                0x080520b0                CAN1_SCE_IRQHandler
                0x080520b0                FLASH_IRQHandler
                0x080520b0                USART1_IRQHandler
                0x080520b0                I2C1_ER_IRQHandler
 .text.atof     0x080520b2        0x6 c:/dev/gcc-arm-none-eabi/bin/../lib/gcc/arm-none-eabi/6.3.1/../../../../arm-none-eabi/lib/thumb/v7e-m/fpv4-sp/hard\libc_nano.a(lib_a-atof.o)
                0x080520b2                atof
 .text.atoi     0x080520b8        0x8 c:/dev/gcc-arm-none-eabi/bin/../lib/gcc/arm-none-eabi/6.3.1/../../../../arm-none-eabi/lib/thumb/v7e-m/fpv4-sp/hard\libc_nano.a(lib_a-atoi.o)
                0x080520b8                atoi
 .text.__itoa   0x080520c0       0x30 c:/dev/gcc-arm-none-eabi/bin/../lib/gcc/arm-none-eabi/6.3.1/../../../../arm-none-eabi/lib/thumb/v7e-m/fpv4-sp/hard\libc_nano.a(lib_a-itoa.o)
                0x080520c0                __itoa
 .text.itoa     0x080520f0        0x4 c:/dev/gcc-arm-none-eabi/bin/../lib/gcc/arm-none-eabi/6.3.1/../../../../arm-none-eabi/lib/thumb/v7e-m/fpv4-sp/hard\libc_nano.a(lib_a-itoa.o)
                0x080520f0                itoa
 .text.__locale_ctype_ptr_l
                0x080520f4        0x6 c:/dev/gcc-arm-none-eabi/bin/../lib/gcc/arm-none-eabi/6.3.1/../../../../arm-none-eabi/lib/thumb/v7e-m/fpv4-sp/hard\libc_nano.a(lib_a-locale.o)
                0x080520f4                __locale_ctype_ptr_l
 *fill*         0x080520fa        0x2 
 .text.__locale_ctype_ptr
                0x080520fc       0x1c c:/dev/gcc-arm-none-eabi/bin/../lib/gcc/arm-none-eabi/6.3.1/../../../../arm-none-eabi/lib/thumb/v7e-m/fpv4-sp/hard\libc_nano.a(lib_a-locale.o)
                0x080520fc                __locale_ctype_ptr
 .text.__ascii_mbtowc
                0x08052118       0x24 c:/dev/gcc-arm-none-eabi/bin/../lib/gcc/arm-none-eabi/6.3.1/../../../../arm-none-eabi/lib/thumb/v7e-m/fpv4-sp/hard\libc_nano.a(lib_a-mbtowc_r.o)
                0x08052118                __ascii_mbtowc
 .text.rand     0x0805213c       0x74 c:/dev/gcc-arm-none-eabi/bin/../lib/gcc/arm-none-eabi/6.3.1/../../../../arm-none-eabi/lib/thumb/v7e-m/fpv4-sp/hard\libc_nano.a(lib_a-rand.o)
                0x0805213c                rand
 .text.unlikely.sulp
                0x080521b0       0x38 c:/dev/gcc-arm-none-eabi/bin/../lib/gcc/arm-none-eabi/6.3.1/../../../../arm-none-eabi/lib/thumb/v7e-m/fpv4-sp/hard\libc_nano.a(lib_a-strtod.o)
 .text._strtod_l
                0x080521e8      0xbd8 c:/dev/gcc-arm-none-eabi/bin/../lib/gcc/arm-none-eabi/6.3.1/../../../../arm-none-eabi/lib/thumb/v7e-m/fpv4-sp/hard\libc_nano.a(lib_a-strtod.o)
                0x080521e8                _strtod_l
 .text.strtod   0x08052dc0       0x28 c:/dev/gcc-arm-none-eabi/bin/../lib/gcc/arm-none-eabi/6.3.1/../../../../arm-none-eabi/lib/thumb/v7e-m/fpv4-sp/hard\libc_nano.a(lib_a-strtod.o)
                0x08052dc0                strtod
 .text._strtol_l.isra.0
                0x08052de8      0x100 c:/dev/gcc-arm-none-eabi/bin/../lib/gcc/arm-none-eabi/6.3.1/../../../../arm-none-eabi/lib/thumb/v7e-m/fpv4-sp/hard\libc_nano.a(lib_a-strtol.o)
 .text.strtol   0x08052ee8       0x2c c:/dev/gcc-arm-none-eabi/bin/../lib/gcc/arm-none-eabi/6.3.1/../../../../arm-none-eabi/lib/thumb/v7e-m/fpv4-sp/hard\libc_nano.a(lib_a-strtol.o)
                0x08052ee8                strtol
 .text.__utoa   0x08052f14       0x80 c:/dev/gcc-arm-none-eabi/bin/../lib/gcc/arm-none-eabi/6.3.1/../../../../arm-none-eabi/lib/thumb/v7e-m/fpv4-sp/hard\libc_nano.a(lib_a-utoa.o)
                0x08052f14                __utoa
 .text.__ascii_wctomb
                0x08052f94       0x1a c:/dev/gcc-arm-none-eabi/bin/../lib/gcc/arm-none-eabi/6.3.1/../../../../arm-none-eabi/lib/thumb/v7e-m/fpv4-sp/hard\libc_nano.a(lib_a-wctomb_r.o)
                0x08052f94                __ascii_wctomb
 .text.rshift   0x08052fae       0x6a c:/dev/gcc-arm-none-eabi/bin/../lib/gcc/arm-none-eabi/6.3.1/../../../../arm-none-eabi/lib/thumb/v7e-m/fpv4-sp/hard\libc_nano.a(lib_a-gdtoa-gethex.o)
 .text.__hexdig_fun
                0x08053018       0x2a c:/dev/gcc-arm-none-eabi/bin/../lib/gcc/arm-none-eabi/6.3.1/../../../../arm-none-eabi/lib/thumb/v7e-m/fpv4-sp/hard\libc_nano.a(lib_a-gdtoa-gethex.o)
                0x08053018                __hexdig_fun
 .text.__gethex
                0x08053042      0x43c c:/dev/gcc-arm-none-eabi/bin/../lib/gcc/arm-none-eabi/6.3.1/../../../../arm-none-eabi/lib/thumb/v7e-m/fpv4-sp/hard\libc_nano.a(lib_a-gdtoa-gethex.o)
                0x08053042                __gethex
 .text.L_shift  0x0805347e       0x24 c:/dev/gcc-arm-none-eabi/bin/../lib/gcc/arm-none-eabi/6.3.1/../../../../arm-none-eabi/lib/thumb/v7e-m/fpv4-sp/hard\libc_nano.a(lib_a-gdtoa-hexnan.o)
 .text.__match  0x080534a2       0x26 c:/dev/gcc-arm-none-eabi/bin/../lib/gcc/arm-none-eabi/6.3.1/../../../../arm-none-eabi/lib/thumb/v7e-m/fpv4-sp/hard\libc_nano.a(lib_a-gdtoa-hexnan.o)
                0x080534a2                __match
 .text.__hexnan
                0x080534c8      0x120 c:/dev/gcc-arm-none-eabi/bin/../lib/gcc/arm-none-eabi/6.3.1/../../../../arm-none-eabi/lib/thumb/v7e-m/fpv4-sp/hard\libc_nano.a(lib_a-gdtoa-hexnan.o)
                0x080534c8                __hexnan
 .text.__localeconv_l
                0x080535e8        0x4 c:/dev/gcc-arm-none-eabi/bin/../lib/gcc/arm-none-eabi/6.3.1/../../../../arm-none-eabi/lib/thumb/v7e-m/fpv4-sp/hard\libc_nano.a(lib_a-localeconv.o)
                0x080535e8                __localeconv_l
 .text.malloc   0x080535ec       0x10 c:/dev/gcc-arm-none-eabi/bin/../lib/gcc/arm-none-eabi/6.3.1/../../../../arm-none-eabi/lib/thumb/v7e-m/fpv4-sp/hard\libc_nano.a(lib_a-malloc.o)
                0x080535ec                malloc
 .text.free     0x080535fc       0x10 c:/dev/gcc-arm-none-eabi/bin/../lib/gcc/arm-none-eabi/6.3.1/../../../../arm-none-eabi/lib/thumb/v7e-m/fpv4-sp/hard\libc_nano.a(lib_a-malloc.o)
                0x080535fc                free
 .text.memcpy   0x0805360c       0x16 c:/dev/gcc-arm-none-eabi/bin/../lib/gcc/arm-none-eabi/6.3.1/../../../../arm-none-eabi/lib/thumb/v7e-m/fpv4-sp/hard\libc_nano.a(lib_a-memcpy-stub.o)
                0x0805360c                memcpy
 .text._Balloc  0x08053622       0x68 c:/dev/gcc-arm-none-eabi/bin/../lib/gcc/arm-none-eabi/6.3.1/../../../../arm-none-eabi/lib/thumb/v7e-m/fpv4-sp/hard\libc_nano.a(lib_a-mprec.o)
                0x08053622                _Balloc
 .text._Bfree   0x0805368a       0x2e c:/dev/gcc-arm-none-eabi/bin/../lib/gcc/arm-none-eabi/6.3.1/../../../../arm-none-eabi/lib/thumb/v7e-m/fpv4-sp/hard\libc_nano.a(lib_a-mprec.o)
                0x0805368a                _Bfree
 .text.__multadd
                0x080536b8       0x76 c:/dev/gcc-arm-none-eabi/bin/../lib/gcc/arm-none-eabi/6.3.1/../../../../arm-none-eabi/lib/thumb/v7e-m/fpv4-sp/hard\libc_nano.a(lib_a-mprec.o)
                0x080536b8                __multadd
 .text.__s2b    0x0805372e       0x7c c:/dev/gcc-arm-none-eabi/bin/../lib/gcc/arm-none-eabi/6.3.1/../../../../arm-none-eabi/lib/thumb/v7e-m/fpv4-sp/hard\libc_nano.a(lib_a-mprec.o)
                0x0805372e                __s2b
 .text.__hi0bits
                0x080537aa       0x3e c:/dev/gcc-arm-none-eabi/bin/../lib/gcc/arm-none-eabi/6.3.1/../../../../arm-none-eabi/lib/thumb/v7e-m/fpv4-sp/hard\libc_nano.a(lib_a-mprec.o)
                0x080537aa                __hi0bits
 .text.__lo0bits
                0x080537e8       0x5e c:/dev/gcc-arm-none-eabi/bin/../lib/gcc/arm-none-eabi/6.3.1/../../../../arm-none-eabi/lib/thumb/v7e-m/fpv4-sp/hard\libc_nano.a(lib_a-mprec.o)
                0x080537e8                __lo0bits
 .text.__i2b    0x08053846       0x12 c:/dev/gcc-arm-none-eabi/bin/../lib/gcc/arm-none-eabi/6.3.1/../../../../arm-none-eabi/lib/thumb/v7e-m/fpv4-sp/hard\libc_nano.a(lib_a-mprec.o)
                0x08053846                __i2b
 .text.__multiply
                0x08053858      0x11a c:/dev/gcc-arm-none-eabi/bin/../lib/gcc/arm-none-eabi/6.3.1/../../../../arm-none-eabi/lib/thumb/v7e-m/fpv4-sp/hard\libc_nano.a(lib_a-mprec.o)
                0x08053858                __multiply
 *fill*         0x08053972        0x2 
 .text.__pow5mult
                0x08053974       0x9c c:/dev/gcc-arm-none-eabi/bin/../lib/gcc/arm-none-eabi/6.3.1/../../../../arm-none-eabi/lib/thumb/v7e-m/fpv4-sp/hard\libc_nano.a(lib_a-mprec.o)
                0x08053974                __pow5mult
 .text.__lshift
                0x08053a10       0xa2 c:/dev/gcc-arm-none-eabi/bin/../lib/gcc/arm-none-eabi/6.3.1/../../../../arm-none-eabi/lib/thumb/v7e-m/fpv4-sp/hard\libc_nano.a(lib_a-mprec.o)
                0x08053a10                __lshift
 .text.__mcmp   0x08053ab2       0x34 c:/dev/gcc-arm-none-eabi/bin/../lib/gcc/arm-none-eabi/6.3.1/../../../../arm-none-eabi/lib/thumb/v7e-m/fpv4-sp/hard\libc_nano.a(lib_a-mprec.o)
                0x08053ab2                __mcmp
 .text.__mdiff  0x08053ae6       0xbc c:/dev/gcc-arm-none-eabi/bin/../lib/gcc/arm-none-eabi/6.3.1/../../../../arm-none-eabi/lib/thumb/v7e-m/fpv4-sp/hard\libc_nano.a(lib_a-mprec.o)
                0x08053ae6                __mdiff
 *fill*         0x08053ba2        0x2 
 .text.__ulp    0x08053ba4       0x50 c:/dev/gcc-arm-none-eabi/bin/../lib/gcc/arm-none-eabi/6.3.1/../../../../arm-none-eabi/lib/thumb/v7e-m/fpv4-sp/hard\libc_nano.a(lib_a-mprec.o)
                0x08053ba4                __ulp
 .text.__b2d    0x08053bf4       0x9c c:/dev/gcc-arm-none-eabi/bin/../lib/gcc/arm-none-eabi/6.3.1/../../../../arm-none-eabi/lib/thumb/v7e-m/fpv4-sp/hard\libc_nano.a(lib_a-mprec.o)
                0x08053bf4                __b2d
 .text.__d2b    0x08053c90       0x9e c:/dev/gcc-arm-none-eabi/bin/../lib/gcc/arm-none-eabi/6.3.1/../../../../arm-none-eabi/lib/thumb/v7e-m/fpv4-sp/hard\libc_nano.a(lib_a-mprec.o)
                0x08053c90                __d2b
 .text.__ratio  0x08053d2e       0x58 c:/dev/gcc-arm-none-eabi/bin/../lib/gcc/arm-none-eabi/6.3.1/../../../../arm-none-eabi/lib/thumb/v7e-m/fpv4-sp/hard\libc_nano.a(lib_a-mprec.o)
                0x08053d2e                __ratio
 .text.__copybits
                0x08053d86       0x34 c:/dev/gcc-arm-none-eabi/bin/../lib/gcc/arm-none-eabi/6.3.1/../../../../arm-none-eabi/lib/thumb/v7e-m/fpv4-sp/hard\libc_nano.a(lib_a-mprec.o)
                0x08053d86                __copybits
 .text.__any_on
                0x08053dba       0x42 c:/dev/gcc-arm-none-eabi/bin/../lib/gcc/arm-none-eabi/6.3.1/../../../../arm-none-eabi/lib/thumb/v7e-m/fpv4-sp/hard\libc_nano.a(lib_a-mprec.o)
                0x08053dba                __any_on
 .text._calloc_r
                0x08053dfc       0x1c c:/dev/gcc-arm-none-eabi/bin/../lib/gcc/arm-none-eabi/6.3.1/../../../../arm-none-eabi/lib/thumb/v7e-m/fpv4-sp/hard\libc_nano.a(lib_a-nano-callocr.o)
                0x08053dfc                _calloc_r
 .text._free_r  0x08053e18       0x9c c:/dev/gcc-arm-none-eabi/bin/../lib/gcc/arm-none-eabi/6.3.1/../../../../arm-none-eabi/lib/thumb/v7e-m/fpv4-sp/hard\libc_nano.a(lib_a-nano-freer.o)
                0x08053e18                _free_r
 .text._malloc_r
                0x08053eb4       0xbc c:/dev/gcc-arm-none-eabi/bin/../lib/gcc/arm-none-eabi/6.3.1/../../../../arm-none-eabi/lib/thumb/v7e-m/fpv4-sp/hard\libc_nano.a(lib_a-nano-mallocr.o)
                0x08053eb4                _malloc_r
 .text._sbrk_r  0x08053f70       0x20 c:/dev/gcc-arm-none-eabi/bin/../lib/gcc/arm-none-eabi/6.3.1/../../../../arm-none-eabi/lib/thumb/v7e-m/fpv4-sp/hard\libc_nano.a(lib_a-sbrkr.o)
                0x08053f70                _sbrk_r
 .text.strncmp  0x08053f90       0x24 c:/dev/gcc-arm-none-eabi/bin/../lib/gcc/arm-none-eabi/6.3.1/../../../../arm-none-eabi/lib/thumb/v7e-m/fpv4-sp/hard\libc_nano.a(lib_a-strncmp.o)
                0x08053f90                strncmp
 .text.memset   0x08053fb4       0x10 c:/dev/gcc-arm-none-eabi/bin/../lib/gcc/arm-none-eabi/6.3.1/../../../../arm-none-eabi/lib/thumb/v7e-m/fpv4-sp/hard\libc_nano.a(lib_a-memset.o)
                0x08053fb4                memset
 .text.__malloc_lock
                0x08053fc4        0x2 c:/dev/gcc-arm-none-eabi/bin/../lib/gcc/arm-none-eabi/6.3.1/../../../../arm-none-eabi/lib/thumb/v7e-m/fpv4-sp/hard\libc_nano.a(lib_a-mlock.o)
                0x08053fc4                __malloc_lock
 .text.__malloc_unlock
                0x08053fc6        0x2 c:/dev/gcc-arm-none-eabi/bin/../lib/gcc/arm-none-eabi/6.3.1/../../../../arm-none-eabi/lib/thumb/v7e-m/fpv4-sp/hard\libc_nano.a(lib_a-mlock.o)
                0x08053fc6                __malloc_unlock
 .text._sbrk    0x08053fc8       0x1c c:/dev/gcc-arm-none-eabi/bin/../lib/gcc/arm-none-eabi/6.3.1/../../../../arm-none-eabi/lib/thumb/v7e-m/fpv4-sp/hard\libnosys.a(sbrk.o)
                0x08053fc8                _sbrk
 .text.powl     0x08053fe4        0x4 c:/dev/gcc-arm-none-eabi/bin/../lib/gcc/arm-none-eabi/6.3.1/../../../../arm-none-eabi/lib/thumb/v7e-m/fpv4-sp/hard\libm.a(lib_a-powl.o)
                0x08053fe4                powl
 .text.ceil     0x08053fe8      0x128 c:/dev/gcc-arm-none-eabi/bin/../lib/gcc/arm-none-eabi/6.3.1/../../../../arm-none-eabi/lib/thumb/v7e-m/fpv4-sp/hard\libm.a(lib_a-s_ceil.o)
                0x08053fe8                ceil
 .text.lrint    0x08054110       0xc0 c:/dev/gcc-arm-none-eabi/bin/../lib/gcc/arm-none-eabi/6.3.1/../../../../arm-none-eabi/lib/thumb/v7e-m/fpv4-sp/hard\libm.a(lib_a-s_lrint.o)
                0x08054110                lrint
 .text.round    0x080541d0       0xb0 c:/dev/gcc-arm-none-eabi/bin/../lib/gcc/arm-none-eabi/6.3.1/../../../../arm-none-eabi/lib/thumb/v7e-m/fpv4-sp/hard\libm.a(lib_a-s_round.o)
                0x080541d0                round
 .text.cosf     0x08054280       0x90 c:/dev/gcc-arm-none-eabi/bin/../lib/gcc/arm-none-eabi/6.3.1/../../../../arm-none-eabi/lib/thumb/v7e-m/fpv4-sp/hard\libm.a(lib_a-sf_cos.o)
                0x08054280                cosf
 .text.lrintf   0x08054310       0x98 c:/dev/gcc-arm-none-eabi/bin/../lib/gcc/arm-none-eabi/6.3.1/../../../../arm-none-eabi/lib/thumb/v7e-m/fpv4-sp/hard\libm.a(lib_a-sf_lrint.o)
                0x08054310                lrintf
 .text.sinf     0x080543a8       0x94 c:/dev/gcc-arm-none-eabi/bin/../lib/gcc/arm-none-eabi/6.3.1/../../../../arm-none-eabi/lib/thumb/v7e-m/fpv4-sp/hard\libm.a(lib_a-sf_sin.o)
                0x080543a8                sinf
 *fill*         0x0805443c        0x4 
 .text.pow      0x08054440      0x320 c:/dev/gcc-arm-none-eabi/bin/../lib/gcc/arm-none-eabi/6.3.1/../../../../arm-none-eabi/lib/thumb/v7e-m/fpv4-sp/hard\libm.a(lib_a-w_pow.o)
                0x08054440                pow
 .text.sqrtf    0x08054760       0xac c:/dev/gcc-arm-none-eabi/bin/../lib/gcc/arm-none-eabi/6.3.1/../../../../arm-none-eabi/lib/thumb/v7e-m/fpv4-sp/hard\libm.a(lib_a-wf_sqrt.o)
                0x08054760                sqrtf
 *fill*         0x0805480c        0x4 
 .text.__ieee754_pow
                0x08054810      0xae0 c:/dev/gcc-arm-none-eabi/bin/../lib/gcc/arm-none-eabi/6.3.1/../../../../arm-none-eabi/lib/thumb/v7e-m/fpv4-sp/hard\libm.a(lib_a-e_pow.o)
                0x08054810                __ieee754_pow
 .text.__ieee754_sqrt
                0x080552f0      0x198 c:/dev/gcc-arm-none-eabi/bin/../lib/gcc/arm-none-eabi/6.3.1/../../../../arm-none-eabi/lib/thumb/v7e-m/fpv4-sp/hard\libm.a(lib_a-e_sqrt.o)
                0x080552f0                __ieee754_sqrt
 .text.__ieee754_rem_pio2f
                0x08055488      0x290 c:/dev/gcc-arm-none-eabi/bin/../lib/gcc/arm-none-eabi/6.3.1/../../../../arm-none-eabi/lib/thumb/v7e-m/fpv4-sp/hard\libm.a(lib_a-ef_rem_pio2.o)
                0x08055488                __ieee754_rem_pio2f
 .text.__ieee754_sqrtf
                0x08055718        0x8 c:/dev/gcc-arm-none-eabi/bin/../lib/gcc/arm-none-eabi/6.3.1/../../../../arm-none-eabi/lib/thumb/v7e-m/fpv4-sp/hard\libm.a(lib_a-ef_sqrt.o)
                0x08055718                __ieee754_sqrtf
 .text.__kernel_cosf
                0x08055720      0x104 c:/dev/gcc-arm-none-eabi/bin/../lib/gcc/arm-none-eabi/6.3.1/../../../../arm-none-eabi/lib/thumb/v7e-m/fpv4-sp/hard\libm.a(lib_a-kf_cos.o)
                0x08055720                __kernel_cosf
 .text.__kernel_rem_pio2f
                0x08055824      0x690 c:/dev/gcc-arm-none-eabi/bin/../lib/gcc/arm-none-eabi/6.3.1/../../../../arm-none-eabi/lib/thumb/v7e-m/fpv4-sp/hard\libm.a(lib_a-kf_rem_pio2.o)
                0x08055824                __kernel_rem_pio2f
 .text.__kernel_sinf
                0x08055eb4       0x90 c:/dev/gcc-arm-none-eabi/bin/../lib/gcc/arm-none-eabi/6.3.1/../../../../arm-none-eabi/lib/thumb/v7e-m/fpv4-sp/hard\libm.a(lib_a-kf_sin.o)
                0x08055eb4                __kernel_sinf
 .text.fabs     0x08055f44       0x10 c:/dev/gcc-arm-none-eabi/bin/../lib/gcc/arm-none-eabi/6.3.1/../../../../arm-none-eabi/lib/thumb/v7e-m/fpv4-sp/hard\libm.a(lib_a-s_fabs.o)
                0x08055f44                fabs
 .text.finite   0x08055f54       0x10 c:/dev/gcc-arm-none-eabi/bin/../lib/gcc/arm-none-eabi/6.3.1/../../../../arm-none-eabi/lib/thumb/v7e-m/fpv4-sp/hard\libm.a(lib_a-s_finite.o)
                0x08055f54                finite
 .text.matherr  0x08055f64        0x4 c:/dev/gcc-arm-none-eabi/bin/../lib/gcc/arm-none-eabi/6.3.1/../../../../arm-none-eabi/lib/thumb/v7e-m/fpv4-sp/hard\libm.a(lib_a-s_matherr.o)
                0x08055f64                matherr
 .text.nan      0x08055f68       0x10 c:/dev/gcc-arm-none-eabi/bin/../lib/gcc/arm-none-eabi/6.3.1/../../../../arm-none-eabi/lib/thumb/v7e-m/fpv4-sp/hard\libm.a(lib_a-s_nan.o)
                0x08055f68                nan
 .text.rint     0x08055f78      0x124 c:/dev/gcc-arm-none-eabi/bin/../lib/gcc/arm-none-eabi/6.3.1/../../../../arm-none-eabi/lib/thumb/v7e-m/fpv4-sp/hard\libm.a(lib_a-s_rint.o)
                0x08055f78                rint
 *fill*         0x0805609c        0x4 
 .text.scalbn   0x080560a0      0x10c c:/dev/gcc-arm-none-eabi/bin/../lib/gcc/arm-none-eabi/6.3.1/../../../../arm-none-eabi/lib/thumb/v7e-m/fpv4-sp/hard\libm.a(lib_a-s_scalbn.o)
                0x080560a0                scalbn
 .text.fabsf    0x080561ac       0x10 c:/dev/gcc-arm-none-eabi/bin/../lib/gcc/arm-none-eabi/6.3.1/../../../../arm-none-eabi/lib/thumb/v7e-m/fpv4-sp/hard\libm.a(lib_a-sf_fabs.o)
                0x080561ac                fabsf
 .text.floorf   0x080561bc       0x90 c:/dev/gcc-arm-none-eabi/bin/../lib/gcc/arm-none-eabi/6.3.1/../../../../arm-none-eabi/lib/thumb/v7e-m/fpv4-sp/hard\libm.a(lib_a-sf_floor.o)
                0x080561bc                floorf
 .text.scalbnf  0x0805624c       0xd0 c:/dev/gcc-arm-none-eabi/bin/../lib/gcc/arm-none-eabi/6.3.1/../../../../arm-none-eabi/lib/thumb/v7e-m/fpv4-sp/hard\libm.a(lib_a-sf_scalbn.o)
                0x0805624c                scalbnf
 .text.copysign
                0x0805631c       0x1c c:/dev/gcc-arm-none-eabi/bin/../lib/gcc/arm-none-eabi/6.3.1/../../../../arm-none-eabi/lib/thumb/v7e-m/fpv4-sp/hard\libm.a(lib_a-s_copysign.o)
                0x0805631c                copysign
 .text.copysignf
                0x08056338       0x18 c:/dev/gcc-arm-none-eabi/bin/../lib/gcc/arm-none-eabi/6.3.1/../../../../arm-none-eabi/lib/thumb/v7e-m/fpv4-sp/hard\libm.a(lib_a-sf_copysign.o)
                0x08056338                copysignf
 .text.__errno  0x08056350        0xc c:/dev/gcc-arm-none-eabi/bin/../lib/gcc/arm-none-eabi/6.3.1/../../../../arm-none-eabi/lib/thumb/v7e-m/fpv4-sp/hard\libc_nano.a(lib_a-errno.o)
                0x08056350                __errno
 .text.snprintf
                0x0805635c       0x68 c:/dev/gcc-arm-none-eabi/bin/../lib/gcc/arm-none-eabi/6.3.1/../../../../arm-none-eabi/lib/thumb/v7e-m/fpv4-sp/hard\libc_nano.a(lib_a-snprintf.o)
                0x0805635c                sniprintf
                0x0805635c                snprintf
 .text.sprintf  0x080563c4       0x48 c:/dev/gcc-arm-none-eabi/bin/../lib/gcc/arm-none-eabi/6.3.1/../../../../arm-none-eabi/lib/thumb/v7e-m/fpv4-sp/hard\libc_nano.a(lib_a-sprintf.o)
                0x080563c4                siprintf
                0x080563c4                sprintf
 .text.strcat   0x0805640c       0x1e c:/dev/gcc-arm-none-eabi/bin/../lib/gcc/arm-none-eabi/6.3.1/../../../../arm-none-eabi/lib/thumb/v7e-m/fpv4-sp/hard\libc_nano.a(lib_a-strcat.o)
                0x0805640c                strcat
 .text.strchr   0x0805642a       0x1c c:/dev/gcc-arm-none-eabi/bin/../lib/gcc/arm-none-eabi/6.3.1/../../../../arm-none-eabi/lib/thumb/v7e-m/fpv4-sp/hard\libc_nano.a(lib_a-strchr.o)
                0x0805642a                strchr
 .text.strcpy   0x08056446       0x10 c:/dev/gcc-arm-none-eabi/bin/../lib/gcc/arm-none-eabi/6.3.1/../../../../arm-none-eabi/lib/thumb/v7e-m/fpv4-sp/hard\libc_nano.a(lib_a-strcpy.o)
                0x08056446                strcpy
 .text.strncasecmp
                0x08056456       0x4e c:/dev/gcc-arm-none-eabi/bin/../lib/gcc/arm-none-eabi/6.3.1/../../../../arm-none-eabi/lib/thumb/v7e-m/fpv4-sp/hard\libc_nano.a(lib_a-strncasecmp.o)
                0x08056456                strncasecmp
 .text.strncpy  0x080564a4       0x2a c:/dev/gcc-arm-none-eabi/bin/../lib/gcc/arm-none-eabi/6.3.1/../../../../arm-none-eabi/lib/thumb/v7e-m/fpv4-sp/hard\libc_nano.a(lib_a-strncpy.o)
                0x080564a4                strncpy
 .text.__ssputs_r
                0x080564ce       0xb6 c:/dev/gcc-arm-none-eabi/bin/../lib/gcc/arm-none-eabi/6.3.1/../../../../arm-none-eabi/lib/thumb/v7e-m/fpv4-sp/hard\libc_nano.a(lib_a-nano-svfprintf.o)
                0x080564ce                __ssputs_r
 .text._svfprintf_r
                0x08056584      0x1e8 c:/dev/gcc-arm-none-eabi/bin/../lib/gcc/arm-none-eabi/6.3.1/../../../../arm-none-eabi/lib/thumb/v7e-m/fpv4-sp/hard\libc_nano.a(lib_a-nano-svfprintf.o)
                0x08056584                _svfiprintf_r
                0x08056584                _svfprintf_r
 .text._printf_common
                0x0805676c       0xec c:/dev/gcc-arm-none-eabi/bin/../lib/gcc/arm-none-eabi/6.3.1/../../../../arm-none-eabi/lib/thumb/v7e-m/fpv4-sp/hard\libc_nano.a(lib_a-nano-vfprintf_i.o)
                0x0805676c                _printf_common
 .text._printf_i
                0x08056858      0x240 c:/dev/gcc-arm-none-eabi/bin/../lib/gcc/arm-none-eabi/6.3.1/../../../../arm-none-eabi/lib/thumb/v7e-m/fpv4-sp/hard\libc_nano.a(lib_a-nano-vfprintf_i.o)
                0x08056858                _printf_i
 .text.memmove  0x08056a98       0x34 c:/dev/gcc-arm-none-eabi/bin/../lib/gcc/arm-none-eabi/6.3.1/../../../../arm-none-eabi/lib/thumb/v7e-m/fpv4-sp/hard\libc_nano.a(lib_a-memmove.o)
                0x08056a98                memmove
 .text._realloc_r
                0x08056acc       0x4c c:/dev/gcc-arm-none-eabi/bin/../lib/gcc/arm-none-eabi/6.3.1/../../../../arm-none-eabi/lib/thumb/v7e-m/fpv4-sp/hard\libc_nano.a(lib_a-nano-reallocr.o)
                0x08056acc                _realloc_r
 .text._malloc_usable_size_r
                0x08056b18       0x12 c:/dev/gcc-arm-none-eabi/bin/../lib/gcc/arm-none-eabi/6.3.1/../../../../arm-none-eabi/lib/thumb/v7e-m/fpv4-sp/hard\libc_nano.a(lib_a-nano-msizer.o)
                0x08056b18                _malloc_usable_size_r
 *(.rodata)
 *fill*         0x08056b2a        0x2 
 .rodata        0x08056b2c     0x65ea C:\Users\PRESTO~1\AppData\Local\Temp\cc3x6Wri.ltrans1.ltrans.o
                0x08056b2c                valueTable
                0x08058e7c                vtxStringCompTable
                0x0805cff8                crc8tab.lto_priv.204.lto_priv.232
                0x0805cff8                crc8tab
 *fill*         0x0805d116        0x2 
 .rodata        0x0805d118      0xc1e C:\Users\PRESTO~1\AppData\Local\Temp\cc3x6Wri.ltrans2.ltrans.o
 *fill*         0x0805dd36        0x2 
 .rodata        0x0805dd38       0x15 C:\Users\PRESTO~1\AppData\Local\Temp\cc3x6Wri.ltrans3.ltrans.o
 *fill*         0x0805dd4d        0x3 
 .rodata        0x0805dd50      0x210 C:\Users\PRESTO~1\AppData\Local\Temp\cc3x6Wri.ltrans4.ltrans.o
 .rodata        0x0805df60      0x240 C:\Users\PRESTO~1\AppData\Local\Temp\cc3x6Wri.ltrans7.ltrans.o
 .rodata        0x0805e1a0       0xa0 C:\Users\PRESTO~1\AppData\Local\Temp\cc3x6Wri.ltrans10.ltrans.o
                0x0805e1a0                vtxBandChannelToFrequencyLookup.lto_priv.233
 .rodata        0x0805e240       0x38 C:\Users\PRESTO~1\AppData\Local\Temp\cc3x6Wri.ltrans11.ltrans.o
                0x0805e240                CSWTCH.36.lto_priv.235
 .rodata        0x0805e278       0xee C:\Users\PRESTO~1\AppData\Local\Temp\cc3x6Wri.ltrans13.ltrans.o
                0x0805e278                stringModes
                0x0805e344                bitLookup.lto_priv.199.lto_priv.247
 *fill*         0x0805e366        0x2 
 .rodata        0x0805e368       0x28 C:\Users\PRESTO~1\AppData\Local\Temp\cc3x6Wri.ltrans14.ltrans.o
 .rodata        0x0805e390       0x97 C:\Users\PRESTO~1\AppData\Local\Temp\cc3x6Wri.ltrans16.ltrans.o
 *fill*         0x0805e427        0x1 
 .rodata        0x0805e428      0x804 C:\Users\PRESTO~1\AppData\Local\Temp\cc3x6Wri.ltrans19.ltrans.o
 .rodata        0x0805ec2c       0x48 C:\Users\PRESTO~1\AppData\Local\Temp\cc3x6Wri.ltrans21.ltrans.o
                0x0805ec2c                flagBitshiftOffset.9597.lto_priv.225
 .rodata        0x0805ec74       0x6c C:\Users\PRESTO~1\AppData\Local\Temp\cc3x6Wri.ltrans22.ltrans.o
 .rodata        0x0805ece0      0x110 C:\Users\PRESTO~1\AppData\Local\Temp\cc3x6Wri.ltrans27.ltrans.o
                0x0805ece0                APBAHBPrescTable
                0x0805ecf0                BitReverseTable256.lto_priv.197
 *(.rodata*)
 .rodata.str1.4
                0x0805edf0      0x15e C:\Users\PRESTO~1\AppData\Local\Temp\cc3x6Wri.ltrans0.ltrans.o
 *fill*         0x0805ef4e        0x2 
 .rodata.str1.4
                0x0805ef50     0x212f C:\Users\PRESTO~1\AppData\Local\Temp\cc3x6Wri.ltrans1.ltrans.o
                               0x2163 (size before relaxing)
 *fill*         0x0806107f        0x1 
 .rodata.str1.4
                0x08061080      0x239 C:\Users\PRESTO~1\AppData\Local\Temp\cc3x6Wri.ltrans2.ltrans.o
 *fill*         0x080612b9        0x3 
 .rodata.str1.4
                0x080612bc        0xc C:\Users\PRESTO~1\AppData\Local\Temp\cc3x6Wri.ltrans4.ltrans.o
                                 0x57 (size before relaxing)
 .rodata.str1.4
                0x080612c8      0x150 C:\Users\PRESTO~1\AppData\Local\Temp\cc3x6Wri.ltrans6.ltrans.o
                                0x158 (size before relaxing)
 .rodata.str1.4
                0x08061418      0x5c0 C:\Users\PRESTO~1\AppData\Local\Temp\cc3x6Wri.ltrans7.ltrans.o
                                0x5ec (size before relaxing)
 .rodata.str1.4
                0x080619d8       0x2c C:\Users\PRESTO~1\AppData\Local\Temp\cc3x6Wri.ltrans9.ltrans.o
                                 0xa4 (size before relaxing)
 .rodata.str1.4
                0x08061a04       0x36 C:\Users\PRESTO~1\AppData\Local\Temp\cc3x6Wri.ltrans12.ltrans.o
 *fill*         0x08061a3a        0x2 
 .rodata.str1.4
                0x08061a3c       0x8f C:\Users\PRESTO~1\AppData\Local\Temp\cc3x6Wri.ltrans13.ltrans.o
                                 0xcb (size before relaxing)
 *fill*         0x08061acb        0x1 
 .rodata.str1.4
                0x08061acc       0x31 C:\Users\PRESTO~1\AppData\Local\Temp\cc3x6Wri.ltrans15.ltrans.o
 *fill*         0x08061afd        0x3 
 .rodata.str1.4
                0x08061b00       0xa7 C:\Users\PRESTO~1\AppData\Local\Temp\cc3x6Wri.ltrans20.ltrans.o
                                 0xaf (size before relaxing)
 *fill*         0x08061ba7        0x1 
 .rodata.str1.4
                0x08061ba8      0x195 C:\Users\PRESTO~1\AppData\Local\Temp\cc3x6Wri.ltrans22.ltrans.o
                                0x199 (size before relaxing)
 *fill*         0x08061d3d        0x3 
 .rodata.str1.4
                0x08061d40      0x223 C:\Users\PRESTO~1\AppData\Local\Temp\cc3x6Wri.ltrans26.ltrans.o
                                0x23b (size before relaxing)
 *fill*         0x08061f63        0x1 
 .rodata.str1.4
                0x08061f64       0x3b C:\Users\PRESTO~1\AppData\Local\Temp\cc3x6Wri.ltrans31.ltrans.o
                                 0x3f (size before relaxing)
 .rodata._setlocale_r.str1.1
                0x08061f9f        0x8 c:/dev/gcc-arm-none-eabi/bin/../lib/gcc/arm-none-eabi/6.3.1/../../../../arm-none-eabi/lib/thumb/v7e-m/fpv4-sp/hard\libc_nano.a(lib_a-locale.o)
                                  0x9 (size before relaxing)
 .rodata.str1.1
                0x08061fa7        0x2 c:/dev/gcc-arm-none-eabi/bin/../lib/gcc/arm-none-eabi/6.3.1/../../../../arm-none-eabi/lib/thumb/v7e-m/fpv4-sp/hard\libc_nano.a(lib_a-locale.o)
 .rodata._strtod_l.str1.1
                0x08061fa9        0xc c:/dev/gcc-arm-none-eabi/bin/../lib/gcc/arm-none-eabi/6.3.1/../../../../arm-none-eabi/lib/thumb/v7e-m/fpv4-sp/hard\libc_nano.a(lib_a-strtod.o)
 *fill*         0x08061fb5        0x3 
 .rodata.fpi.7252
                0x08061fb8       0x14 c:/dev/gcc-arm-none-eabi/bin/../lib/gcc/arm-none-eabi/6.3.1/../../../../arm-none-eabi/lib/thumb/v7e-m/fpv4-sp/hard\libc_nano.a(lib_a-strtod.o)
 .rodata.fpinan.7288
                0x08061fcc       0x14 c:/dev/gcc-arm-none-eabi/bin/../lib/gcc/arm-none-eabi/6.3.1/../../../../arm-none-eabi/lib/thumb/v7e-m/fpv4-sp/hard\libc_nano.a(lib_a-strtod.o)
 .rodata.tinytens
                0x08061fe0       0x28 c:/dev/gcc-arm-none-eabi/bin/../lib/gcc/arm-none-eabi/6.3.1/../../../../arm-none-eabi/lib/thumb/v7e-m/fpv4-sp/hard\libc_nano.a(lib_a-strtod.o)
 .rodata.__utoa.str1.1
                0x08062008       0x25 c:/dev/gcc-arm-none-eabi/bin/../lib/gcc/arm-none-eabi/6.3.1/../../../../arm-none-eabi/lib/thumb/v7e-m/fpv4-sp/hard\libc_nano.a(lib_a-utoa.o)
 .rodata._ctype_
                0x0806202d      0x101 c:/dev/gcc-arm-none-eabi/bin/../lib/gcc/arm-none-eabi/6.3.1/../../../../arm-none-eabi/lib/thumb/v7e-m/fpv4-sp/hard\libc_nano.a(lib_a-ctype_.o)
                0x0806202d                _ctype_
 *fill*         0x0806212e        0x2 
 .rodata.__mprec_bigtens
                0x08062130       0x28 c:/dev/gcc-arm-none-eabi/bin/../lib/gcc/arm-none-eabi/6.3.1/../../../../arm-none-eabi/lib/thumb/v7e-m/fpv4-sp/hard\libc_nano.a(lib_a-mprec.o)
                0x08062130                __mprec_bigtens
 .rodata.__mprec_tens
                0x08062158       0xc8 c:/dev/gcc-arm-none-eabi/bin/../lib/gcc/arm-none-eabi/6.3.1/../../../../arm-none-eabi/lib/thumb/v7e-m/fpv4-sp/hard\libc_nano.a(lib_a-mprec.o)
                0x08062158                __mprec_tens
 .rodata.p05.7170
                0x08062220        0xc c:/dev/gcc-arm-none-eabi/bin/../lib/gcc/arm-none-eabi/6.3.1/../../../../arm-none-eabi/lib/thumb/v7e-m/fpv4-sp/hard\libc_nano.a(lib_a-mprec.o)
 *fill*         0x0806222c        0x4 
 .rodata.TWO52  0x08062230       0x10 c:/dev/gcc-arm-none-eabi/bin/../lib/gcc/arm-none-eabi/6.3.1/../../../../arm-none-eabi/lib/thumb/v7e-m/fpv4-sp/hard\libm.a(lib_a-s_lrint.o)
 .rodata.TWO23  0x08062240        0x8 c:/dev/gcc-arm-none-eabi/bin/../lib/gcc/arm-none-eabi/6.3.1/../../../../arm-none-eabi/lib/thumb/v7e-m/fpv4-sp/hard\libm.a(lib_a-sf_lrint.o)
 .rodata.pow.str1.4
                0x08062248        0x4 c:/dev/gcc-arm-none-eabi/bin/../lib/gcc/arm-none-eabi/6.3.1/../../../../arm-none-eabi/lib/thumb/v7e-m/fpv4-sp/hard\libm.a(lib_a-w_pow.o)
 .rodata.sqrtf.str1.4
                0x0806224c        0x8 c:/dev/gcc-arm-none-eabi/bin/../lib/gcc/arm-none-eabi/6.3.1/../../../../arm-none-eabi/lib/thumb/v7e-m/fpv4-sp/hard\libm.a(lib_a-wf_sqrt.o)
                                  0x6 (size before relaxing)
 .rodata.__ieee754_pow.str1.4
                0x08062254        0x1 c:/dev/gcc-arm-none-eabi/bin/../lib/gcc/arm-none-eabi/6.3.1/../../../../arm-none-eabi/lib/thumb/v7e-m/fpv4-sp/hard\libm.a(lib_a-e_pow.o)
 .rodata.npio2_hw
                0x08062254       0x80 c:/dev/gcc-arm-none-eabi/bin/../lib/gcc/arm-none-eabi/6.3.1/../../../../arm-none-eabi/lib/thumb/v7e-m/fpv4-sp/hard\libm.a(lib_a-ef_rem_pio2.o)
 .rodata.two_over_pi
                0x080622d4      0x318 c:/dev/gcc-arm-none-eabi/bin/../lib/gcc/arm-none-eabi/6.3.1/../../../../arm-none-eabi/lib/thumb/v7e-m/fpv4-sp/hard\libm.a(lib_a-ef_rem_pio2.o)
 .rodata.PIo2   0x080625ec       0x2c c:/dev/gcc-arm-none-eabi/bin/../lib/gcc/arm-none-eabi/6.3.1/../../../../arm-none-eabi/lib/thumb/v7e-m/fpv4-sp/hard\libm.a(lib_a-kf_rem_pio2.o)
 .rodata.init_jk
                0x08062618        0xc c:/dev/gcc-arm-none-eabi/bin/../lib/gcc/arm-none-eabi/6.3.1/../../../../arm-none-eabi/lib/thumb/v7e-m/fpv4-sp/hard\libm.a(lib_a-kf_rem_pio2.o)
 *fill*         0x08062624        0x4 
 .rodata.TWO52  0x08062628       0x10 c:/dev/gcc-arm-none-eabi/bin/../lib/gcc/arm-none-eabi/6.3.1/../../../../arm-none-eabi/lib/thumb/v7e-m/fpv4-sp/hard\libm.a(lib_a-s_rint.o)
 .rodata._svfprintf_r.str1.1
                0x08062638       0x11 c:/dev/gcc-arm-none-eabi/bin/../lib/gcc/arm-none-eabi/6.3.1/../../../../arm-none-eabi/lib/thumb/v7e-m/fpv4-sp/hard\libc_nano.a(lib_a-nano-svfprintf.o)
 .rodata._printf_i.str1.1
                0x08062649       0x22 c:/dev/gcc-arm-none-eabi/bin/../lib/gcc/arm-none-eabi/6.3.1/../../../../arm-none-eabi/lib/thumb/v7e-m/fpv4-sp/hard\libc_nano.a(lib_a-nano-vfprintf_i.o)
 *(.glue_7)
 .glue_7        0x0806266b        0x0 linker stubs
 *(.glue_7t)
 .glue_7t       0x0806266b        0x0 linker stubs
 *(.eh_frame)
 *(.init)
 *(.fini)
                0x0806266c                . = ALIGN (0x4)
 *fill*         0x0806266b        0x1 
                0x0806266c                _etext = .

.vfp11_veneer   0x0806266c        0x0
 .vfp11_veneer  0x0806266c        0x0 linker stubs

.v4_bx          0x0806266c        0x0
 .v4_bx         0x0806266c        0x0 linker stubs

.iplt           0x0806266c        0x0
 .iplt          0x0806266c        0x0 output\REVOLT\startup_stm32f405xx.o

.rel.dyn        0x0806266c        0x0
 .rel.iplt      0x0806266c        0x0 output\REVOLT\startup_stm32f405xx.o

.ARM.extab
 *(.ARM.extab* .gnu.linkonce.armextab.*)

.ARM            0x0806266c        0x0
                0x0806266c                __exidx_start = .
 *(.ARM.exidx*)
                0x0806266c                __exidx_end = .

.preinit_array  0x0806266c        0x0
                [!provide]                PROVIDE (__preinit_array_start, .)
 *(.preinit_array*)
                [!provide]                PROVIDE (__preinit_array_end, .)

.init_array     0x0806266c        0x0
                [!provide]                PROVIDE (__init_array_start, .)
 *(SORT(.init_array.*))
 *(.init_array*)
                [!provide]                PROVIDE (__init_array_end, .)

.fini_array     0x0806266c        0x0
                [!provide]                PROVIDE (__fini_array_start, .)
 *(.fini_array*)
 *(SORT(.fini_array.*))
                [!provide]                PROVIDE (__fini_array_end, .)
                0x0806266c                _sidata = .

.istack         0x20000000        0x0
                0x20000000                . = ALIGN (0x4)
                0x20000000                _irq_stack_end = .
 *(.irqstack)
                0x20000000                _irq_stack_top = .

.data           0x20000000      0x700 load address 0x0806266c
                0x20000000                . = ALIGN (0x4)
                0x20000000                _sdata = .
 *(.data)
 .data          0x20000000       0x10 C:\Users\PRESTO~1\AppData\Local\Temp\cc3x6Wri.ltrans1.ltrans.o
                0x20000004                gyroCalibrationCycles
                0x20000008                julian
                0x2000000c                telemEnabled
 .data          0x20000010        0x4 C:\Users\PRESTO~1\AppData\Local\Temp\cc3x6Wri.ltrans2.ltrans.o
 .data          0x20000014      0x14c C:\Users\PRESTO~1\AppData\Local\Temp\cc3x6Wri.ltrans3.ltrans.o
 .data          0x20000160      0x214 C:\Users\PRESTO~1\AppData\Local\Temp\cc3x6Wri.ltrans4.ltrans.o
                0x20000160                packetTime.lto_priv.217
                0x20000168                activeMotorCounter
                0x2000016c                motorMixer
                0x2000026c                motorMixerT
                0x20000370                packetTimeInv.lto_priv.218
 .data          0x20000374       0x69 C:\Users\PRESTO~1\AppData\Local\Temp\cc3x6Wri.ltrans6.ltrans.o
 *fill*         0x200003dd        0x3 
 .data          0x200003e0        0x8 C:\Users\PRESTO~1\AppData\Local\Temp\cc3x6Wri.ltrans8.ltrans.o
 .data          0x200003e8       0x30 C:\Users\PRESTO~1\AppData\Local\Temp\cc3x6Wri.ltrans10.ltrans.o
                0x20000414                matrixFormed.lto_priv.274
 .data          0x20000418       0x69 C:\Users\PRESTO~1\AppData\Local\Temp\cc3x6Wri.ltrans12.ltrans.o
 *fill*         0x20000481        0x3 
 .data          0x20000484        0x8 C:\Users\PRESTO~1\AppData\Local\Temp\cc3x6Wri.ltrans16.ltrans.o
                0x20000484                updateInterval.lto_priv.250
 .data          0x2000048c        0x4 C:\Users\PRESTO~1\AppData\Local\Temp\cc3x6Wri.ltrans21.ltrans.o
                0x2000048c                ppmPin
 .data          0x20000490        0x4 C:\Users\PRESTO~1\AppData\Local\Temp\cc3x6Wri.ltrans23.ltrans.o
                0x20000490                skipGyro
 .data          0x20000494        0x4 C:\Users\PRESTO~1\AppData\Local\Temp\cc3x6Wri.ltrans25.ltrans.o
                0x20000494                veryFirstArm
 .data          0x20000498        0x4 C:\Users\PRESTO~1\AppData\Local\Temp\cc3x6Wri.ltrans28.ltrans.o
                0x20000498                SystemCoreClock
 .data          0x2000049c       0x90 C:\Users\PRESTO~1\AppData\Local\Temp\cc3x6Wri.ltrans31.ltrans.o
 *(.data*)
 .data.__global_locale
                0x2000052c      0x16c c:/dev/gcc-arm-none-eabi/bin/../lib/gcc/arm-none-eabi/6.3.1/../../../../arm-none-eabi/lib/thumb/v7e-m/fpv4-sp/hard\libc_nano.a(lib_a-locale.o)
                0x2000052c                __global_locale
 .data._impure_ptr
                0x20000698        0x4 c:/dev/gcc-arm-none-eabi/bin/../lib/gcc/arm-none-eabi/6.3.1/../../../../arm-none-eabi/lib/thumb/v7e-m/fpv4-sp/hard\libc_nano.a(lib_a-impure.o)
                0x20000698                _impure_ptr
 .data.impure_data
                0x2000069c       0x60 c:/dev/gcc-arm-none-eabi/bin/../lib/gcc/arm-none-eabi/6.3.1/../../../../arm-none-eabi/lib/thumb/v7e-m/fpv4-sp/hard\libc_nano.a(lib_a-impure.o)
 .data.__fdlib_version
                0x200006fc        0x1 c:/dev/gcc-arm-none-eabi/bin/../lib/gcc/arm-none-eabi/6.3.1/../../../../arm-none-eabi/lib/thumb/v7e-m/fpv4-sp/hard\libm.a(lib_a-s_lib_ver.o)
                0x200006fc                __fdlib_version
                0x20000700                . = ALIGN (0x4)
 *fill*         0x200006fd        0x3 
                0x20000700                _edata = .

.igot.plt       0x20000700        0x0 load address 0x08062d6c
 .igot.plt      0x20000700        0x0 output\REVOLT\startup_stm32f405xx.o
                0x20000700                . = ALIGN (0x4)

.bss            0x20000700    0x17a68 load address 0x08062d6c
                0x20000700                _sbss = .
                0x20000700                __bss_start__ = _sbss
 *(.bss)
 .bss           0x20000700      0x3a7 C:\Users\PRESTO~1\AppData\Local\Temp\cc3x6Wri.ltrans0.ltrans.o
 *fill*         0x20000aa7        0x1 
 .bss           0x20000aa8     0x2664 C:\Users\PRESTO~1\AppData\Local\Temp\cc3x6Wri.ltrans1.ltrans.o
                0x20000aa8                tOutBuffer
                0x20000ae8                rfCustomReplyBufferPointerSent
                0x20000af0                adcVoltage
                0x20000af4                adcMAh
                0x20000af8                adcCurrent
                0x20000afc                dshotCommandHandler
                0x20000b10                taskDshotActuators
                0x20000b14                taskIdleActuators
                0x20000b34                activeModes
                0x20000b38                errorMask
                0x20000b3c                deviceWhoAmI
                0x20000b40                failsafeHappend
                0x20000b44                armingStructure
                0x20000b70                configSize
                0x20000b74                rxDataRaw
                0x20000bb4                rxData
                0x20000bf4                trueRcCommandF
                0x20000c34                gyroSum.lto_priv.219
                0x20000c40                pitchAttitude
                0x20000c44                rollAttitude
                0x20000c48                yawAttitude
                0x20000c4c                filteredAccData
                0x20000c58                filteredGyroData
                0x20000c64                attitudeFrameQuat
                0x20000c74                progMode
                0x20000c78                vtxRecord
                0x20000c9c                vtxRequested
                0x20000cc8                taskDdsActuators
                0x20000ccc                geeForceAccArray
                0x20000cd8                usbStarted
                0x20000cdc                hUsbDeviceFS
                0x20000f00                learnedKiModel
                0x20000f18                logMe
                0x20000f1c                throttleLookupKp
                0x20001f1c                throttleLookup
                0x20002f1c                kiTrim
                0x20002f28                wizardStatus
                0x20002f38                bind
                0x20002f4c                spektrumTxBuffer
                0x20002f8c                uartHandles
 .bss           0x2000310c      0x248 C:\Users\PRESTO~1\AppData\Local\Temp\cc3x6Wri.ltrans2.ltrans.o
                0x2000327c                adcHandle
 .bss           0x20003354      0x138 C:\Users\PRESTO~1\AppData\Local\Temp\cc3x6Wri.ltrans3.ltrans.o
                0x20003358                adcInstance
                0x20003390                adcDmaBuffer
                0x20003478                safeLoopCounter
 .bss           0x2000348c     0x345c C:\Users\PRESTO~1\AppData\Local\Temp\cc3x6Wri.ltrans4.ltrans.o
                0x2000348c                ledStatus
                0x20003498                commandQuat
                0x200034a8                pafGyroStates
                0x20003514                lpfFilterState
                0x20003580                averagedGyroDataPointerMultiplier
                0x2000358c                averagedGyroData
                0x20003718                dpsGyroArray
                0x20003724                averagedGyroDataPointer
                0x20003730                loopSpeed
                0x20003764                usedGa
                0x20003774                smoothedRcCommandF
                0x200037b4                curvedRcCommandF
                0x200037f4                trueCurvedThrottle0_1
                0x200037fc                isRxDataNew
                0x2000382c                maxFlopRate
                0x20003838                maxKissRate
                0x20003850                timeSinceSelfLevelActivated
                0x20003854                slpUsed
                0x20003858                sliUsed
                0x2000385c                sldUsed
                0x20003880                fullKiLatched
                0x20003884                actuatorRange
                0x2000388c                uhOhRecover
                0x20003890                kdRingBufferPoint
                0x2000389c                kdRingBufferSum
                0x2000392c                kdBqFilterState
                0x20003998                flightPids
                0x200039bc                kdDelta
                0x200039d4                pidsUsed
                0x20003a64                kiErrorLimit
                0x20003a88                throttleVelocity
                0x20003a98                kdRingBuffer
                0x20004698                originalKd
                0x200046a4                PreArmFilterCheck
                0x200046ac                throttleLookupKd
                0x200056ac                throttleLookupKi
                0x200066b4                setModes
                0x200066b8                LoggingEnabled
                0x200066c4                flashCountdownFake
                0x200066c8                firstLogging
                0x200066cc                logItteration
                0x200066d0                logTime
                0x200066dc                bbValues
                0x20006764                logItterationCounter
                0x20006768                usedSkunk
                0x2000676c                lastFlightPids
                0x20006790                currFlightPids
                0x200067b4                lastFlightSetPoints
                0x200067c0                currFlightSetPoints
                0x200067cc                lastFilteredGyroData
                0x200067d8                currFilteredGyroData
                0x200067e4                currFilteredAccData
                0x200067f0                lastFilteredAccData
                0x200067fc                currMotorOutput
                0x2000680c                lastMotorOutput
                0x20006818                lastDpsGyroArray
                0x20006824                currRcCommandF
                0x20006834                rx_timeout
                0x20006838                armedTime
                0x2000683c                kiTrimCounter
                0x20006840                geeForceZ
                0x20006844                motorTrimCounter
                0x20006848                motorTrimHasHappened
                0x20006880                activeFailsafe
                0x20006884                buzzerStatus
                0x20006898                armedTimeSincePower
                0x2000689c                bootDirection
                0x200068a0                bootCycles
                0x200068a4                rebootAddress
                0x200068a8                rfblVersion
                0x200068ac                cfg1Version
                0x200068bc                geeForceZFilter
                0x200068e4                logStartMillis
 .bss           0x200068e8      0x152 C:\Users\PRESTO~1\AppData\Local\Temp\cc3x6Wri.ltrans6.ltrans.o
                0x200068ec                telemetry
                0x20006910                sensorData
                0x20006930                pidSpektrumTelem
 *fill*         0x20006a3a        0x2 
 .bss           0x20006a3c      0x206 C:\Users\PRESTO~1\AppData\Local\Temp\cc3x6Wri.ltrans7.ltrans.o
                0x20006a40                oneWireActive
 *fill*         0x20006c42        0x2 
 .bss           0x20006c44       0x96 C:\Users\PRESTO~1\AppData\Local\Temp\cc3x6Wri.ltrans8.ltrans.o
                0x20006cbc                sendSpektrumTelemtryAt
                0x20006cc4                sendCrsfTelemtryAt
                0x20006cd0                telemtryRxBuffer
 *fill*         0x20006cda        0x2 
 .bss           0x20006cdc       0x3c C:\Users\PRESTO~1\AppData\Local\Temp\cc3x6Wri.ltrans9.ltrans.o
                0x20006d10                dshotBeepState
 .bss           0x20006d18       0x69 C:\Users\PRESTO~1\AppData\Local\Temp\cc3x6Wri.ltrans10.ltrans.o
                0x20006d3c                trampIoBuffer.lto_priv.231
                0x20006d4c                trampInfo
 *fill*         0x20006d81        0x3 
 .bss           0x20006d84     0x2994 C:\Users\PRESTO~1\AppData\Local\Temp\cc3x6Wri.ltrans11.ltrans.o
                0x20006d84                callbackFunctionArray
                0x20006e18                timers
                0x20006e50                schedulerTimer
                0x20006e8c                softSerialRecord
                0x20006ebc                softSerialTimer
                0x20006ef8                sendingData
                0x20006efc                smartAudioTxRxBuffer
                0x20006f08                SKIP_GYRO
                0x20006f0c                softSerialRxTimerBufferIdx
                0x20006f10                millisClock.lto_priv.201
                0x20006f14                systemUsTicks
                0x20006f18                softSerialRxTimerBuffer
 .bss           0x20009718      0x244 C:\Users\PRESTO~1\AppData\Local\Temp\cc3x6Wri.ltrans12.ltrans.o
                0x20009918                USB_Rx_Buffer
 .bss           0x2000995c     0x5dec C:\Users\PRESTO~1\AppData\Local\Temp\cc3x6Wri.ltrans13.ltrans.o
                0x2000995c                txBuffer
                0x20009bb4                rxBuffer
                0x20009e0c                spiHandles
                0x2000a01c                maxOsdRecord
                0x2000a3f4                boardArmed
                0x2000a3f8                resetBoard
                0x2000a410                timeInBufferIdx
                0x2000a414                timeInBuffer
                0x2000cc14                softSerialStatus
                0x2000cca0                serialInBufferIdx
                0x2000cca4                serialInBuffer
                0x2000cda4                oneWireInBuffer
                0x2000cea8                flashInfo
                0x2000d2fc                persistance
                0x2000d3d8                rf_custom_out_buffer
                0x2000d418                rfCustomReplyBufferPointer
                0x2000d41c                rfCustomSendBuffer
 .bss           0x2000f748      0x2c4 C:\Users\PRESTO~1\AppData\Local\Temp\cc3x6Wri.ltrans14.ltrans.o
                0x2000f748                sbusActuator
                0x2000f7a8                noiseCounter
                0x2000f7ac                telemtryRxTimerBufferIdx
                0x2000f7b0                telemtryRxTimerBuffer
                0x2000f940                sPortTelemCount.lto_priv.234
                0x2000f944                charMatrix
                0x2000f9d4                programStatus
 .bss           0x2000fa0c       0x45 C:\Users\PRESTO~1\AppData\Local\Temp\cc3x6Wri.ltrans15.ltrans.o
 *fill*         0x2000fa51        0x3 
 .bss           0x2000fa54     0x111c C:\Users\PRESTO~1\AppData\Local\Temp\cc3x6Wri.ltrans16.ltrans.o
                0x2000fc18                rgbArray
                0x2000fcd8                redTemp
                0x2000fcd9                greenTemp
                0x2000fcda                blueTemp
                0x2000fcdc                escOneWireStatus
                0x20010b6c                oneWireHasRun
 .bss           0x20010b70        0x8 C:\Users\PRESTO~1\AppData\Local\Temp\cc3x6Wri.ltrans17.ltrans.o
 .bss           0x20010b78        0x4 C:\Users\PRESTO~1\AppData\Local\Temp\cc3x6Wri.ltrans18.ltrans.o
                0x20010b78                persistanceWrites
 .bss           0x20010b7c       0x64 C:\Users\PRESTO~1\AppData\Local\Temp\cc3x6Wri.ltrans19.ltrans.o
                0x20010b80                gyroVector
                0x20010b8c                accBodyVector
                0x20010b98                accWorldVector
                0x20010ba4                verticalVector
                0x20010bb0                errorWorldVector
                0x20010bbc                errorBodyVector
                0x20010bc8                gyroQuat
 .bss           0x20010be0      0x114 C:\Users\PRESTO~1\AppData\Local\Temp\cc3x6Wri.ltrans20.ltrans.o
                0x20010be0                oneWireOutBuffer
                0x20010ce4                oneWireInBufferIdx
                0x20010ce8                doingAutoA
                0x20010cec                averageVoltage
                0x20010cf0                lastTimeRun.16379.lto_priv.249
 .bss           0x20010cf4      0xa0a C:\Users\PRESTO~1\AppData\Local\Temp\cc3x6Wri.ltrans21.ltrans.o
                0x20010f08                serialRxBuffer
                0x20011088                usarts
                0x200110b8                dmaHandles
                0x200116b8                dmaStream
                0x200116f8                dmaRxBuffer
 *fill*         0x200116fe        0x2 
 .bss           0x20011700       0x14 C:\Users\PRESTO~1\AppData\Local\Temp\cc3x6Wri.ltrans22.ltrans.o
                0x20011704                luaOutPacketOne
                0x20011708                luaOutPacketTwo
                0x20011710                lastTimeSent
 .bss           0x20011714       0x70 C:\Users\PRESTO~1\AppData\Local\Temp\cc3x6Wri.ltrans23.ltrans.o
                0x20011714                gyroRxFrame.lto_priv.246
                0x2001173c                accelUpdate.lto_priv.245
                0x2001174c                gyroInterrupting
                0x20011750                gyroLoopCounter.16317.lto_priv.243
                0x20011754                gyroConfig
                0x2001175c                gyroTxFrame.lto_priv.244
                0x2001176c                spiInstance
 .bss           0x20011784       0x6c C:\Users\PRESTO~1\AppData\Local\Temp\cc3x6Wri.ltrans24.ltrans.o
                0x2001178c                ws2812LedRecord
 .bss           0x200117f0      0x2d4 C:\Users\PRESTO~1\AppData\Local\Temp\cc3x6Wri.ltrans25.ltrans.o
                0x200117f0                throttleIsSafe
                0x200117f4                rxUpdateCount
                0x200117fc                rxCalibrationRecords.lto_priv.271
                0x20011a48                latchFirstArm
                0x20011a4c                turnOnVtxNow
                0x20011a54                armBoardAt
                0x20011a5c                ppmBufferIdx
                0x20011a60                ppmBuffer
 .bss           0x20011ac4      0x1e4 C:\Users\PRESTO~1\AppData\Local\Temp\cc3x6Wri.ltrans26.ltrans.o
 .bss           0x20011ca8     0x5f6c C:\Users\PRESTO~1\AppData\Local\Temp\cc3x6Wri.ltrans27.ltrans.o
                0x20011ca8                longMotorOutputBuffer
                0x20013418                tempBuffer
                0x200139f4                motorOutputBuffer
                0x20014cb4                normalPulseWidth
                0x20014cf8                alonePulseWidth
                0x20014d3c                endPulseWidth
                0x20014d80                loPulseWidth
                0x20014dc4                pwmTimers
                0x20015184                quopaState
                0x20015188                mainConfig
                0x20015ea8                board
                0x20017be8                ports
 .bss           0x20017c14      0x3dc C:\Users\PRESTO~1\AppData\Local\Temp\cc3x6Wri.ltrans28.ltrans.o
                0x20017c14                hpcd_USB_OTG_FS
                0x20017fcc                pFlash
                0x20017fec                uwTick
 .bss           0x20017ff0      0x168 C:\Users\PRESTO~1\AppData\Local\Temp\cc3x6Wri.ltrans29.ltrans.o
                0x20017ff0                activeProfile
                0x20017ff4                motorOutput
                0x20018014                previousMotorOutput
                0x20018034                usedEscProtocol
                0x20018038                calibrateMotors
                0x2001803c                ccr
                0x2001811c                calibratePulseValue
                0x20018120                calibrateWalledPulseValue
                0x20018124                disarmPulseValue3d
                0x20018128                disarmPulseValue
                0x2001812c                pulseValueRange
                0x20018130                idlePulseValue
                0x20018134                threeDeeMode
                0x20018138                servoOutput
 *(.bss*)
 .bss.__malloc_free_list
                0x20018158        0x4 c:/dev/gcc-arm-none-eabi/bin/../lib/gcc/arm-none-eabi/6.3.1/../../../../arm-none-eabi/lib/thumb/v7e-m/fpv4-sp/hard\libc_nano.a(lib_a-nano-mallocr.o)
                0x20018158                __malloc_free_list
 .bss.__malloc_sbrk_start
                0x2001815c        0x4 c:/dev/gcc-arm-none-eabi/bin/../lib/gcc/arm-none-eabi/6.3.1/../../../../arm-none-eabi/lib/thumb/v7e-m/fpv4-sp/hard\libc_nano.a(lib_a-nano-mallocr.o)
                0x2001815c                __malloc_sbrk_start
 .bss.heap_end.5239
                0x20018160        0x4 c:/dev/gcc-arm-none-eabi/bin/../lib/gcc/arm-none-eabi/6.3.1/../../../../arm-none-eabi/lib/thumb/v7e-m/fpv4-sp/hard\libnosys.a(sbrk.o)
 *(COMMON)
 COMMON         0x20018164        0x4 c:/dev/gcc-arm-none-eabi/bin/../lib/gcc/arm-none-eabi/6.3.1/../../../../arm-none-eabi/lib/thumb/v7e-m/fpv4-sp/hard\libc_nano.a(lib_a-reent.o)
                0x20018164                errno
                0x20018168                . = ALIGN (0x4)
                0x20018168                _ebss = .
                0x20018168                __bss_end__ = _ebss

._user_heap_stack
                0x20018168      0x400 load address 0x08062d6c
                0x20018168                . = ALIGN (0x4)
                0x20018168                PROVIDE (end, .)
                [!provide]                PROVIDE (_end, .)
                0x20018168                . = (. + _Min_Heap_Size)
                0x20018568                . = (. + _Min_Stack_Size)
 *fill*         0x20018168      0x400 
                0x20018568                . = ALIGN (0x4)

.memory_b1_text
 *(.mb1text)
 *(.mb1text*)
 *(.mb1rodata)
 *(.mb1rodata*)

/DISCARD/
 libc.a(*)
 libm.a(*)
 libgcc.a(*)

.ARM.attributes
                0x00000000       0x37
 *(.ARM.attributes)
 .ARM.attributes
                0x00000000       0x37 C:\Users\PRESTO~1\AppData\Local\Temp\cc3x6Wri.ltrans0.ltrans.o
 .ARM.attributes
                0x00000037       0x37 C:\Users\PRESTO~1\AppData\Local\Temp\cc3x6Wri.ltrans1.ltrans.o
 .ARM.attributes
                0x0000006e       0x37 C:\Users\PRESTO~1\AppData\Local\Temp\cc3x6Wri.ltrans2.ltrans.o
 .ARM.attributes
                0x000000a5       0x37 C:\Users\PRESTO~1\AppData\Local\Temp\cc3x6Wri.ltrans3.ltrans.o
 .ARM.attributes
                0x000000dc       0x37 C:\Users\PRESTO~1\AppData\Local\Temp\cc3x6Wri.ltrans4.ltrans.o
 .ARM.attributes
                0x00000113       0x37 C:\Users\PRESTO~1\AppData\Local\Temp\cc3x6Wri.ltrans5.ltrans.o
 .ARM.attributes
                0x0000014a       0x37 C:\Users\PRESTO~1\AppData\Local\Temp\cc3x6Wri.ltrans6.ltrans.o
 .ARM.attributes
                0x00000181       0x37 C:\Users\PRESTO~1\AppData\Local\Temp\cc3x6Wri.ltrans7.ltrans.o
 .ARM.attributes
                0x000001b8       0x37 C:\Users\PRESTO~1\AppData\Local\Temp\cc3x6Wri.ltrans8.ltrans.o
 .ARM.attributes
                0x000001ef       0x37 C:\Users\PRESTO~1\AppData\Local\Temp\cc3x6Wri.ltrans9.ltrans.o
 .ARM.attributes
                0x00000226       0x37 C:\Users\PRESTO~1\AppData\Local\Temp\cc3x6Wri.ltrans10.ltrans.o
 .ARM.attributes
                0x0000025d       0x37 C:\Users\PRESTO~1\AppData\Local\Temp\cc3x6Wri.ltrans11.ltrans.o
 .ARM.attributes
                0x00000294       0x37 C:\Users\PRESTO~1\AppData\Local\Temp\cc3x6Wri.ltrans12.ltrans.o
 .ARM.attributes
                0x000002cb       0x37 C:\Users\PRESTO~1\AppData\Local\Temp\cc3x6Wri.ltrans13.ltrans.o
 .ARM.attributes
                0x00000302       0x37 C:\Users\PRESTO~1\AppData\Local\Temp\cc3x6Wri.ltrans14.ltrans.o
 .ARM.attributes
                0x00000339       0x37 C:\Users\PRESTO~1\AppData\Local\Temp\cc3x6Wri.ltrans15.ltrans.o
 .ARM.attributes
                0x00000370       0x37 C:\Users\PRESTO~1\AppData\Local\Temp\cc3x6Wri.ltrans16.ltrans.o
 .ARM.attributes
                0x000003a7       0x37 C:\Users\PRESTO~1\AppData\Local\Temp\cc3x6Wri.ltrans17.ltrans.o
 .ARM.attributes
                0x000003de       0x37 C:\Users\PRESTO~1\AppData\Local\Temp\cc3x6Wri.ltrans18.ltrans.o
 .ARM.attributes
                0x00000415       0x37 C:\Users\PRESTO~1\AppData\Local\Temp\cc3x6Wri.ltrans19.ltrans.o
 .ARM.attributes
                0x0000044c       0x37 C:\Users\PRESTO~1\AppData\Local\Temp\cc3x6Wri.ltrans20.ltrans.o
 .ARM.attributes
                0x00000483       0x37 C:\Users\PRESTO~1\AppData\Local\Temp\cc3x6Wri.ltrans21.ltrans.o
 .ARM.attributes
                0x000004ba       0x37 C:\Users\PRESTO~1\AppData\Local\Temp\cc3x6Wri.ltrans22.ltrans.o
 .ARM.attributes
                0x000004f1       0x37 C:\Users\PRESTO~1\AppData\Local\Temp\cc3x6Wri.ltrans23.ltrans.o
 .ARM.attributes
                0x00000528       0x37 C:\Users\PRESTO~1\AppData\Local\Temp\cc3x6Wri.ltrans24.ltrans.o
 .ARM.attributes
                0x0000055f       0x37 C:\Users\PRESTO~1\AppData\Local\Temp\cc3x6Wri.ltrans25.ltrans.o
 .ARM.attributes
                0x00000596       0x37 C:\Users\PRESTO~1\AppData\Local\Temp\cc3x6Wri.ltrans26.ltrans.o
 .ARM.attributes
                0x000005cd       0x37 C:\Users\PRESTO~1\AppData\Local\Temp\cc3x6Wri.ltrans27.ltrans.o
 .ARM.attributes
                0x00000604       0x37 C:\Users\PRESTO~1\AppData\Local\Temp\cc3x6Wri.ltrans28.ltrans.o
 .ARM.attributes
                0x0000063b       0x37 C:\Users\PRESTO~1\AppData\Local\Temp\cc3x6Wri.ltrans29.ltrans.o
 .ARM.attributes
                0x00000672       0x37 C:\Users\PRESTO~1\AppData\Local\Temp\cc3x6Wri.ltrans30.ltrans.o
 .ARM.attributes
                0x000006a9       0x37 C:\Users\PRESTO~1\AppData\Local\Temp\cc3x6Wri.ltrans31.ltrans.o
 .ARM.attributes
                0x000006e0       0x21 output\REVOLT\startup_stm32f405xx.o
 .ARM.attributes
                0x00000701       0x34 c:/dev/gcc-arm-none-eabi/bin/../lib/gcc/arm-none-eabi/6.3.1/../../../../arm-none-eabi/lib/thumb/v7e-m/fpv4-sp/hard\libc_nano.a(lib_a-atof.o)
 .ARM.attributes
                0x00000735       0x34 c:/dev/gcc-arm-none-eabi/bin/../lib/gcc/arm-none-eabi/6.3.1/../../../../arm-none-eabi/lib/thumb/v7e-m/fpv4-sp/hard\libc_nano.a(lib_a-atoi.o)
 .ARM.attributes
                0x00000769       0x34 c:/dev/gcc-arm-none-eabi/bin/../lib/gcc/arm-none-eabi/6.3.1/../../../../arm-none-eabi/lib/thumb/v7e-m/fpv4-sp/hard\libc_nano.a(lib_a-itoa.o)
 .ARM.attributes
                0x0000079d       0x34 c:/dev/gcc-arm-none-eabi/bin/../lib/gcc/arm-none-eabi/6.3.1/../../../../arm-none-eabi/lib/thumb/v7e-m/fpv4-sp/hard\libc_nano.a(lib_a-locale.o)
 .ARM.attributes
                0x000007d1       0x34 c:/dev/gcc-arm-none-eabi/bin/../lib/gcc/arm-none-eabi/6.3.1/../../../../arm-none-eabi/lib/thumb/v7e-m/fpv4-sp/hard\libc_nano.a(lib_a-mbtowc_r.o)
 .ARM.attributes
                0x00000805       0x34 c:/dev/gcc-arm-none-eabi/bin/../lib/gcc/arm-none-eabi/6.3.1/../../../../arm-none-eabi/lib/thumb/v7e-m/fpv4-sp/hard\libc_nano.a(lib_a-rand.o)
 .ARM.attributes
                0x00000839       0x20 c:/dev/gcc-arm-none-eabi/bin/../lib/gcc/arm-none-eabi/6.3.1/../../../../arm-none-eabi/lib/thumb/v7e-m/fpv4-sp/hard\libc_nano.a(lib_a-strcmp.o)
 .ARM.attributes
                0x00000859       0x34 c:/dev/gcc-arm-none-eabi/bin/../lib/gcc/arm-none-eabi/6.3.1/../../../../arm-none-eabi/lib/thumb/v7e-m/fpv4-sp/hard\libc_nano.a(lib_a-strtod.o)
 .ARM.attributes
                0x0000088d       0x34 c:/dev/gcc-arm-none-eabi/bin/../lib/gcc/arm-none-eabi/6.3.1/../../../../arm-none-eabi/lib/thumb/v7e-m/fpv4-sp/hard\libc_nano.a(lib_a-strtol.o)
 .ARM.attributes
                0x000008c1       0x34 c:/dev/gcc-arm-none-eabi/bin/../lib/gcc/arm-none-eabi/6.3.1/../../../../arm-none-eabi/lib/thumb/v7e-m/fpv4-sp/hard\libc_nano.a(lib_a-utoa.o)
 .ARM.attributes
                0x000008f5       0x34 c:/dev/gcc-arm-none-eabi/bin/../lib/gcc/arm-none-eabi/6.3.1/../../../../arm-none-eabi/lib/thumb/v7e-m/fpv4-sp/hard\libc_nano.a(lib_a-wctomb_r.o)
 .ARM.attributes
                0x00000929       0x34 c:/dev/gcc-arm-none-eabi/bin/../lib/gcc/arm-none-eabi/6.3.1/../../../../arm-none-eabi/lib/thumb/v7e-m/fpv4-sp/hard\libc_nano.a(lib_a-ctype_.o)
 .ARM.attributes
                0x0000095d       0x34 c:/dev/gcc-arm-none-eabi/bin/../lib/gcc/arm-none-eabi/6.3.1/../../../../arm-none-eabi/lib/thumb/v7e-m/fpv4-sp/hard\libc_nano.a(lib_a-gdtoa-gethex.o)
 .ARM.attributes
                0x00000991       0x34 c:/dev/gcc-arm-none-eabi/bin/../lib/gcc/arm-none-eabi/6.3.1/../../../../arm-none-eabi/lib/thumb/v7e-m/fpv4-sp/hard\libc_nano.a(lib_a-gdtoa-hexnan.o)
 .ARM.attributes
                0x000009c5       0x34 c:/dev/gcc-arm-none-eabi/bin/../lib/gcc/arm-none-eabi/6.3.1/../../../../arm-none-eabi/lib/thumb/v7e-m/fpv4-sp/hard\libc_nano.a(lib_a-impure.o)
 .ARM.attributes
                0x000009f9       0x34 c:/dev/gcc-arm-none-eabi/bin/../lib/gcc/arm-none-eabi/6.3.1/../../../../arm-none-eabi/lib/thumb/v7e-m/fpv4-sp/hard\libc_nano.a(lib_a-localeconv.o)
 .ARM.attributes
                0x00000a2d       0x34 c:/dev/gcc-arm-none-eabi/bin/../lib/gcc/arm-none-eabi/6.3.1/../../../../arm-none-eabi/lib/thumb/v7e-m/fpv4-sp/hard\libc_nano.a(lib_a-malloc.o)
 .ARM.attributes
                0x00000a61       0x34 c:/dev/gcc-arm-none-eabi/bin/../lib/gcc/arm-none-eabi/6.3.1/../../../../arm-none-eabi/lib/thumb/v7e-m/fpv4-sp/hard\libc_nano.a(lib_a-memcpy-stub.o)
 .ARM.attributes
                0x00000a95       0x34 c:/dev/gcc-arm-none-eabi/bin/../lib/gcc/arm-none-eabi/6.3.1/../../../../arm-none-eabi/lib/thumb/v7e-m/fpv4-sp/hard\libc_nano.a(lib_a-mprec.o)
 .ARM.attributes
                0x00000ac9       0x34 c:/dev/gcc-arm-none-eabi/bin/../lib/gcc/arm-none-eabi/6.3.1/../../../../arm-none-eabi/lib/thumb/v7e-m/fpv4-sp/hard\libc_nano.a(lib_a-nano-callocr.o)
 .ARM.attributes
                0x00000afd       0x34 c:/dev/gcc-arm-none-eabi/bin/../lib/gcc/arm-none-eabi/6.3.1/../../../../arm-none-eabi/lib/thumb/v7e-m/fpv4-sp/hard\libc_nano.a(lib_a-nano-freer.o)
 .ARM.attributes
                0x00000b31       0x34 c:/dev/gcc-arm-none-eabi/bin/../lib/gcc/arm-none-eabi/6.3.1/../../../../arm-none-eabi/lib/thumb/v7e-m/fpv4-sp/hard\libc_nano.a(lib_a-nano-mallocr.o)
 .ARM.attributes
                0x00000b65       0x34 c:/dev/gcc-arm-none-eabi/bin/../lib/gcc/arm-none-eabi/6.3.1/../../../../arm-none-eabi/lib/thumb/v7e-m/fpv4-sp/hard\libc_nano.a(lib_a-sbrkr.o)
 .ARM.attributes
                0x00000b99       0x1b c:/dev/gcc-arm-none-eabi/bin/../lib/gcc/arm-none-eabi/6.3.1/../../../../arm-none-eabi/lib/thumb/v7e-m/fpv4-sp/hard\libc_nano.a(lib_a-strlen.o)
 .ARM.attributes
                0x00000bb4       0x34 c:/dev/gcc-arm-none-eabi/bin/../lib/gcc/arm-none-eabi/6.3.1/../../../../arm-none-eabi/lib/thumb/v7e-m/fpv4-sp/hard\libc_nano.a(lib_a-strncmp.o)
 .ARM.attributes
                0x00000be8       0x34 c:/dev/gcc-arm-none-eabi/bin/../lib/gcc/arm-none-eabi/6.3.1/../../../../arm-none-eabi/lib/thumb/v7e-m/fpv4-sp/hard\libc_nano.a(lib_a-memset.o)
 .ARM.attributes
                0x00000c1c       0x34 c:/dev/gcc-arm-none-eabi/bin/../lib/gcc/arm-none-eabi/6.3.1/../../../../arm-none-eabi/lib/thumb/v7e-m/fpv4-sp/hard\libc_nano.a(lib_a-mlock.o)
 .ARM.attributes
                0x00000c50       0x34 c:/dev/gcc-arm-none-eabi/bin/../lib/gcc/arm-none-eabi/6.3.1/../../../../arm-none-eabi/lib/thumb/v7e-m/fpv4-sp/hard\libc_nano.a(lib_a-reent.o)
 .ARM.attributes
                0x00000c84       0x34 c:/dev/gcc-arm-none-eabi/bin/../lib/gcc/arm-none-eabi/6.3.1/../../../../arm-none-eabi/lib/thumb/v7e-m/fpv4-sp/hard\libnosys.a(sbrk.o)
 .ARM.attributes
                0x00000cb8       0x22 c:/dev/gcc-arm-none-eabi/bin/../lib/gcc/arm-none-eabi/6.3.1/thumb/v7e-m/fpv4-sp/hard\libgcc.a(_arm_addsubdf3.o)
 .ARM.attributes
                0x00000cda       0x22 c:/dev/gcc-arm-none-eabi/bin/../lib/gcc/arm-none-eabi/6.3.1/thumb/v7e-m/fpv4-sp/hard\libgcc.a(_arm_muldivdf3.o)
 .ARM.attributes
                0x00000cfc       0x22 c:/dev/gcc-arm-none-eabi/bin/../lib/gcc/arm-none-eabi/6.3.1/thumb/v7e-m/fpv4-sp/hard\libgcc.a(_arm_cmpdf2.o)
 .ARM.attributes
                0x00000d1e       0x22 c:/dev/gcc-arm-none-eabi/bin/../lib/gcc/arm-none-eabi/6.3.1/thumb/v7e-m/fpv4-sp/hard\libgcc.a(_arm_unorddf2.o)
 .ARM.attributes
                0x00000d40       0x22 c:/dev/gcc-arm-none-eabi/bin/../lib/gcc/arm-none-eabi/6.3.1/thumb/v7e-m/fpv4-sp/hard\libgcc.a(_arm_fixdfsi.o)
 .ARM.attributes
                0x00000d62       0x22 c:/dev/gcc-arm-none-eabi/bin/../lib/gcc/arm-none-eabi/6.3.1/thumb/v7e-m/fpv4-sp/hard\libgcc.a(_arm_fixunsdfsi.o)
 .ARM.attributes
                0x00000d84       0x22 c:/dev/gcc-arm-none-eabi/bin/../lib/gcc/arm-none-eabi/6.3.1/thumb/v7e-m/fpv4-sp/hard\libgcc.a(_arm_truncdfsf2.o)
 .ARM.attributes
                0x00000da6       0x34 c:/dev/gcc-arm-none-eabi/bin/../lib/gcc/arm-none-eabi/6.3.1/../../../../arm-none-eabi/lib/thumb/v7e-m/fpv4-sp/hard\libm.a(lib_a-powl.o)
 .ARM.attributes
                0x00000dda       0x34 c:/dev/gcc-arm-none-eabi/bin/../lib/gcc/arm-none-eabi/6.3.1/../../../../arm-none-eabi/lib/thumb/v7e-m/fpv4-sp/hard\libm.a(lib_a-s_ceil.o)
 .ARM.attributes
                0x00000e0e       0x34 c:/dev/gcc-arm-none-eabi/bin/../lib/gcc/arm-none-eabi/6.3.1/../../../../arm-none-eabi/lib/thumb/v7e-m/fpv4-sp/hard\libm.a(lib_a-s_lrint.o)
 .ARM.attributes
                0x00000e42       0x34 c:/dev/gcc-arm-none-eabi/bin/../lib/gcc/arm-none-eabi/6.3.1/../../../../arm-none-eabi/lib/thumb/v7e-m/fpv4-sp/hard\libm.a(lib_a-s_round.o)
 .ARM.attributes
                0x00000e76       0x34 c:/dev/gcc-arm-none-eabi/bin/../lib/gcc/arm-none-eabi/6.3.1/../../../../arm-none-eabi/lib/thumb/v7e-m/fpv4-sp/hard\libm.a(lib_a-sf_cos.o)
 .ARM.attributes
                0x00000eaa       0x34 c:/dev/gcc-arm-none-eabi/bin/../lib/gcc/arm-none-eabi/6.3.1/../../../../arm-none-eabi/lib/thumb/v7e-m/fpv4-sp/hard\libm.a(lib_a-sf_lrint.o)
 .ARM.attributes
                0x00000ede       0x34 c:/dev/gcc-arm-none-eabi/bin/../lib/gcc/arm-none-eabi/6.3.1/../../../../arm-none-eabi/lib/thumb/v7e-m/fpv4-sp/hard\libm.a(lib_a-sf_sin.o)
 .ARM.attributes
                0x00000f12       0x34 c:/dev/gcc-arm-none-eabi/bin/../lib/gcc/arm-none-eabi/6.3.1/../../../../arm-none-eabi/lib/thumb/v7e-m/fpv4-sp/hard\libm.a(lib_a-w_pow.o)
 .ARM.attributes
                0x00000f46       0x34 c:/dev/gcc-arm-none-eabi/bin/../lib/gcc/arm-none-eabi/6.3.1/../../../../arm-none-eabi/lib/thumb/v7e-m/fpv4-sp/hard\libm.a(lib_a-wf_sqrt.o)
 .ARM.attributes
                0x00000f7a       0x34 c:/dev/gcc-arm-none-eabi/bin/../lib/gcc/arm-none-eabi/6.3.1/../../../../arm-none-eabi/lib/thumb/v7e-m/fpv4-sp/hard\libm.a(lib_a-e_pow.o)
 .ARM.attributes
                0x00000fae       0x34 c:/dev/gcc-arm-none-eabi/bin/../lib/gcc/arm-none-eabi/6.3.1/../../../../arm-none-eabi/lib/thumb/v7e-m/fpv4-sp/hard\libm.a(lib_a-e_sqrt.o)
 .ARM.attributes
                0x00000fe2       0x34 c:/dev/gcc-arm-none-eabi/bin/../lib/gcc/arm-none-eabi/6.3.1/../../../../arm-none-eabi/lib/thumb/v7e-m/fpv4-sp/hard\libm.a(lib_a-ef_rem_pio2.o)
 .ARM.attributes
                0x00001016       0x34 c:/dev/gcc-arm-none-eabi/bin/../lib/gcc/arm-none-eabi/6.3.1/../../../../arm-none-eabi/lib/thumb/v7e-m/fpv4-sp/hard\libm.a(lib_a-ef_sqrt.o)
 .ARM.attributes
                0x0000104a       0x34 c:/dev/gcc-arm-none-eabi/bin/../lib/gcc/arm-none-eabi/6.3.1/../../../../arm-none-eabi/lib/thumb/v7e-m/fpv4-sp/hard\libm.a(lib_a-kf_cos.o)
 .ARM.attributes
                0x0000107e       0x34 c:/dev/gcc-arm-none-eabi/bin/../lib/gcc/arm-none-eabi/6.3.1/../../../../arm-none-eabi/lib/thumb/v7e-m/fpv4-sp/hard\libm.a(lib_a-kf_rem_pio2.o)
 .ARM.attributes
                0x000010b2       0x34 c:/dev/gcc-arm-none-eabi/bin/../lib/gcc/arm-none-eabi/6.3.1/../../../../arm-none-eabi/lib/thumb/v7e-m/fpv4-sp/hard\libm.a(lib_a-kf_sin.o)
 .ARM.attributes
                0x000010e6       0x34 c:/dev/gcc-arm-none-eabi/bin/../lib/gcc/arm-none-eabi/6.3.1/../../../../arm-none-eabi/lib/thumb/v7e-m/fpv4-sp/hard\libm.a(lib_a-s_fabs.o)
 .ARM.attributes
                0x0000111a       0x34 c:/dev/gcc-arm-none-eabi/bin/../lib/gcc/arm-none-eabi/6.3.1/../../../../arm-none-eabi/lib/thumb/v7e-m/fpv4-sp/hard\libm.a(lib_a-s_finite.o)
 .ARM.attributes
                0x0000114e       0x34 c:/dev/gcc-arm-none-eabi/bin/../lib/gcc/arm-none-eabi/6.3.1/../../../../arm-none-eabi/lib/thumb/v7e-m/fpv4-sp/hard\libm.a(lib_a-s_lib_ver.o)
 .ARM.attributes
                0x00001182       0x34 c:/dev/gcc-arm-none-eabi/bin/../lib/gcc/arm-none-eabi/6.3.1/../../../../arm-none-eabi/lib/thumb/v7e-m/fpv4-sp/hard\libm.a(lib_a-s_matherr.o)
 .ARM.attributes
                0x000011b6       0x34 c:/dev/gcc-arm-none-eabi/bin/../lib/gcc/arm-none-eabi/6.3.1/../../../../arm-none-eabi/lib/thumb/v7e-m/fpv4-sp/hard\libm.a(lib_a-s_nan.o)
 .ARM.attributes
                0x000011ea       0x34 c:/dev/gcc-arm-none-eabi/bin/../lib/gcc/arm-none-eabi/6.3.1/../../../../arm-none-eabi/lib/thumb/v7e-m/fpv4-sp/hard\libm.a(lib_a-s_rint.o)
 .ARM.attributes
                0x0000121e       0x34 c:/dev/gcc-arm-none-eabi/bin/../lib/gcc/arm-none-eabi/6.3.1/../../../../arm-none-eabi/lib/thumb/v7e-m/fpv4-sp/hard\libm.a(lib_a-s_scalbn.o)
 .ARM.attributes
                0x00001252       0x34 c:/dev/gcc-arm-none-eabi/bin/../lib/gcc/arm-none-eabi/6.3.1/../../../../arm-none-eabi/lib/thumb/v7e-m/fpv4-sp/hard\libm.a(lib_a-sf_fabs.o)
 .ARM.attributes
                0x00001286       0x34 c:/dev/gcc-arm-none-eabi/bin/../lib/gcc/arm-none-eabi/6.3.1/../../../../arm-none-eabi/lib/thumb/v7e-m/fpv4-sp/hard\libm.a(lib_a-sf_floor.o)
 .ARM.attributes
                0x000012ba       0x34 c:/dev/gcc-arm-none-eabi/bin/../lib/gcc/arm-none-eabi/6.3.1/../../../../arm-none-eabi/lib/thumb/v7e-m/fpv4-sp/hard\libm.a(lib_a-sf_scalbn.o)
 .ARM.attributes
                0x000012ee       0x34 c:/dev/gcc-arm-none-eabi/bin/../lib/gcc/arm-none-eabi/6.3.1/../../../../arm-none-eabi/lib/thumb/v7e-m/fpv4-sp/hard\libm.a(lib_a-s_copysign.o)
 .ARM.attributes
                0x00001322       0x34 c:/dev/gcc-arm-none-eabi/bin/../lib/gcc/arm-none-eabi/6.3.1/../../../../arm-none-eabi/lib/thumb/v7e-m/fpv4-sp/hard\libm.a(lib_a-sf_copysign.o)
 .ARM.attributes
                0x00001356       0x34 c:/dev/gcc-arm-none-eabi/bin/../lib/gcc/arm-none-eabi/6.3.1/../../../../arm-none-eabi/lib/thumb/v7e-m/fpv4-sp/hard\libc_nano.a(lib_a-errno.o)
 .ARM.attributes
                0x0000138a       0x34 c:/dev/gcc-arm-none-eabi/bin/../lib/gcc/arm-none-eabi/6.3.1/../../../../arm-none-eabi/lib/thumb/v7e-m/fpv4-sp/hard\libc_nano.a(lib_a-snprintf.o)
 .ARM.attributes
                0x000013be       0x34 c:/dev/gcc-arm-none-eabi/bin/../lib/gcc/arm-none-eabi/6.3.1/../../../../arm-none-eabi/lib/thumb/v7e-m/fpv4-sp/hard\libc_nano.a(lib_a-sprintf.o)
 .ARM.attributes
                0x000013f2       0x34 c:/dev/gcc-arm-none-eabi/bin/../lib/gcc/arm-none-eabi/6.3.1/../../../../arm-none-eabi/lib/thumb/v7e-m/fpv4-sp/hard\libc_nano.a(lib_a-strcat.o)
 .ARM.attributes
                0x00001426       0x34 c:/dev/gcc-arm-none-eabi/bin/../lib/gcc/arm-none-eabi/6.3.1/../../../../arm-none-eabi/lib/thumb/v7e-m/fpv4-sp/hard\libc_nano.a(lib_a-strchr.o)
 .ARM.attributes
                0x0000145a       0x34 c:/dev/gcc-arm-none-eabi/bin/../lib/gcc/arm-none-eabi/6.3.1/../../../../arm-none-eabi/lib/thumb/v7e-m/fpv4-sp/hard\libc_nano.a(lib_a-strcpy.o)
 .ARM.attributes
                0x0000148e       0x34 c:/dev/gcc-arm-none-eabi/bin/../lib/gcc/arm-none-eabi/6.3.1/../../../../arm-none-eabi/lib/thumb/v7e-m/fpv4-sp/hard\libc_nano.a(lib_a-strncasecmp.o)
 .ARM.attributes
                0x000014c2       0x34 c:/dev/gcc-arm-none-eabi/bin/../lib/gcc/arm-none-eabi/6.3.1/../../../../arm-none-eabi/lib/thumb/v7e-m/fpv4-sp/hard\libc_nano.a(lib_a-strncpy.o)
 .ARM.attributes
                0x000014f6       0x34 c:/dev/gcc-arm-none-eabi/bin/../lib/gcc/arm-none-eabi/6.3.1/../../../../arm-none-eabi/lib/thumb/v7e-m/fpv4-sp/hard\libc_nano.a(lib_a-nano-svfprintf.o)
 .ARM.attributes
                0x0000152a       0x34 c:/dev/gcc-arm-none-eabi/bin/../lib/gcc/arm-none-eabi/6.3.1/../../../../arm-none-eabi/lib/thumb/v7e-m/fpv4-sp/hard\libc_nano.a(lib_a-nano-vfprintf_i.o)
 .ARM.attributes
                0x0000155e       0x20 c:/dev/gcc-arm-none-eabi/bin/../lib/gcc/arm-none-eabi/6.3.1/../../../../arm-none-eabi/lib/thumb/v7e-m/fpv4-sp/hard\libc_nano.a(lib_a-memchr.o)
 .ARM.attributes
                0x0000157e       0x34 c:/dev/gcc-arm-none-eabi/bin/../lib/gcc/arm-none-eabi/6.3.1/../../../../arm-none-eabi/lib/thumb/v7e-m/fpv4-sp/hard\libc_nano.a(lib_a-memmove.o)
 .ARM.attributes
                0x000015b2       0x34 c:/dev/gcc-arm-none-eabi/bin/../lib/gcc/arm-none-eabi/6.3.1/../../../../arm-none-eabi/lib/thumb/v7e-m/fpv4-sp/hard\libc_nano.a(lib_a-nano-reallocr.o)
 .ARM.attributes
                0x000015e6       0x34 c:/dev/gcc-arm-none-eabi/bin/../lib/gcc/arm-none-eabi/6.3.1/../../../../arm-none-eabi/lib/thumb/v7e-m/fpv4-sp/hard\libc_nano.a(lib_a-nano-msizer.o)
OUTPUT(output\REVOLT.elf elf32-littlearm)

.comment        0x00000000       0x7f
 .comment       0x00000000       0x7f C:\Users\PRESTO~1\AppData\Local\Temp\cc3x6Wri.ltrans0.ltrans.o
                                 0x80 (size before relaxing)
 .comment       0x0000007f       0x80 C:\Users\PRESTO~1\AppData\Local\Temp\cc3x6Wri.ltrans1.ltrans.o
 .comment       0x0000007f       0x80 C:\Users\PRESTO~1\AppData\Local\Temp\cc3x6Wri.ltrans2.ltrans.o
 .comment       0x0000007f       0x80 C:\Users\PRESTO~1\AppData\Local\Temp\cc3x6Wri.ltrans3.ltrans.o
 .comment       0x0000007f       0x80 C:\Users\PRESTO~1\AppData\Local\Temp\cc3x6Wri.ltrans4.ltrans.o
 .comment       0x0000007f       0x80 C:\Users\PRESTO~1\AppData\Local\Temp\cc3x6Wri.ltrans5.ltrans.o
 .comment       0x0000007f       0x80 C:\Users\PRESTO~1\AppData\Local\Temp\cc3x6Wri.ltrans6.ltrans.o
 .comment       0x0000007f       0x80 C:\Users\PRESTO~1\AppData\Local\Temp\cc3x6Wri.ltrans7.ltrans.o
 .comment       0x0000007f       0x80 C:\Users\PRESTO~1\AppData\Local\Temp\cc3x6Wri.ltrans8.ltrans.o
 .comment       0x0000007f       0x80 C:\Users\PRESTO~1\AppData\Local\Temp\cc3x6Wri.ltrans9.ltrans.o
 .comment       0x0000007f       0x80 C:\Users\PRESTO~1\AppData\Local\Temp\cc3x6Wri.ltrans10.ltrans.o
 .comment       0x0000007f       0x80 C:\Users\PRESTO~1\AppData\Local\Temp\cc3x6Wri.ltrans11.ltrans.o
 .comment       0x0000007f       0x80 C:\Users\PRESTO~1\AppData\Local\Temp\cc3x6Wri.ltrans12.ltrans.o
 .comment       0x0000007f       0x80 C:\Users\PRESTO~1\AppData\Local\Temp\cc3x6Wri.ltrans13.ltrans.o
 .comment       0x0000007f       0x80 C:\Users\PRESTO~1\AppData\Local\Temp\cc3x6Wri.ltrans14.ltrans.o
 .comment       0x0000007f       0x80 C:\Users\PRESTO~1\AppData\Local\Temp\cc3x6Wri.ltrans15.ltrans.o
 .comment       0x0000007f       0x80 C:\Users\PRESTO~1\AppData\Local\Temp\cc3x6Wri.ltrans16.ltrans.o
 .comment       0x0000007f       0x80 C:\Users\PRESTO~1\AppData\Local\Temp\cc3x6Wri.ltrans17.ltrans.o
 .comment       0x0000007f       0x80 C:\Users\PRESTO~1\AppData\Local\Temp\cc3x6Wri.ltrans18.ltrans.o
 .comment       0x0000007f       0x80 C:\Users\PRESTO~1\AppData\Local\Temp\cc3x6Wri.ltrans19.ltrans.o
 .comment       0x0000007f       0x80 C:\Users\PRESTO~1\AppData\Local\Temp\cc3x6Wri.ltrans20.ltrans.o
 .comment       0x0000007f       0x80 C:\Users\PRESTO~1\AppData\Local\Temp\cc3x6Wri.ltrans21.ltrans.o
 .comment       0x0000007f       0x80 C:\Users\PRESTO~1\AppData\Local\Temp\cc3x6Wri.ltrans22.ltrans.o
 .comment       0x0000007f       0x80 C:\Users\PRESTO~1\AppData\Local\Temp\cc3x6Wri.ltrans23.ltrans.o
 .comment       0x0000007f       0x80 C:\Users\PRESTO~1\AppData\Local\Temp\cc3x6Wri.ltrans24.ltrans.o
 .comment       0x0000007f       0x80 C:\Users\PRESTO~1\AppData\Local\Temp\cc3x6Wri.ltrans25.ltrans.o
 .comment       0x0000007f       0x80 C:\Users\PRESTO~1\AppData\Local\Temp\cc3x6Wri.ltrans26.ltrans.o
 .comment       0x0000007f       0x80 C:\Users\PRESTO~1\AppData\Local\Temp\cc3x6Wri.ltrans27.ltrans.o
 .comment       0x0000007f       0x80 C:\Users\PRESTO~1\AppData\Local\Temp\cc3x6Wri.ltrans28.ltrans.o
 .comment       0x0000007f       0x80 C:\Users\PRESTO~1\AppData\Local\Temp\cc3x6Wri.ltrans29.ltrans.o
 .comment       0x0000007f       0x80 C:\Users\PRESTO~1\AppData\Local\Temp\cc3x6Wri.ltrans30.ltrans.o
 .comment       0x0000007f       0x80 C:\Users\PRESTO~1\AppData\Local\Temp\cc3x6Wri.ltrans31.ltrans.o

.debug_frame    0x00000000     0x141c
 .debug_frame   0x00000000       0x20 c:/dev/gcc-arm-none-eabi/bin/../lib/gcc/arm-none-eabi/6.3.1/../../../../arm-none-eabi/lib/thumb/v7e-m/fpv4-sp/hard\libc_nano.a(lib_a-atof.o)
 .debug_frame   0x00000020       0x30 c:/dev/gcc-arm-none-eabi/bin/../lib/gcc/arm-none-eabi/6.3.1/../../../../arm-none-eabi/lib/thumb/v7e-m/fpv4-sp/hard\libc_nano.a(lib_a-atoi.o)
 .debug_frame   0x00000050       0x38 c:/dev/gcc-arm-none-eabi/bin/../lib/gcc/arm-none-eabi/6.3.1/../../../../arm-none-eabi/lib/thumb/v7e-m/fpv4-sp/hard\libc_nano.a(lib_a-itoa.o)
 .debug_frame   0x00000088       0x68 c:/dev/gcc-arm-none-eabi/bin/../lib/gcc/arm-none-eabi/6.3.1/../../../../arm-none-eabi/lib/thumb/v7e-m/fpv4-sp/hard\libc_nano.a(lib_a-locale.o)
 .debug_frame   0x000000f0       0x48 c:/dev/gcc-arm-none-eabi/bin/../lib/gcc/arm-none-eabi/6.3.1/../../../../arm-none-eabi/lib/thumb/v7e-m/fpv4-sp/hard\libc_nano.a(lib_a-mbtowc_r.o)
 .debug_frame   0x00000138       0x44 c:/dev/gcc-arm-none-eabi/bin/../lib/gcc/arm-none-eabi/6.3.1/../../../../arm-none-eabi/lib/thumb/v7e-m/fpv4-sp/hard\libc_nano.a(lib_a-rand.o)
 .debug_frame   0x0000017c       0x20 c:/dev/gcc-arm-none-eabi/bin/../lib/gcc/arm-none-eabi/6.3.1/../../../../arm-none-eabi/lib/thumb/v7e-m/fpv4-sp/hard\libc_nano.a(lib_a-strcmp.o)
 .debug_frame   0x0000019c      0x12c c:/dev/gcc-arm-none-eabi/bin/../lib/gcc/arm-none-eabi/6.3.1/../../../../arm-none-eabi/lib/thumb/v7e-m/fpv4-sp/hard\libc_nano.a(lib_a-strtod.o)
 .debug_frame   0x000002c8       0x88 c:/dev/gcc-arm-none-eabi/bin/../lib/gcc/arm-none-eabi/6.3.1/../../../../arm-none-eabi/lib/thumb/v7e-m/fpv4-sp/hard\libc_nano.a(lib_a-strtol.o)
 .debug_frame   0x00000350       0x48 c:/dev/gcc-arm-none-eabi/bin/../lib/gcc/arm-none-eabi/6.3.1/../../../../arm-none-eabi/lib/thumb/v7e-m/fpv4-sp/hard\libc_nano.a(lib_a-utoa.o)
 .debug_frame   0x00000398       0x3c c:/dev/gcc-arm-none-eabi/bin/../lib/gcc/arm-none-eabi/6.3.1/../../../../arm-none-eabi/lib/thumb/v7e-m/fpv4-sp/hard\libc_nano.a(lib_a-wctomb_r.o)
 .debug_frame   0x000003d4       0x70 c:/dev/gcc-arm-none-eabi/bin/../lib/gcc/arm-none-eabi/6.3.1/../../../../arm-none-eabi/lib/thumb/v7e-m/fpv4-sp/hard\libc_nano.a(lib_a-gdtoa-gethex.o)
 .debug_frame   0x00000444       0x74 c:/dev/gcc-arm-none-eabi/bin/../lib/gcc/arm-none-eabi/6.3.1/../../../../arm-none-eabi/lib/thumb/v7e-m/fpv4-sp/hard\libc_nano.a(lib_a-gdtoa-hexnan.o)
 .debug_frame   0x000004b8       0x40 c:/dev/gcc-arm-none-eabi/bin/../lib/gcc/arm-none-eabi/6.3.1/../../../../arm-none-eabi/lib/thumb/v7e-m/fpv4-sp/hard\libc_nano.a(lib_a-localeconv.o)
 .debug_frame   0x000004f8       0x30 c:/dev/gcc-arm-none-eabi/bin/../lib/gcc/arm-none-eabi/6.3.1/../../../../arm-none-eabi/lib/thumb/v7e-m/fpv4-sp/hard\libc_nano.a(lib_a-malloc.o)
 .debug_frame   0x00000528       0x28 c:/dev/gcc-arm-none-eabi/bin/../lib/gcc/arm-none-eabi/6.3.1/../../../../arm-none-eabi/lib/thumb/v7e-m/fpv4-sp/hard\libc_nano.a(lib_a-memcpy-stub.o)
 .debug_frame   0x00000550      0x240 c:/dev/gcc-arm-none-eabi/bin/../lib/gcc/arm-none-eabi/6.3.1/../../../../arm-none-eabi/lib/thumb/v7e-m/fpv4-sp/hard\libc_nano.a(lib_a-mprec.o)
 .debug_frame   0x00000790       0x2c c:/dev/gcc-arm-none-eabi/bin/../lib/gcc/arm-none-eabi/6.3.1/../../../../arm-none-eabi/lib/thumb/v7e-m/fpv4-sp/hard\libc_nano.a(lib_a-nano-callocr.o)
 .debug_frame   0x000007bc       0x38 c:/dev/gcc-arm-none-eabi/bin/../lib/gcc/arm-none-eabi/6.3.1/../../../../arm-none-eabi/lib/thumb/v7e-m/fpv4-sp/hard\libc_nano.a(lib_a-nano-freer.o)
 .debug_frame   0x000007f4       0x2c c:/dev/gcc-arm-none-eabi/bin/../lib/gcc/arm-none-eabi/6.3.1/../../../../arm-none-eabi/lib/thumb/v7e-m/fpv4-sp/hard\libc_nano.a(lib_a-nano-mallocr.o)
 .debug_frame   0x00000820       0x2c c:/dev/gcc-arm-none-eabi/bin/../lib/gcc/arm-none-eabi/6.3.1/../../../../arm-none-eabi/lib/thumb/v7e-m/fpv4-sp/hard\libc_nano.a(lib_a-sbrkr.o)
 .debug_frame   0x0000084c       0x28 c:/dev/gcc-arm-none-eabi/bin/../lib/gcc/arm-none-eabi/6.3.1/../../../../arm-none-eabi/lib/thumb/v7e-m/fpv4-sp/hard\libc_nano.a(lib_a-strncmp.o)
 .debug_frame   0x00000874       0x20 c:/dev/gcc-arm-none-eabi/bin/../lib/gcc/arm-none-eabi/6.3.1/../../../../arm-none-eabi/lib/thumb/v7e-m/fpv4-sp/hard\libc_nano.a(lib_a-memset.o)
 .debug_frame   0x00000894       0x30 c:/dev/gcc-arm-none-eabi/bin/../lib/gcc/arm-none-eabi/6.3.1/../../../../arm-none-eabi/lib/thumb/v7e-m/fpv4-sp/hard\libc_nano.a(lib_a-mlock.o)
 .debug_frame   0x000008c4       0x5c c:/dev/gcc-arm-none-eabi/bin/../lib/gcc/arm-none-eabi/6.3.1/../../../../arm-none-eabi/lib/thumb/v7e-m/fpv4-sp/hard\libc_nano.a(lib_a-reent.o)
 .debug_frame   0x00000920       0x20 c:/dev/gcc-arm-none-eabi/bin/../lib/gcc/arm-none-eabi/6.3.1/../../../../arm-none-eabi/lib/thumb/v7e-m/fpv4-sp/hard\libnosys.a(sbrk.o)
 .debug_frame   0x00000940       0xac c:/dev/gcc-arm-none-eabi/bin/../lib/gcc/arm-none-eabi/6.3.1/thumb/v7e-m/fpv4-sp/hard\libgcc.a(_arm_addsubdf3.o)
 .debug_frame   0x000009ec       0x50 c:/dev/gcc-arm-none-eabi/bin/../lib/gcc/arm-none-eabi/6.3.1/thumb/v7e-m/fpv4-sp/hard\libgcc.a(_arm_muldivdf3.o)
 .debug_frame   0x00000a3c       0xc4 c:/dev/gcc-arm-none-eabi/bin/../lib/gcc/arm-none-eabi/6.3.1/thumb/v7e-m/fpv4-sp/hard\libgcc.a(_arm_cmpdf2.o)
 .debug_frame   0x00000b00       0x20 c:/dev/gcc-arm-none-eabi/bin/../lib/gcc/arm-none-eabi/6.3.1/thumb/v7e-m/fpv4-sp/hard\libgcc.a(_arm_unorddf2.o)
 .debug_frame   0x00000b20       0x24 c:/dev/gcc-arm-none-eabi/bin/../lib/gcc/arm-none-eabi/6.3.1/thumb/v7e-m/fpv4-sp/hard\libgcc.a(_arm_fixdfsi.o)
 .debug_frame   0x00000b44       0x24 c:/dev/gcc-arm-none-eabi/bin/../lib/gcc/arm-none-eabi/6.3.1/thumb/v7e-m/fpv4-sp/hard\libgcc.a(_arm_fixunsdfsi.o)
 .debug_frame   0x00000b68       0x24 c:/dev/gcc-arm-none-eabi/bin/../lib/gcc/arm-none-eabi/6.3.1/thumb/v7e-m/fpv4-sp/hard\libgcc.a(_arm_truncdfsf2.o)
 .debug_frame   0x00000b8c       0x20 c:/dev/gcc-arm-none-eabi/bin/../lib/gcc/arm-none-eabi/6.3.1/../../../../arm-none-eabi/lib/thumb/v7e-m/fpv4-sp/hard\libm.a(lib_a-powl.o)
 .debug_frame   0x00000bac       0x34 c:/dev/gcc-arm-none-eabi/bin/../lib/gcc/arm-none-eabi/6.3.1/../../../../arm-none-eabi/lib/thumb/v7e-m/fpv4-sp/hard\libm.a(lib_a-s_ceil.o)
 .debug_frame   0x00000be0       0x40 c:/dev/gcc-arm-none-eabi/bin/../lib/gcc/arm-none-eabi/6.3.1/../../../../arm-none-eabi/lib/thumb/v7e-m/fpv4-sp/hard\libm.a(lib_a-s_lrint.o)
 .debug_frame   0x00000c20       0x30 c:/dev/gcc-arm-none-eabi/bin/../lib/gcc/arm-none-eabi/6.3.1/../../../../arm-none-eabi/lib/thumb/v7e-m/fpv4-sp/hard\libm.a(lib_a-s_round.o)
 .debug_frame   0x00000c50       0x34 c:/dev/gcc-arm-none-eabi/bin/../lib/gcc/arm-none-eabi/6.3.1/../../../../arm-none-eabi/lib/thumb/v7e-m/fpv4-sp/hard\libm.a(lib_a-sf_cos.o)
 .debug_frame   0x00000c84       0x48 c:/dev/gcc-arm-none-eabi/bin/../lib/gcc/arm-none-eabi/6.3.1/../../../../arm-none-eabi/lib/thumb/v7e-m/fpv4-sp/hard\libm.a(lib_a-sf_lrint.o)
 .debug_frame   0x00000ccc       0x34 c:/dev/gcc-arm-none-eabi/bin/../lib/gcc/arm-none-eabi/6.3.1/../../../../arm-none-eabi/lib/thumb/v7e-m/fpv4-sp/hard\libm.a(lib_a-sf_sin.o)
 .debug_frame   0x00000d00       0x50 c:/dev/gcc-arm-none-eabi/bin/../lib/gcc/arm-none-eabi/6.3.1/../../../../arm-none-eabi/lib/thumb/v7e-m/fpv4-sp/hard\libm.a(lib_a-w_pow.o)
 .debug_frame   0x00000d50       0x50 c:/dev/gcc-arm-none-eabi/bin/../lib/gcc/arm-none-eabi/6.3.1/../../../../arm-none-eabi/lib/thumb/v7e-m/fpv4-sp/hard\libm.a(lib_a-wf_sqrt.o)
 .debug_frame   0x00000da0       0x64 c:/dev/gcc-arm-none-eabi/bin/../lib/gcc/arm-none-eabi/6.3.1/../../../../arm-none-eabi/lib/thumb/v7e-m/fpv4-sp/hard\libm.a(lib_a-e_pow.o)
 .debug_frame   0x00000e04       0x30 c:/dev/gcc-arm-none-eabi/bin/../lib/gcc/arm-none-eabi/6.3.1/../../../../arm-none-eabi/lib/thumb/v7e-m/fpv4-sp/hard\libm.a(lib_a-e_sqrt.o)
 .debug_frame   0x00000e34       0x3c c:/dev/gcc-arm-none-eabi/bin/../lib/gcc/arm-none-eabi/6.3.1/../../../../arm-none-eabi/lib/thumb/v7e-m/fpv4-sp/hard\libm.a(lib_a-ef_rem_pio2.o)
 .debug_frame   0x00000e70       0x20 c:/dev/gcc-arm-none-eabi/bin/../lib/gcc/arm-none-eabi/6.3.1/../../../../arm-none-eabi/lib/thumb/v7e-m/fpv4-sp/hard\libm.a(lib_a-ef_sqrt.o)
 .debug_frame   0x00000e90       0x20 c:/dev/gcc-arm-none-eabi/bin/../lib/gcc/arm-none-eabi/6.3.1/../../../../arm-none-eabi/lib/thumb/v7e-m/fpv4-sp/hard\libm.a(lib_a-kf_cos.o)
 .debug_frame   0x00000eb0       0x5c c:/dev/gcc-arm-none-eabi/bin/../lib/gcc/arm-none-eabi/6.3.1/../../../../arm-none-eabi/lib/thumb/v7e-m/fpv4-sp/hard\libm.a(lib_a-kf_rem_pio2.o)
 .debug_frame   0x00000f0c       0x20 c:/dev/gcc-arm-none-eabi/bin/../lib/gcc/arm-none-eabi/6.3.1/../../../../arm-none-eabi/lib/thumb/v7e-m/fpv4-sp/hard\libm.a(lib_a-kf_sin.o)
 .debug_frame   0x00000f2c       0x20 c:/dev/gcc-arm-none-eabi/bin/../lib/gcc/arm-none-eabi/6.3.1/../../../../arm-none-eabi/lib/thumb/v7e-m/fpv4-sp/hard\libm.a(lib_a-s_fabs.o)
 .debug_frame   0x00000f4c       0x20 c:/dev/gcc-arm-none-eabi/bin/../lib/gcc/arm-none-eabi/6.3.1/../../../../arm-none-eabi/lib/thumb/v7e-m/fpv4-sp/hard\libm.a(lib_a-s_finite.o)
 .debug_frame   0x00000f6c       0x20 c:/dev/gcc-arm-none-eabi/bin/../lib/gcc/arm-none-eabi/6.3.1/../../../../arm-none-eabi/lib/thumb/v7e-m/fpv4-sp/hard\libm.a(lib_a-s_matherr.o)
 .debug_frame   0x00000f8c       0x20 c:/dev/gcc-arm-none-eabi/bin/../lib/gcc/arm-none-eabi/6.3.1/../../../../arm-none-eabi/lib/thumb/v7e-m/fpv4-sp/hard\libm.a(lib_a-s_nan.o)
 .debug_frame   0x00000fac       0x3c c:/dev/gcc-arm-none-eabi/bin/../lib/gcc/arm-none-eabi/6.3.1/../../../../arm-none-eabi/lib/thumb/v7e-m/fpv4-sp/hard\libm.a(lib_a-s_rint.o)
 .debug_frame   0x00000fe8       0x2c c:/dev/gcc-arm-none-eabi/bin/../lib/gcc/arm-none-eabi/6.3.1/../../../../arm-none-eabi/lib/thumb/v7e-m/fpv4-sp/hard\libm.a(lib_a-s_scalbn.o)
 .debug_frame   0x00001014       0x20 c:/dev/gcc-arm-none-eabi/bin/../lib/gcc/arm-none-eabi/6.3.1/../../../../arm-none-eabi/lib/thumb/v7e-m/fpv4-sp/hard\libm.a(lib_a-sf_fabs.o)
 .debug_frame   0x00001034       0x20 c:/dev/gcc-arm-none-eabi/bin/../lib/gcc/arm-none-eabi/6.3.1/../../../../arm-none-eabi/lib/thumb/v7e-m/fpv4-sp/hard\libm.a(lib_a-sf_floor.o)
 .debug_frame   0x00001054       0x44 c:/dev/gcc-arm-none-eabi/bin/../lib/gcc/arm-none-eabi/6.3.1/../../../../arm-none-eabi/lib/thumb/v7e-m/fpv4-sp/hard\libm.a(lib_a-sf_scalbn.o)
 .debug_frame   0x00001098       0x20 c:/dev/gcc-arm-none-eabi/bin/../lib/gcc/arm-none-eabi/6.3.1/../../../../arm-none-eabi/lib/thumb/v7e-m/fpv4-sp/hard\libm.a(lib_a-s_copysign.o)
 .debug_frame   0x000010b8       0x20 c:/dev/gcc-arm-none-eabi/bin/../lib/gcc/arm-none-eabi/6.3.1/../../../../arm-none-eabi/lib/thumb/v7e-m/fpv4-sp/hard\libm.a(lib_a-sf_copysign.o)
 .debug_frame   0x000010d8       0x20 c:/dev/gcc-arm-none-eabi/bin/../lib/gcc/arm-none-eabi/6.3.1/../../../../arm-none-eabi/lib/thumb/v7e-m/fpv4-sp/hard\libc_nano.a(lib_a-errno.o)
 .debug_frame   0x000010f8       0x7c c:/dev/gcc-arm-none-eabi/bin/../lib/gcc/arm-none-eabi/6.3.1/../../../../arm-none-eabi/lib/thumb/v7e-m/fpv4-sp/hard\libc_nano.a(lib_a-snprintf.o)
 .debug_frame   0x00001174       0x70 c:/dev/gcc-arm-none-eabi/bin/../lib/gcc/arm-none-eabi/6.3.1/../../../../arm-none-eabi/lib/thumb/v7e-m/fpv4-sp/hard\libc_nano.a(lib_a-sprintf.o)
 .debug_frame   0x000011e4       0x28 c:/dev/gcc-arm-none-eabi/bin/../lib/gcc/arm-none-eabi/6.3.1/../../../../arm-none-eabi/lib/thumb/v7e-m/fpv4-sp/hard\libc_nano.a(lib_a-strcat.o)
 .debug_frame   0x0000120c       0x20 c:/dev/gcc-arm-none-eabi/bin/../lib/gcc/arm-none-eabi/6.3.1/../../../../arm-none-eabi/lib/thumb/v7e-m/fpv4-sp/hard\libc_nano.a(lib_a-strchr.o)
 .debug_frame   0x0000122c       0x20 c:/dev/gcc-arm-none-eabi/bin/../lib/gcc/arm-none-eabi/6.3.1/../../../../arm-none-eabi/lib/thumb/v7e-m/fpv4-sp/hard\libc_nano.a(lib_a-strcpy.o)
 .debug_frame   0x0000124c       0x30 c:/dev/gcc-arm-none-eabi/bin/../lib/gcc/arm-none-eabi/6.3.1/../../../../arm-none-eabi/lib/thumb/v7e-m/fpv4-sp/hard\libc_nano.a(lib_a-strncasecmp.o)
 .debug_frame   0x0000127c       0x2c c:/dev/gcc-arm-none-eabi/bin/../lib/gcc/arm-none-eabi/6.3.1/../../../../arm-none-eabi/lib/thumb/v7e-m/fpv4-sp/hard\libc_nano.a(lib_a-strncpy.o)
 .debug_frame   0x000012a8       0x90 c:/dev/gcc-arm-none-eabi/bin/../lib/gcc/arm-none-eabi/6.3.1/../../../../arm-none-eabi/lib/thumb/v7e-m/fpv4-sp/hard\libc_nano.a(lib_a-nano-svfprintf.o)
 .debug_frame   0x00001338       0x60 c:/dev/gcc-arm-none-eabi/bin/../lib/gcc/arm-none-eabi/6.3.1/../../../../arm-none-eabi/lib/thumb/v7e-m/fpv4-sp/hard\libc_nano.a(lib_a-nano-vfprintf_i.o)
 .debug_frame   0x00001398       0x28 c:/dev/gcc-arm-none-eabi/bin/../lib/gcc/arm-none-eabi/6.3.1/../../../../arm-none-eabi/lib/thumb/v7e-m/fpv4-sp/hard\libc_nano.a(lib_a-memmove.o)
 .debug_frame   0x000013c0       0x3c c:/dev/gcc-arm-none-eabi/bin/../lib/gcc/arm-none-eabi/6.3.1/../../../../arm-none-eabi/lib/thumb/v7e-m/fpv4-sp/hard\libc_nano.a(lib_a-nano-reallocr.o)
 .debug_frame   0x000013fc       0x20 c:/dev/gcc-arm-none-eabi/bin/../lib/gcc/arm-none-eabi/6.3.1/../../../../arm-none-eabi/lib/thumb/v7e-m/fpv4-sp/hard\libc_nano.a(lib_a-nano-msizer.o)

Cross Reference Table

Symbol                                            File
ADC_DMAConvCplt.lto_priv.268                      C:\Users\PRESTO~1\AppData\Local\Temp\cc3x6Wri.ltrans7.ltrans.o
                                                  C:\Users\PRESTO~1\AppData\Local\Temp\cc3x6Wri.ltrans2.ltrans.o
ADC_DMAError.lto_priv.270                         C:\Users\PRESTO~1\AppData\Local\Temp\cc3x6Wri.ltrans7.ltrans.o
                                                  C:\Users\PRESTO~1\AppData\Local\Temp\cc3x6Wri.ltrans2.ltrans.o
ADC_DMAHalfConvCplt.lto_priv.269                  C:\Users\PRESTO~1\AppData\Local\Temp\cc3x6Wri.ltrans7.ltrans.o
                                                  C:\Users\PRESTO~1\AppData\Local\Temp\cc3x6Wri.ltrans2.ltrans.o
ADC_IRQHandler                                    C:\Users\PRESTO~1\AppData\Local\Temp\cc3x6Wri.ltrans0.ltrans.o
                                                  output\REVOLT\startup_stm32f405xx.o
                                                  output\REVOLT\stm32f4xx_it.o (symbol from plugin)
AHBPrescTable                                     output\REVOLT\system_stm32f4xx.o (symbol from plugin)
APBAHBPrescTable                                  C:\Users\PRESTO~1\AppData\Local\Temp\cc3x6Wri.ltrans27.ltrans.o
                                                  output\REVOLT\stm32f4xx_hal_rcc.o (symbol from plugin)
                                                  C:\Users\PRESTO~1\AppData\Local\Temp\cc3x6Wri.ltrans8.ltrans.o
AccGyroDMAReadWriteData                           output\REVOLT\invensense_bus_spi.o (symbol from plugin)
                                                  output\REVOLT\invensense_mpu_icm_device.o (symbol from plugin)
AccGyroDMAReadWriteData.part.3                    C:\Users\PRESTO~1\AppData\Local\Temp\cc3x6Wri.ltrans25.ltrans.o
                                                  C:\Users\PRESTO~1\AppData\Local\Temp\cc3x6Wri.ltrans26.ltrans.o
                                                  C:\Users\PRESTO~1\AppData\Local\Temp\cc3x6Wri.ltrans23.ltrans.o
AccGyroDeinit                                     output\REVOLT\invensense_bus_spi.o (symbol from plugin)
                                                  output\REVOLT\flight.o (symbol from plugin)
AccGyroDeviceDetect                               output\REVOLT\invensense_mpu_icm_device.o (symbol from plugin)
                                                  output\REVOLT\invensense_bus_spi.o (symbol from plugin)
AccGyroDeviceInit                                 output\REVOLT\invensense_mpu_icm_device.o (symbol from plugin)
                                                  output\REVOLT\invensense_bus_spi.o (symbol from plugin)
AccGyroInit                                       output\REVOLT\invensense_bus_spi.o (symbol from plugin)
                                                  output\REVOLT\flight.o (symbol from plugin)
AccGyroReadData                                   output\REVOLT\invensense_bus_spi.o (symbol from plugin)
                                                  output\REVOLT\invensense_mpu_icm_device.o (symbol from plugin)
AccGyroSlowReadData                               output\REVOLT\invensense_bus_spi.o (symbol from plugin)
AccGyroVerifyWriteRegister                        C:\Users\PRESTO~1\AppData\Local\Temp\cc3x6Wri.ltrans25.ltrans.o
                                                  output\REVOLT\invensense_bus_spi.o (symbol from plugin)
                                                  C:\Users\PRESTO~1\AppData\Local\Temp\cc3x6Wri.ltrans2.ltrans.o
                                                  output\REVOLT\invensense_mpu_icm_device.o (symbol from plugin)
AccGyroWriteData                                  output\REVOLT\invensense_bus_spi.o (symbol from plugin)
AccGyroWriteRegister                              C:\Users\PRESTO~1\AppData\Local\Temp\cc3x6Wri.ltrans23.ltrans.o
                                                  output\REVOLT\invensense_bus_spi.o (symbol from plugin)
                                                  C:\Users\PRESTO~1\AppData\Local\Temp\cc3x6Wri.ltrans25.ltrans.o
                                                  C:\Users\PRESTO~1\AppData\Local\Temp\cc3x6Wri.ltrans2.ltrans.o
                                                  output\REVOLT\invensense_mpu_icm_device.o (symbol from plugin)
AdjustTpa                                         C:\Users\PRESTO~1\AppData\Local\Temp\cc3x6Wri.ltrans31.ltrans.o
                                                  output\REVOLT\mixer.o (symbol from plugin)
                                                  C:\Users\PRESTO~1\AppData\Local\Temp\cc3x6Wri.ltrans1.ltrans.o
                                                  output\REVOLT\config.o (symbol from plugin)
ApplyLearningModelToKi                            output\REVOLT\learning.o (symbol from plugin)
                                                  output\REVOLT\flight.o (symbol from plugin)
ArmBoard                                          C:\Users\PRESTO~1\AppData\Local\Temp\cc3x6Wri.ltrans0.ltrans.o
                                                  output\REVOLT\flight.o (symbol from plugin)
                                                  C:\Users\PRESTO~1\AppData\Local\Temp\cc3x6Wri.ltrans25.ltrans.o
                                                  C:\Users\PRESTO~1\AppData\Local\Temp\cc3x6Wri.ltrans3.ltrans.o
                                                  output\REVOLT\rx.o (symbol from plugin)
                                                  output\REVOLT\scheduler.o (symbol from plugin)
Atan2fast                                         output\REVOLT\rf_math.o (symbol from plugin)
                                                  output\REVOLT\imu.o (symbol from plugin)
AverageGyroADCbuffer                              output\REVOLT\flight.o (symbol from plugin)
BLHeli20_EEprom                                   output\REVOLT\esc_1wire.o (symbol from plugin)
BLHeli21_EEprom                                   output\REVOLT\esc_1wire.o (symbol from plugin)
BLHeliS32_EEprom                                  output\REVOLT\esc_1wire.o (symbol from plugin)
BLHeliSiLabsProtocol                              output\REVOLT\esc_1wire.o (symbol from plugin)
BigToLittleEndian32                               output\REVOLT\rf_math.o (symbol from plugin)
                                                  output\REVOLT\esc_1wire.o (symbol from plugin)
BiquadUpdate                                      output\REVOLT\filter.o (symbol from plugin)
                                                  output\REVOLT\pid.o (symbol from plugin)
                                                  output\REVOLT\flight.o (symbol from plugin)
BitReverse8                                       output\REVOLT\rf_math.o (symbol from plugin)
                                                  output\REVOLT\dmaShenanigans.o (symbol from plugin)
                                                  output\REVOLT\newSoftSerial.o (symbol from plugin)
BitReverseTable256.lto_priv.197                   C:\Users\PRESTO~1\AppData\Local\Temp\cc3x6Wri.ltrans27.ltrans.o
                                                  C:\Users\PRESTO~1\AppData\Local\Temp\cc3x6Wri.ltrans22.ltrans.o
                                                  C:\Users\PRESTO~1\AppData\Local\Temp\cc3x6Wri.ltrans13.ltrans.o
                                                  C:\Users\PRESTO~1\AppData\Local\Temp\cc3x6Wri.ltrans11.ltrans.o
                                                  C:\Users\PRESTO~1\AppData\Local\Temp\cc3x6Wri.ltrans6.ltrans.o
BlackboxWriteSignedVB                             output\REVOLT\flight_logger.o (symbol from plugin)
BlackboxWriteUnsignedVB                           C:\Users\PRESTO~1\AppData\Local\Temp\cc3x6Wri.ltrans19.ltrans.o
                                                  output\REVOLT\flight_logger.o (symbol from plugin)
                                                  C:\Users\PRESTO~1\AppData\Local\Temp\cc3x6Wri.ltrans4.ltrans.o
BlinkAllLeds                                      output\REVOLT\leds.o (symbol from plugin)
BoardInit                                         output\REVOLT\stm32f4.o (symbol from plugin)
                                                  output\REVOLT\main.o (symbol from plugin)
BootToAddress                                     output\REVOLT\general_functions.o (symbol from plugin)
                                                  output\REVOLT\config.o (symbol from plugin)
BuildKiModel.part.0.lto_priv.275                  C:\Users\PRESTO~1\AppData\Local\Temp\cc3x6Wri.ltrans19.ltrans.o
                                                  C:\Users\PRESTO~1\AppData\Local\Temp\cc3x6Wri.ltrans2.ltrans.o
                                                  C:\Users\PRESTO~1\AppData\Local\Temp\cc3x6Wri.ltrans0.ltrans.o
BuildLearnedKiModel                               output\REVOLT\learning.o (symbol from plugin)
BuildRotationMatrix                               output\REVOLT\gyro.o (symbol from plugin)
BuiltInUpgradeSiLabsBLHeli                        C:\Users\PRESTO~1\AppData\Local\Temp\cc3x6Wri.ltrans20.ltrans.o
                                                  output\REVOLT\esc_1wire.o (symbol from plugin)
                                                  C:\Users\PRESTO~1\AppData\Local\Temp\cc3x6Wri.ltrans7.ltrans.o
                                                  output\REVOLT\wizard.o (symbol from plugin)
BusFault_Handler                                  C:\Users\PRESTO~1\AppData\Local\Temp\cc3x6Wri.ltrans0.ltrans.o
                                                  output\REVOLT\startup_stm32f405xx.o
                                                  output\REVOLT\stm32f4xx_it.o (symbol from plugin)
Buzz                                              output\REVOLT\buzzer.o (symbol from plugin)
BuzzTest                                          output\REVOLT\buzzer.o (symbol from plugin)
CAN1_RX0_IRQHandler                               output\REVOLT\startup_stm32f405xx.o
CAN1_RX1_IRQHandler                               output\REVOLT\startup_stm32f405xx.o
CAN1_SCE_IRQHandler                               output\REVOLT\startup_stm32f405xx.o
CAN1_TX_IRQHandler                                output\REVOLT\startup_stm32f405xx.o
CAN2_RX0_IRQHandler                               output\REVOLT\startup_stm32f405xx.o
CAN2_RX1_IRQHandler                               output\REVOLT\startup_stm32f405xx.o
CAN2_SCE_IRQHandler                               output\REVOLT\startup_stm32f405xx.o
CAN2_TX_IRQHandler                                output\REVOLT\startup_stm32f405xx.o
CONST_MIXER_PLUS1234                              output\REVOLT\mixer.o (symbol from plugin)
CONST_MIXER_PLUS1234RY                            output\REVOLT\mixer.o (symbol from plugin)
CONST_MIXER_X1234                                 output\REVOLT\mixer.o (symbol from plugin)
CONST_MIXER_X1234RY                               output\REVOLT\mixer.o (symbol from plugin)
CONST_MIXER_X1234RYT                              output\REVOLT\mixer.o (symbol from plugin)
CONST_MIXER_X4213                                 output\REVOLT\mixer.o (symbol from plugin)
CONST_MIXER_X4213RY                               output\REVOLT\mixer.o (symbol from plugin)
CRC4_12                                           C:\Users\PRESTO~1\AppData\Local\Temp\cc3x6Wri.ltrans26.ltrans.o
                                                  output\REVOLT\rf_math.o (symbol from plugin)
                                                  C:\Users\PRESTO~1\AppData\Local\Temp\cc3x6Wri.ltrans3.ltrans.o
                                                  output\REVOLT\dshotTwoWay.o (symbol from plugin)
CSWTCH.36.lto_priv.235                            C:\Users\PRESTO~1\AppData\Local\Temp\cc3x6Wri.ltrans11.ltrans.o
                                                  C:\Users\PRESTO~1\AppData\Local\Temp\cc3x6Wri.ltrans6.ltrans.o
CalculateSD                                       output\REVOLT\rf_math.o (symbol from plugin)
                                                  output\REVOLT\wizard.o (symbol from plugin)
CalculateSDSize                                   output\REVOLT\rf_math.o (symbol from plugin)
                                                  output\REVOLT\config.o (symbol from plugin)
CalculateSDSize.constprop.48                      C:\Users\PRESTO~1\AppData\Local\Temp\cc3x6Wri.ltrans29.ltrans.o
                                                  C:\Users\PRESTO~1\AppData\Local\Temp\cc3x6Wri.ltrans1.ltrans.o
CalculateThrottleVelocity                         output\REVOLT\rx.o (symbol from plugin)
                                                  output\REVOLT\flight.o (symbol from plugin)
ChannelMap                                        output\REVOLT\rx.o (symbol from plugin)
CheckBatteryCellCount                             output\REVOLT\adc.o (symbol from plugin)
                                                  output\REVOLT\scheduler.o (symbol from plugin)
CheckFailsafe                                     output\REVOLT\rx.o (symbol from plugin)
                                                  output\REVOLT\flight.o (symbol from plugin)
CheckForVideoSignal                               output\REVOLT\maxOsd.o (symbol from plugin)
CheckForVideoSignal.part.3                        C:\Users\PRESTO~1\AppData\Local\Temp\cc3x6Wri.ltrans12.ltrans.o
                                                  C:\Users\PRESTO~1\AppData\Local\Temp\cc3x6Wri.ltrans20.ltrans.o
                                                  C:\Users\PRESTO~1\AppData\Local\Temp\cc3x6Wri.ltrans2.ltrans.o
CheckIfFlashBusy                                  output\REVOLT\flash_chip.o (symbol from plugin)
CheckIfFlashSpiBusy                               output\REVOLT\flash_chip.o (symbol from plugin)
CheckIfSportReadyToSend                           output\REVOLT\sPortTelemetry.o (symbol from plugin)
                                                  output\REVOLT\telemetry.o (symbol from plugin)
CheckRxToModes                                    C:\Users\PRESTO~1\AppData\Local\Temp\cc3x6Wri.ltrans9.ltrans.o
                                                  output\REVOLT\modes.o (symbol from plugin)
                                                  C:\Users\PRESTO~1\AppData\Local\Temp\cc3x6Wri.ltrans25.ltrans.o
                                                  C:\Users\PRESTO~1\AppData\Local\Temp\cc3x6Wri.ltrans2.ltrans.o
                                                  output\REVOLT\rx.o (symbol from plugin)
                                                  output\REVOLT\flight.o (symbol from plugin)
CheckSmartAudioRxCrc                              output\REVOLT\smartAudio.o (symbol from plugin)
CheckSportCrc                                     output\REVOLT\sPortTelemetry.o (symbol from plugin)
CheckThrottleSafe                                 output\REVOLT\rx.o (symbol from plugin)
CleanupNumberString                               output\REVOLT\config.o (symbol from plugin)
CleanupString                                     output\REVOLT\config.o (symbol from plugin)
CommandToDshot                                    C:\Users\PRESTO~1\AppData\Local\Temp\cc3x6Wri.ltrans15.ltrans.o
                                                  output\REVOLT\dshotTwoWay.o (symbol from plugin)
                                                  C:\Users\PRESTO~1\AppData\Local\Temp\cc3x6Wri.ltrans3.ltrans.o
                                                  output\REVOLT\quopa.o (symbol from plugin)
ComplexBuzz                                       C:\Users\PRESTO~1\AppData\Local\Temp\cc3x6Wri.ltrans17.ltrans.o
                                                  output\REVOLT\buzzer.o (symbol from plugin)
                                                  C:\Users\PRESTO~1\AppData\Local\Temp\cc3x6Wri.ltrans3.ltrans.o
ConvertFloatToInt8ForKi                           output\REVOLT\learning.o (symbol from plugin)
ConvertInt8ToFloatForKi                           output\REVOLT\learning.o (symbol from plugin)
CoolLedEffect                                     output\REVOLT\leds.o (symbol from plugin)
CrsfCrc8                                          output\REVOLT\crossfire.o (symbol from plugin)
                                                  output\REVOLT\rx.o (symbol from plugin)
DMA1_Stream0_IRQHandler                           C:\Users\PRESTO~1\AppData\Local\Temp\cc3x6Wri.ltrans0.ltrans.o
                                                  output\REVOLT\startup_stm32f405xx.o
                                                  output\REVOLT\stm32f4xx_it.o (symbol from plugin)
DMA1_Stream1_IRQHandler                           C:\Users\PRESTO~1\AppData\Local\Temp\cc3x6Wri.ltrans0.ltrans.o
                                                  output\REVOLT\startup_stm32f405xx.o
                                                  output\REVOLT\stm32f4xx_it.o (symbol from plugin)
DMA1_Stream2_IRQHandler                           C:\Users\PRESTO~1\AppData\Local\Temp\cc3x6Wri.ltrans0.ltrans.o
                                                  output\REVOLT\startup_stm32f405xx.o
                                                  output\REVOLT\stm32f4xx_it.o (symbol from plugin)
DMA1_Stream3_IRQHandler                           C:\Users\PRESTO~1\AppData\Local\Temp\cc3x6Wri.ltrans0.ltrans.o
                                                  output\REVOLT\startup_stm32f405xx.o
                                                  output\REVOLT\stm32f4xx_it.o (symbol from plugin)
DMA1_Stream4_IRQHandler                           C:\Users\PRESTO~1\AppData\Local\Temp\cc3x6Wri.ltrans0.ltrans.o
                                                  output\REVOLT\startup_stm32f405xx.o
                                                  output\REVOLT\stm32f4xx_it.o (symbol from plugin)
DMA1_Stream5_IRQHandler                           C:\Users\PRESTO~1\AppData\Local\Temp\cc3x6Wri.ltrans0.ltrans.o
                                                  output\REVOLT\startup_stm32f405xx.o
                                                  output\REVOLT\stm32f4xx_it.o (symbol from plugin)
DMA1_Stream6_IRQHandler                           C:\Users\PRESTO~1\AppData\Local\Temp\cc3x6Wri.ltrans0.ltrans.o
                                                  output\REVOLT\startup_stm32f405xx.o
                                                  output\REVOLT\stm32f4xx_it.o (symbol from plugin)
DMA1_Stream7_IRQHandler                           C:\Users\PRESTO~1\AppData\Local\Temp\cc3x6Wri.ltrans0.ltrans.o
                                                  output\REVOLT\startup_stm32f405xx.o
                                                  output\REVOLT\stm32f4xx_it.o (symbol from plugin)
DMA2_Stream0_IRQHandler                           C:\Users\PRESTO~1\AppData\Local\Temp\cc3x6Wri.ltrans0.ltrans.o
                                                  output\REVOLT\startup_stm32f405xx.o
                                                  output\REVOLT\stm32f4xx_it.o (symbol from plugin)
DMA2_Stream1_IRQHandler                           C:\Users\PRESTO~1\AppData\Local\Temp\cc3x6Wri.ltrans0.ltrans.o
                                                  output\REVOLT\startup_stm32f405xx.o
                                                  output\REVOLT\stm32f4xx_it.o (symbol from plugin)
DMA2_Stream2_IRQHandler                           C:\Users\PRESTO~1\AppData\Local\Temp\cc3x6Wri.ltrans0.ltrans.o
                                                  output\REVOLT\startup_stm32f405xx.o
                                                  output\REVOLT\stm32f4xx_it.o (symbol from plugin)
DMA2_Stream3_IRQHandler                           C:\Users\PRESTO~1\AppData\Local\Temp\cc3x6Wri.ltrans0.ltrans.o
                                                  output\REVOLT\startup_stm32f405xx.o
                                                  output\REVOLT\stm32f4xx_it.o (symbol from plugin)
DMA2_Stream4_IRQHandler                           C:\Users\PRESTO~1\AppData\Local\Temp\cc3x6Wri.ltrans0.ltrans.o
                                                  output\REVOLT\startup_stm32f405xx.o
                                                  output\REVOLT\stm32f4xx_it.o (symbol from plugin)
DMA2_Stream5_IRQHandler                           C:\Users\PRESTO~1\AppData\Local\Temp\cc3x6Wri.ltrans0.ltrans.o
                                                  output\REVOLT\startup_stm32f405xx.o
                                                  output\REVOLT\stm32f4xx_it.o (symbol from plugin)
DMA2_Stream6_IRQHandler                           C:\Users\PRESTO~1\AppData\Local\Temp\cc3x6Wri.ltrans0.ltrans.o
                                                  output\REVOLT\startup_stm32f405xx.o
                                                  output\REVOLT\stm32f4xx_it.o (symbol from plugin)
DMA2_Stream7_IRQHandler                           C:\Users\PRESTO~1\AppData\Local\Temp\cc3x6Wri.ltrans0.ltrans.o
                                                  output\REVOLT\startup_stm32f405xx.o
                                                  output\REVOLT\stm32f4xx_it.o (symbol from plugin)
DataFlashProgramPage                              output\REVOLT\flash_chip.o (symbol from plugin)
DeInitActuators                                   C:\Users\PRESTO~1\AppData\Local\Temp\cc3x6Wri.ltrans24.ltrans.o
                                                  output\REVOLT\actuator_output.o (symbol from plugin)
                                                  C:\Users\PRESTO~1\AppData\Local\Temp\cc3x6Wri.ltrans7.ltrans.o
                                                  C:\Users\PRESTO~1\AppData\Local\Temp\cc3x6Wri.ltrans2.ltrans.o
                                                  output\REVOLT\esc_1wire.o (symbol from plugin)
                                                  output\REVOLT\flight.o (symbol from plugin)
DeInitAllowedSoftOutputs                          C:\Users\PRESTO~1\AppData\Local\Temp\cc3x6Wri.ltrans16.ltrans.o
                                                  output\REVOLT\dmaShenanigans.o (symbol from plugin)
                                                  C:\Users\PRESTO~1\AppData\Local\Temp\cc3x6Wri.ltrans2.ltrans.o
                                                  output\REVOLT\flight.o (symbol from plugin)
DeInitBlockingSoftSerialPort                      output\REVOLT\newSoftSerial.o (symbol from plugin)
                                                  output\REVOLT\smartAudio.o (symbol from plugin)
DeInitBoardUsarts                                 C:\Users\PRESTO~1\AppData\Local\Temp\cc3x6Wri.ltrans21.ltrans.o
                                                  output\REVOLT\serial.o (symbol from plugin)
                                                  C:\Users\PRESTO~1\AppData\Local\Temp\cc3x6Wri.ltrans2.ltrans.o
                                                  C:\Users\PRESTO~1\AppData\Local\Temp\cc3x6Wri.ltrans1.ltrans.o
                                                  output\REVOLT\wizard.o (symbol from plugin)
                                                  output\REVOLT\flight.o (symbol from plugin)
DeInitDmaOutputForSoftSerial                      output\REVOLT\dmaShenanigans.o (symbol from plugin)
                                                  output\REVOLT\esc_1wire.o (symbol from plugin)
DeInitFakeGyroExti                                output\REVOLT\scheduler.o (symbol from plugin)
                                                  output\REVOLT\newSoftSerial.o (symbol from plugin)
DeInitGyroExti                                    output\REVOLT\invensense_bus_spi.o (symbol from plugin)
                                                  output\REVOLT\scheduler.o (symbol from plugin)
DeInitSmartAudio                                  C:\Users\PRESTO~1\AppData\Local\Temp\cc3x6Wri.ltrans6.ltrans.o
                                                  output\REVOLT\smartAudio.o (symbol from plugin)
                                                  C:\Users\PRESTO~1\AppData\Local\Temp\cc3x6Wri.ltrans14.ltrans.o
                                                  C:\Users\PRESTO~1\AppData\Local\Temp\cc3x6Wri.ltrans1.ltrans.o
                                                  output\REVOLT\telemetry.o (symbol from plugin)
                                                  output\REVOLT\config.o (symbol from plugin)
DeInitSoftSport                                   output\REVOLT\sPortTelemetry.o (symbol from plugin)
                                                  output\REVOLT\smartAudio.o (symbol from plugin)
DeInitTrampTelemetry                              output\REVOLT\trampTelemetry.o (symbol from plugin)
DeInitializeGpio                                  output\REVOLT\general_functions.o (symbol from plugin)
                                                  output\REVOLT\newSoftSerial.o (symbol from plugin)
DebugGpioOff                                      output\REVOLT\debug.o (symbol from plugin)
DebugGpioOn                                       output\REVOLT\debug.o (symbol from plugin)
DebugMon_Handler                                  C:\Users\PRESTO~1\AppData\Local\Temp\cc3x6Wri.ltrans0.ltrans.o
                                                  output\REVOLT\startup_stm32f405xx.o
                                                  output\REVOLT\stm32f4xx_it.o (symbol from plugin)
Default_Handler                                   output\REVOLT\startup_stm32f405xx.o
DeinitFlight                                      C:\Users\PRESTO~1\AppData\Local\Temp\cc3x6Wri.ltrans2.ltrans.o
                                                  output\REVOLT\flight.o (symbol from plugin)
                                                  C:\Users\PRESTO~1\AppData\Local\Temp\cc3x6Wri.ltrans9.ltrans.o
                                                  C:\Users\PRESTO~1\AppData\Local\Temp\cc3x6Wri.ltrans7.ltrans.o
                                                  C:\Users\PRESTO~1\AppData\Local\Temp\cc3x6Wri.ltrans3.ltrans.o
                                                  C:\Users\PRESTO~1\AppData\Local\Temp\cc3x6Wri.ltrans1.ltrans.o
                                                  output\REVOLT\esc_1wire.o (symbol from plugin)
                                                  output\REVOLT\dshotTwoWay.o (symbol from plugin)
                                                  output\REVOLT\scheduler.o (symbol from plugin)
                                                  output\REVOLT\quopa.o (symbol from plugin)
                                                  output\REVOLT\config.o (symbol from plugin)
DelayMs                                           output\REVOLT\general_functions.o (symbol from plugin)
                                                  output\REVOLT\rx.o (symbol from plugin)
                                                  output\REVOLT\invensense_bus_spi.o (symbol from plugin)
                                                  output\REVOLT\invensense_mpu_icm_device.o (symbol from plugin)
                                                  output\REVOLT\flash_chip.o (symbol from plugin)
                                                  output\REVOLT\actuator_output.o (symbol from plugin)
                                                  output\REVOLT\esc_1wire.o (symbol from plugin)
                                                  output\REVOLT\maxOsd.o (symbol from plugin)
                                                  output\REVOLT\softSerial.o (symbol from plugin)
                                                  output\REVOLT\trampTelemetry.o (symbol from plugin)
                                                  output\REVOLT\telemetry.o (symbol from plugin)
                                                  output\REVOLT\smartAudio.o (symbol from plugin)
                                                  output\REVOLT\dshotTwoWay.o (symbol from plugin)
                                                  output\REVOLT\wizard.o (symbol from plugin)
                                                  output\REVOLT\scheduler.o (symbol from plugin)
                                                  output\REVOLT\quopa.o (symbol from plugin)
                                                  output\REVOLT\flight.o (symbol from plugin)
                                                  output\REVOLT\config.o (symbol from plugin)
DirectActuator                                    C:\Users\PRESTO~1\AppData\Local\Temp\cc3x6Wri.ltrans24.ltrans.o
                                                  output\REVOLT\actuator_output.o (symbol from plugin)
                                                  C:\Users\PRESTO~1\AppData\Local\Temp\cc3x6Wri.ltrans1.ltrans.o
                                                  output\REVOLT\config.o (symbol from plugin)
DisableLogging                                    output\REVOLT\flight_logger.o (symbol from plugin)
DisableMode                                       output\REVOLT\modes.o (symbol from plugin)
                                                  output\REVOLT\config.o (symbol from plugin)
DisarmBoard                                       C:\Users\PRESTO~1\AppData\Local\Temp\cc3x6Wri.ltrans2.ltrans.o
                                                  output\REVOLT\flight.o (symbol from plugin)
                                                  C:\Users\PRESTO~1\AppData\Local\Temp\cc3x6Wri.ltrans26.ltrans.o
                                                  C:\Users\PRESTO~1\AppData\Local\Temp\cc3x6Wri.ltrans25.ltrans.o
                                                  C:\Users\PRESTO~1\AppData\Local\Temp\cc3x6Wri.ltrans4.ltrans.o
                                                  C:\Users\PRESTO~1\AppData\Local\Temp\cc3x6Wri.ltrans1.ltrans.o
                                                  output\REVOLT\rx.o (symbol from plugin)
                                                  output\REVOLT\wizard.o (symbol from plugin)
                                                  output\REVOLT\config.o (symbol from plugin)
DisconnectBLHeli.lto_priv.236                     C:\Users\PRESTO~1\AppData\Local\Temp\cc3x6Wri.ltrans20.ltrans.o
                                                  C:\Users\PRESTO~1\AppData\Local\Temp\cc3x6Wri.ltrans7.ltrans.o
DlflStatusDump.lto_priv.209                       C:\Users\PRESTO~1\AppData\Local\Temp\cc3x6Wri.ltrans0.ltrans.o
                                                  C:\Users\PRESTO~1\AppData\Local\Temp\cc3x6Wri.ltrans1.ltrans.o
DoBuzz                                            output\REVOLT\buzzer.o (symbol from plugin)
DoBuzz.constprop.16                               C:\Users\PRESTO~1\AppData\Local\Temp\cc3x6Wri.ltrans21.ltrans.o
                                                  C:\Users\PRESTO~1\AppData\Local\Temp\cc3x6Wri.ltrans3.ltrans.o
DoIdleStop.lto_priv.208                           C:\Users\PRESTO~1\AppData\Local\Temp\cc3x6Wri.ltrans0.ltrans.o
                                                  C:\Users\PRESTO~1\AppData\Local\Temp\cc3x6Wri.ltrans1.ltrans.o
DoLed                                             output\REVOLT\leds.o (symbol from plugin)
                                                  output\REVOLT\scheduler.o (symbol from plugin)
DoLed.constprop.140                               C:\Users\PRESTO~1\AppData\Local\Temp\cc3x6Wri.ltrans11.ltrans.o
                                                  C:\Users\PRESTO~1\AppData\Local\Temp\cc3x6Wri.ltrans3.ltrans.o
DoLed.constprop.141                               C:\Users\PRESTO~1\AppData\Local\Temp\cc3x6Wri.ltrans27.ltrans.o
                                                  C:\Users\PRESTO~1\AppData\Local\Temp\cc3x6Wri.ltrans3.ltrans.o
DoLed.part.0                                      C:\Users\PRESTO~1\AppData\Local\Temp\cc3x6Wri.ltrans16.ltrans.o
                                                  C:\Users\PRESTO~1\AppData\Local\Temp\cc3x6Wri.ltrans3.ltrans.o
DoesDmaConflictWithActiveDmas                     output\REVOLT\dmaShenanigans.o (symbol from plugin)
                                                  output\REVOLT\sPortTelemetry.o (symbol from plugin)
DoesDmaConflictWithDshot                          output\REVOLT\dmaShenanigans.o (symbol from plugin)
DrawScreen.part.0.lto_priv.211                    C:\Users\PRESTO~1\AppData\Local\Temp\cc3x6Wri.ltrans12.ltrans.o
                                                  C:\Users\PRESTO~1\AppData\Local\Temp\cc3x6Wri.ltrans20.ltrans.o
                                                  C:\Users\PRESTO~1\AppData\Local\Temp\cc3x6Wri.ltrans1.ltrans.o
DumbWriteString                                   output\REVOLT\flight_logger.o (symbol from plugin)
EXTI0_IRQHandler                                  C:\Users\PRESTO~1\AppData\Local\Temp\cc3x6Wri.ltrans0.ltrans.o
                                                  output\REVOLT\startup_stm32f405xx.o
                                                  output\REVOLT\stm32f4xx_it.o (symbol from plugin)
EXTI15_10_IRQHandler                              C:\Users\PRESTO~1\AppData\Local\Temp\cc3x6Wri.ltrans0.ltrans.o
                                                  output\REVOLT\startup_stm32f405xx.o
                                                  output\REVOLT\stm32f4xx_it.o (symbol from plugin)
EXTI1_IRQHandler                                  C:\Users\PRESTO~1\AppData\Local\Temp\cc3x6Wri.ltrans0.ltrans.o
                                                  output\REVOLT\startup_stm32f405xx.o
                                                  output\REVOLT\stm32f4xx_it.o (symbol from plugin)
EXTI2_IRQHandler                                  C:\Users\PRESTO~1\AppData\Local\Temp\cc3x6Wri.ltrans0.ltrans.o
                                                  output\REVOLT\startup_stm32f405xx.o
                                                  output\REVOLT\stm32f4xx_it.o (symbol from plugin)
EXTI3_IRQHandler                                  C:\Users\PRESTO~1\AppData\Local\Temp\cc3x6Wri.ltrans0.ltrans.o
                                                  output\REVOLT\startup_stm32f405xx.o
                                                  output\REVOLT\stm32f4xx_it.o (symbol from plugin)
EXTI4_IRQHandler                                  C:\Users\PRESTO~1\AppData\Local\Temp\cc3x6Wri.ltrans0.ltrans.o
                                                  output\REVOLT\startup_stm32f405xx.o
                                                  output\REVOLT\stm32f4xx_it.o (symbol from plugin)
EXTI9_5_IRQHandler                                C:\Users\PRESTO~1\AppData\Local\Temp\cc3x6Wri.ltrans0.ltrans.o
                                                  output\REVOLT\startup_stm32f405xx.o
                                                  output\REVOLT\stm32f4xx_it.o (symbol from plugin)
EXTI_Deinit                                       output\REVOLT\exti.o (symbol from plugin)
                                                  output\REVOLT\serial.o (symbol from plugin)
                                                  output\REVOLT\invensense_bus_spi.o (symbol from plugin)
                                                  output\REVOLT\dmaShenanigans.o (symbol from plugin)
                                                  output\REVOLT\sPortTelemetry.o (symbol from plugin)
                                                  output\REVOLT\newSoftSerial.o (symbol from plugin)
EXTI_Init                                         C:\Users\PRESTO~1\AppData\Local\Temp\cc3x6Wri.ltrans0.ltrans.o
                                                  output\REVOLT\exti.o (symbol from plugin)
                                                  C:\Users\PRESTO~1\AppData\Local\Temp\cc3x6Wri.ltrans3.ltrans.o
                                                  C:\Users\PRESTO~1\AppData\Local\Temp\cc3x6Wri.ltrans2.ltrans.o
                                                  output\REVOLT\serial.o (symbol from plugin)
                                                  output\REVOLT\invensense_bus_spi.o (symbol from plugin)
                                                  output\REVOLT\softSerial.o (symbol from plugin)
                                                  output\REVOLT\sPortTelemetry.o (symbol from plugin)
                                                  output\REVOLT\newSoftSerial.o (symbol from plugin)
EepromEraseSiLabsBLHeli.lto_priv.242              C:\Users\PRESTO~1\AppData\Local\Temp\cc3x6Wri.ltrans20.ltrans.o
                                                  C:\Users\PRESTO~1\AppData\Local\Temp\cc3x6Wri.ltrans7.ltrans.o
EnableLogging                                     output\REVOLT\flight_logger.o (symbol from plugin)
EnableMode                                        output\REVOLT\modes.o (symbol from plugin)
                                                  output\REVOLT\config.o (symbol from plugin)
EraseFlash                                        output\REVOLT\flash.o (symbol from plugin)
                                                  output\REVOLT\config.o (symbol from plugin)
EraseSingleSector.lto_priv.226                    C:\Users\PRESTO~1\AppData\Local\Temp\cc3x6Wri.ltrans18.ltrans.o
                                                  C:\Users\PRESTO~1\AppData\Local\Temp\cc3x6Wri.ltrans23.ltrans.o
                                                  C:\Users\PRESTO~1\AppData\Local\Temp\cc3x6Wri.ltrans2.ltrans.o
ErrorHandler                                      C:\Users\PRESTO~1\AppData\Local\Temp\cc3x6Wri.ltrans26.ltrans.o
                                                  output\REVOLT\scheduler.o (symbol from plugin)
                                                  C:\Users\PRESTO~1\AppData\Local\Temp\cc3x6Wri.ltrans25.ltrans.o
                                                  C:\Users\PRESTO~1\AppData\Local\Temp\cc3x6Wri.ltrans23.ltrans.o
                                                  C:\Users\PRESTO~1\AppData\Local\Temp\cc3x6Wri.ltrans17.ltrans.o
                                                  C:\Users\PRESTO~1\AppData\Local\Temp\cc3x6Wri.ltrans16.ltrans.o
                                                  C:\Users\PRESTO~1\AppData\Local\Temp\cc3x6Wri.ltrans5.ltrans.o
                                                  C:\Users\PRESTO~1\AppData\Local\Temp\cc3x6Wri.ltrans2.ltrans.o
                                                  C:\Users\PRESTO~1\AppData\Local\Temp\cc3x6Wri.ltrans0.ltrans.o
                                                  output\REVOLT\spm_laptimer.o (symbol from plugin)
                                                  output\REVOLT\serial.o (symbol from plugin)
                                                  output\REVOLT\invensense_bus_spi.o (symbol from plugin)
                                                  output\REVOLT\flash_chip.o (symbol from plugin)
                                                  output\REVOLT\dmaShenanigans.o (symbol from plugin)
                                                  output\REVOLT\maxOsd.o (symbol from plugin)
                                                  output\REVOLT\adc.o (symbol from plugin)
                                                  output\REVOLT\crossfire.o (symbol from plugin)
                                                  output\REVOLT\flight.o (symbol from plugin)
                                                  output\REVOLT\stm32f4xx_spi_msp.o (symbol from plugin)
                                                  output\REVOLT\stm32f4xx_it.o (symbol from plugin)
Esc1WireParameterFromDump                         output\REVOLT\esc_1wire.o (symbol from plugin)
                                                  output\REVOLT\wizard.o (symbol from plugin)
Esc1WireSetParameter                              output\REVOLT\esc_1wire.o (symbol from plugin)
                                                  output\REVOLT\wizard.o (symbol from plugin)
EulerToVector                                     output\REVOLT\imu.o (symbol from plugin)
FLASH_Erase_Sector                                output\REVOLT\stm32f4xx_hal_flash_ex.o (symbol from plugin)
                                                  output\REVOLT\stm32f4xx_hal_flash.o (symbol from plugin)
FLASH_FlushCaches                                 output\REVOLT\stm32f4xx_hal_flash_ex.o (symbol from plugin)
                                                  output\REVOLT\stm32f4xx_hal_flash.o (symbol from plugin)
FLASH_IRQHandler                                  output\REVOLT\startup_stm32f405xx.o
FLASH_WaitForLastOperation                        output\REVOLT\stm32f4xx_hal_flash.o (symbol from plugin)
                                                  output\REVOLT\stm32f4xx_hal_flash_ex.o (symbol from plugin)
FLASH_WaitForLastOperation.constprop.167          C:\Users\PRESTO~1\AppData\Local\Temp\cc3x6Wri.ltrans28.ltrans.o
                                                  C:\Users\PRESTO~1\AppData\Local\Temp\cc3x6Wri.ltrans13.ltrans.o
FPU_IRQHandler                                    output\REVOLT\startup_stm32f405xx.o
FSMC_IRQHandler                                   output\REVOLT\startup_stm32f405xx.o
FS_Desc                                           output\REVOLT\usbd_desc.o (symbol from plugin)
                                                  output\REVOLT\usb_device.o (symbol from plugin)
FULL_32                                           output\REVOLT\stm32f4.o (symbol from plugin)
                                                  output\REVOLT\flight.o (symbol from plugin)
FeedTheDog                                        output\REVOLT\watchdog.o (symbol from plugin)
                                                  output\REVOLT\rx.o (symbol from plugin)
                                                  output\REVOLT\flash_chip.o (symbol from plugin)
                                                  output\REVOLT\esc_1wire.o (symbol from plugin)
                                                  output\REVOLT\wizard.o (symbol from plugin)
                                                  output\REVOLT\scheduler.o (symbol from plugin)
                                                  output\REVOLT\main.o (symbol from plugin)
                                                  output\REVOLT\flight.o (symbol from plugin)
FillLuaPacket                                     C:\Users\PRESTO~1\AppData\Local\Temp\cc3x6Wri.ltrans22.ltrans.o
                                                  output\REVOLT\sPortTelemetry.o (symbol from plugin)
                                                  C:\Users\PRESTO~1\AppData\Local\Temp\cc3x6Wri.ltrans3.ltrans.o
FindEscHexInFlashByName                           output\REVOLT\esc_1wire.o (symbol from plugin)
FindFirstEmptyPage                                output\REVOLT\flash_chip.o (symbol from plugin)
FindLatestPersistance.lto_priv.277                C:\Users\PRESTO~1\AppData\Local\Temp\cc3x6Wri.ltrans17.ltrans.o
                                                  C:\Users\PRESTO~1\AppData\Local\Temp\cc3x6Wri.ltrans2.ltrans.o
FinishBlock                                       output\REVOLT\flight_logger.o (symbol from plugin)
FinishFlash                                       output\REVOLT\flash.o (symbol from plugin)
                                                  output\REVOLT\config.o (symbol from plugin)
FinishPage                                        output\REVOLT\flight_logger.o (symbol from plugin)
FlashChipReadData                                 output\REVOLT\flash_chip.o (symbol from plugin)
FlashChipWriteData                                output\REVOLT\flash_chip.o (symbol from plugin)
FlashDeinit                                       output\REVOLT\flash_chip.o (symbol from plugin)
FlashDmaRxCallback                                C:\Users\PRESTO~1\AppData\Local\Temp\cc3x6Wri.ltrans23.ltrans.o
                                                  output\REVOLT\flash_chip.o (symbol from plugin)
                                                  C:\Users\PRESTO~1\AppData\Local\Temp\cc3x6Wri.ltrans0.ltrans.o
                                                  output\REVOLT\boarddef.o (symbol from plugin)
ForceUpdateCharMap                                output\REVOLT\maxOsd.o (symbol from plugin)
                                                  output\REVOLT\config.o (symbol from plugin)
ForceUpdateOsd                                    output\REVOLT\maxOsd.o (symbol from plugin)
                                                  output\REVOLT\config.o (symbol from plugin)
ForeAftMixerFixer                                 output\REVOLT\mixer.o (symbol from plugin)
GeneralInterruptTimerCallback                     C:\Users\PRESTO~1\AppData\Local\Temp\cc3x6Wri.ltrans26.ltrans.o
                                                  output\REVOLT\scheduler.o (symbol from plugin)
                                                  C:\Users\PRESTO~1\AppData\Local\Temp\cc3x6Wri.ltrans11.ltrans.o
GenerateConfig                                    C:\Users\PRESTO~1\AppData\Local\Temp\cc3x6Wri.ltrans0.ltrans.o
                                                  output\REVOLT\config.o (symbol from plugin)
                                                  C:\Users\PRESTO~1\AppData\Local\Temp\cc3x6Wri.ltrans3.ltrans.o
                                                  C:\Users\PRESTO~1\AppData\Local\Temp\cc3x6Wri.ltrans1.ltrans.o
GenerateMenus                                     C:\Users\PRESTO~1\AppData\Local\Temp\cc3x6Wri.ltrans22.ltrans.o
                                                  output\REVOLT\sPortTelemetry.o (symbol from plugin)
                                                  C:\Users\PRESTO~1\AppData\Local\Temp\cc3x6Wri.ltrans3.ltrans.o
GenerateQuaternionFromGyroVector                  output\REVOLT\imu.o (symbol from plugin)
GetBoardHardwareDefs                              C:\Users\PRESTO~1\AppData\Local\Temp\cc3x6Wri.ltrans0.ltrans.o
                                                  output\REVOLT\boarddef.o (symbol from plugin)
                                                  C:\Users\PRESTO~1\AppData\Local\Temp\cc3x6Wri.ltrans3.ltrans.o
                                                  output\REVOLT\main.o (symbol from plugin)
GetChecksum8                                      output\REVOLT\rf_math.o (symbol from plugin)
                                                  output\REVOLT\config.o (symbol from plugin)
GetDmaCallbackFromDmaStream                       output\REVOLT\general_functions.o (symbol from plugin)
                                                  output\REVOLT\serial.o (symbol from plugin)
GetExtiCallbackFromPin                            C:\Users\PRESTO~1\AppData\Local\Temp\cc3x6Wri.ltrans0.ltrans.o
                                                  output\REVOLT\general_functions.o (symbol from plugin)
                                                  C:\Users\PRESTO~1\AppData\Local\Temp\cc3x6Wri.ltrans2.ltrans.o
                                                  output\REVOLT\serial.o (symbol from plugin)
                                                  output\REVOLT\newSoftSerial.o (symbol from plugin)
GetExtinFromPin                                   C:\Users\PRESTO~1\AppData\Local\Temp\cc3x6Wri.ltrans0.ltrans.o
                                                  output\REVOLT\general_functions.o (symbol from plugin)
                                                  C:\Users\PRESTO~1\AppData\Local\Temp\cc3x6Wri.ltrans21.ltrans.o
                                                  C:\Users\PRESTO~1\AppData\Local\Temp\cc3x6Wri.ltrans11.ltrans.o
                                                  C:\Users\PRESTO~1\AppData\Local\Temp\cc3x6Wri.ltrans2.ltrans.o
                                                  output\REVOLT\serial.o (symbol from plugin)
                                                  output\REVOLT\newSoftSerial.o (symbol from plugin)
GetFlashSector                                    output\REVOLT\flash.o (symbol from plugin)
GetLatestPersistance.lto_priv.276                 C:\Users\PRESTO~1\AppData\Local\Temp\cc3x6Wri.ltrans17.ltrans.o
                                                  C:\Users\PRESTO~1\AppData\Local\Temp\cc3x6Wri.ltrans2.ltrans.o
GetTimerCallbackFromTimerEnum                     output\REVOLT\general_functions.o (symbol from plugin)
                                                  output\REVOLT\spm_laptimer.o (symbol from plugin)
                                                  output\REVOLT\scheduler.o (symbol from plugin)
                                                  output\REVOLT\newSoftSerial.o (symbol from plugin)
GyroExtiCallback                                  C:\Users\PRESTO~1\AppData\Local\Temp\cc3x6Wri.ltrans23.ltrans.o
                                                  output\REVOLT\invensense_bus_spi.o (symbol from plugin)
                                                  C:\Users\PRESTO~1\AppData\Local\Temp\cc3x6Wri.ltrans0.ltrans.o
                                                  output\REVOLT\scheduler.o (symbol from plugin)
                                                  output\REVOLT\boarddef.o (symbol from plugin)
GyroRxDmaCallback                                 C:\Users\PRESTO~1\AppData\Local\Temp\cc3x6Wri.ltrans23.ltrans.o
                                                  output\REVOLT\invensense_bus_spi.o (symbol from plugin)
                                                  C:\Users\PRESTO~1\AppData\Local\Temp\cc3x6Wri.ltrans0.ltrans.o
                                                  output\REVOLT\boarddef.o (symbol from plugin)
HAL_ADCEx_InjectedConfigChannel                   output\REVOLT\stm32f4xx_hal_adc_ex.o (symbol from plugin)
HAL_ADCEx_InjectedConvCpltCallback                output\REVOLT\stm32f4xx_hal_adc_ex.o (symbol from plugin)
                                                  output\REVOLT\stm32f4xx_hal_adc.o (symbol from plugin)
HAL_ADCEx_InjectedGetValue                        output\REVOLT\stm32f4xx_hal_adc_ex.o (symbol from plugin)
HAL_ADCEx_InjectedPollForConversion               output\REVOLT\stm32f4xx_hal_adc_ex.o (symbol from plugin)
HAL_ADCEx_InjectedStart                           output\REVOLT\stm32f4xx_hal_adc_ex.o (symbol from plugin)
HAL_ADCEx_InjectedStart_IT                        output\REVOLT\stm32f4xx_hal_adc_ex.o (symbol from plugin)
HAL_ADCEx_InjectedStop                            output\REVOLT\stm32f4xx_hal_adc_ex.o (symbol from plugin)
HAL_ADCEx_InjectedStop_IT                         output\REVOLT\stm32f4xx_hal_adc_ex.o (symbol from plugin)
HAL_ADCEx_MultiModeConfigChannel                  output\REVOLT\stm32f4xx_hal_adc_ex.o (symbol from plugin)
HAL_ADCEx_MultiModeGetValue                       output\REVOLT\stm32f4xx_hal_adc_ex.o (symbol from plugin)
HAL_ADCEx_MultiModeStart_DMA                      output\REVOLT\stm32f4xx_hal_adc_ex.o (symbol from plugin)
HAL_ADCEx_MultiModeStop_DMA                       output\REVOLT\stm32f4xx_hal_adc_ex.o (symbol from plugin)
HAL_ADC_AnalogWDGConfig                           output\REVOLT\stm32f4xx_hal_adc.o (symbol from plugin)
HAL_ADC_ConfigChannel                             output\REVOLT\stm32f4xx_hal_adc.o (symbol from plugin)
                                                  output\REVOLT\adc.o (symbol from plugin)
HAL_ADC_ConfigChannel.constprop.81                C:\Users\PRESTO~1\AppData\Local\Temp\cc3x6Wri.ltrans11.ltrans.o
                                                  C:\Users\PRESTO~1\AppData\Local\Temp\cc3x6Wri.ltrans2.ltrans.o
HAL_ADC_ConvCpltCallback                          output\REVOLT\adc.o (symbol from plugin)
                                                  output\REVOLT\stm32f4xx_hal_adc.o (symbol from plugin)
                                                  output\REVOLT\stm32f4xx_hal_adc_ex.o (symbol from plugin)
HAL_ADC_ConvHalfCpltCallback                      output\REVOLT\stm32f4xx_hal_adc.o (symbol from plugin)
                                                  output\REVOLT\stm32f4xx_hal_adc_ex.o (symbol from plugin)
HAL_ADC_DeInit                                    output\REVOLT\stm32f4xx_hal_adc.o (symbol from plugin)
HAL_ADC_ErrorCallback                             output\REVOLT\stm32f4xx_hal_adc.o (symbol from plugin)
                                                  output\REVOLT\stm32f4xx_hal_adc_ex.o (symbol from plugin)
HAL_ADC_GetError                                  output\REVOLT\stm32f4xx_hal_adc.o (symbol from plugin)
HAL_ADC_GetState                                  output\REVOLT\stm32f4xx_hal_adc.o (symbol from plugin)
HAL_ADC_GetValue                                  output\REVOLT\stm32f4xx_hal_adc.o (symbol from plugin)
HAL_ADC_IRQHandler                                output\REVOLT\stm32f4xx_hal_adc.o (symbol from plugin)
                                                  output\REVOLT\stm32f4xx_it.o (symbol from plugin)
HAL_ADC_Init                                      output\REVOLT\stm32f4xx_hal_adc.o (symbol from plugin)
                                                  output\REVOLT\adc.o (symbol from plugin)
HAL_ADC_LevelOutOfWindowCallback                  output\REVOLT\stm32f4xx_hal_adc.o (symbol from plugin)
HAL_ADC_MspDeInit                                 output\REVOLT\stm32f4xx_hal_adc.o (symbol from plugin)
HAL_ADC_MspInit                                   output\REVOLT\stm32f4xx_hal_adc.o (symbol from plugin)
HAL_ADC_PollForConversion                         output\REVOLT\stm32f4xx_hal_adc.o (symbol from plugin)
HAL_ADC_PollForEvent                              output\REVOLT\stm32f4xx_hal_adc.o (symbol from plugin)
HAL_ADC_Start                                     output\REVOLT\stm32f4xx_hal_adc.o (symbol from plugin)
HAL_ADC_Start_DMA                                 output\REVOLT\stm32f4xx_hal_adc.o (symbol from plugin)
                                                  output\REVOLT\adc.o (symbol from plugin)
HAL_ADC_Start_IT                                  output\REVOLT\stm32f4xx_hal_adc.o (symbol from plugin)
HAL_ADC_Stop                                      output\REVOLT\stm32f4xx_hal_adc.o (symbol from plugin)
HAL_ADC_Stop_DMA                                  output\REVOLT\stm32f4xx_hal_adc.o (symbol from plugin)
HAL_ADC_Stop_IT                                   output\REVOLT\stm32f4xx_hal_adc.o (symbol from plugin)
HAL_DBGMCU_DisableDBGSleepMode                    output\REVOLT\stm32f4xx_hal.o (symbol from plugin)
HAL_DBGMCU_DisableDBGStandbyMode                  output\REVOLT\stm32f4xx_hal.o (symbol from plugin)
HAL_DBGMCU_DisableDBGStopMode                     output\REVOLT\stm32f4xx_hal.o (symbol from plugin)
HAL_DBGMCU_EnableDBGSleepMode                     output\REVOLT\stm32f4xx_hal.o (symbol from plugin)
HAL_DBGMCU_EnableDBGStandbyMode                   output\REVOLT\stm32f4xx_hal.o (symbol from plugin)
HAL_DBGMCU_EnableDBGStopMode                      output\REVOLT\stm32f4xx_hal.o (symbol from plugin)
HAL_DMAEx_ChangeMemory                            output\REVOLT\stm32f4xx_hal_dma_ex.o (symbol from plugin)
HAL_DMAEx_MultiBufferStart                        output\REVOLT\stm32f4xx_hal_dma_ex.o (symbol from plugin)
HAL_DMAEx_MultiBufferStart_IT                     output\REVOLT\stm32f4xx_hal_dma_ex.o (symbol from plugin)
HAL_DMA_Abort                                     output\REVOLT\stm32f4xx_hal_dma.o (symbol from plugin)
                                                  output\REVOLT\stm32f4xx_hal_usart.o (symbol from plugin)
                                                  output\REVOLT\stm32f4xx_hal_uart.o (symbol from plugin)
                                                  output\REVOLT\stm32f4xx_hal_tim.o (symbol from plugin)
                                                  output\REVOLT\stm32f4xx_hal_spi.o (symbol from plugin)
                                                  output\REVOLT\stm32f4xx_hal_adc_ex.o (symbol from plugin)
                                                  output\REVOLT\stm32f4xx_hal_adc.o (symbol from plugin)
HAL_DMA_Abort_IT                                  output\REVOLT\stm32f4xx_hal_dma.o (symbol from plugin)
                                                  output\REVOLT\stm32f4xx_hal_usart.o (symbol from plugin)
                                                  output\REVOLT\stm32f4xx_hal_uart.o (symbol from plugin)
                                                  output\REVOLT\stm32f4xx_hal_spi.o (symbol from plugin)
HAL_DMA_DeInit                                    output\REVOLT\stm32f4xx_hal_dma.o (symbol from plugin)
                                                  output\REVOLT\serial.o (symbol from plugin)
                                                  output\REVOLT\dmaShenanigans.o (symbol from plugin)
                                                  output\REVOLT\stm32f4xx_spi_msp.o (symbol from plugin)
HAL_DMA_GetError                                  output\REVOLT\stm32f4xx_hal_dma.o (symbol from plugin)
HAL_DMA_GetState                                  output\REVOLT\stm32f4xx_hal_dma.o (symbol from plugin)
                                                  output\REVOLT\invensense_bus_spi.o (symbol from plugin)
                                                  output\REVOLT\flash_chip.o (symbol from plugin)
                                                  output\REVOLT\maxOsd.o (symbol from plugin)
HAL_DMA_IRQHandler                                C:\Users\PRESTO~1\AppData\Local\Temp\cc3x6Wri.ltrans5.ltrans.o
                                                  output\REVOLT\stm32f4xx_hal_dma.o (symbol from plugin)
                                                  C:\Users\PRESTO~1\AppData\Local\Temp\cc3x6Wri.ltrans21.ltrans.o
                                                  C:\Users\PRESTO~1\AppData\Local\Temp\cc3x6Wri.ltrans0.ltrans.o
                                                  output\REVOLT\serial.o (symbol from plugin)
                                                  output\REVOLT\stm32f4xx_it.o (symbol from plugin)
HAL_DMA_Init                                      C:\Users\PRESTO~1\AppData\Local\Temp\cc3x6Wri.ltrans7.ltrans.o
                                                  output\REVOLT\stm32f4xx_hal_dma.o (symbol from plugin)
                                                  C:\Users\PRESTO~1\AppData\Local\Temp\cc3x6Wri.ltrans23.ltrans.o
                                                  C:\Users\PRESTO~1\AppData\Local\Temp\cc3x6Wri.ltrans21.ltrans.o
                                                  C:\Users\PRESTO~1\AppData\Local\Temp\cc3x6Wri.ltrans16.ltrans.o
                                                  C:\Users\PRESTO~1\AppData\Local\Temp\cc3x6Wri.ltrans5.ltrans.o
                                                  C:\Users\PRESTO~1\AppData\Local\Temp\cc3x6Wri.ltrans2.ltrans.o
                                                  output\REVOLT\serial.o (symbol from plugin)
                                                  output\REVOLT\dmaShenanigans.o (symbol from plugin)
                                                  output\REVOLT\adc.o (symbol from plugin)
                                                  output\REVOLT\stm32f4xx_spi_msp.o (symbol from plugin)
HAL_DMA_PollForTransfer                           output\REVOLT\stm32f4xx_hal_dma.o (symbol from plugin)
HAL_DMA_RegisterCallback                          output\REVOLT\stm32f4xx_hal_dma.o (symbol from plugin)
HAL_DMA_Start                                     output\REVOLT\stm32f4xx_hal_dma.o (symbol from plugin)
HAL_DMA_Start_IT                                  C:\Users\PRESTO~1\AppData\Local\Temp\cc3x6Wri.ltrans7.ltrans.o
                                                  output\REVOLT\stm32f4xx_hal_dma.o (symbol from plugin)
                                                  C:\Users\PRESTO~1\AppData\Local\Temp\cc3x6Wri.ltrans30.ltrans.o
                                                  C:\Users\PRESTO~1\AppData\Local\Temp\cc3x6Wri.ltrans25.ltrans.o
                                                  C:\Users\PRESTO~1\AppData\Local\Temp\cc3x6Wri.ltrans22.ltrans.o
                                                  C:\Users\PRESTO~1\AppData\Local\Temp\cc3x6Wri.ltrans21.ltrans.o
                                                  C:\Users\PRESTO~1\AppData\Local\Temp\cc3x6Wri.ltrans19.ltrans.o
                                                  C:\Users\PRESTO~1\AppData\Local\Temp\cc3x6Wri.ltrans15.ltrans.o
                                                  C:\Users\PRESTO~1\AppData\Local\Temp\cc3x6Wri.ltrans8.ltrans.o
                                                  C:\Users\PRESTO~1\AppData\Local\Temp\cc3x6Wri.ltrans6.ltrans.o
                                                  C:\Users\PRESTO~1\AppData\Local\Temp\cc3x6Wri.ltrans2.ltrans.o
                                                  C:\Users\PRESTO~1\AppData\Local\Temp\cc3x6Wri.ltrans1.ltrans.o
                                                  output\REVOLT\stm32f4xx_hal_usart.o (symbol from plugin)
                                                  output\REVOLT\stm32f4xx_hal_uart.o (symbol from plugin)
                                                  output\REVOLT\stm32f4xx_hal_tim_ex.o (symbol from plugin)
                                                  output\REVOLT\stm32f4xx_hal_tim.o (symbol from plugin)
                                                  output\REVOLT\stm32f4xx_hal_spi.o (symbol from plugin)
                                                  output\REVOLT\stm32f4xx_hal_adc_ex.o (symbol from plugin)
                                                  output\REVOLT\stm32f4xx_hal_adc.o (symbol from plugin)
HAL_DMA_UnRegisterCallback                        output\REVOLT\stm32f4xx_hal_dma.o (symbol from plugin)
                                                  output\REVOLT\serial.o (symbol from plugin)
                                                  output\REVOLT\dmaShenanigans.o (symbol from plugin)
                                                  output\REVOLT\adc.o (symbol from plugin)
                                                  output\REVOLT\stm32f4xx_spi_msp.o (symbol from plugin)
HAL_DeInit                                        output\REVOLT\stm32f4xx_hal.o (symbol from plugin)
HAL_Delay                                         C:\Users\PRESTO~1\AppData\Local\Temp\cc3x6Wri.ltrans7.ltrans.o
                                                  output\REVOLT\stm32f4xx_hal.o (symbol from plugin)
                                                  C:\Users\PRESTO~1\AppData\Local\Temp\cc3x6Wri.ltrans28.ltrans.o
                                                  C:\Users\PRESTO~1\AppData\Local\Temp\cc3x6Wri.ltrans26.ltrans.o
                                                  C:\Users\PRESTO~1\AppData\Local\Temp\cc3x6Wri.ltrans13.ltrans.o
                                                  C:\Users\PRESTO~1\AppData\Local\Temp\cc3x6Wri.ltrans5.ltrans.o
                                                  C:\Users\PRESTO~1\AppData\Local\Temp\cc3x6Wri.ltrans3.ltrans.o
                                                  C:\Users\PRESTO~1\AppData\Local\Temp\cc3x6Wri.ltrans1.ltrans.o
                                                  output\REVOLT\usbd_conf.o (symbol from plugin)
                                                  output\REVOLT\stm32f4xx_ll_usb.o (symbol from plugin)
                                                  output\REVOLT\general_functions.o (symbol from plugin)
HAL_DisableCompensationCell                       output\REVOLT\stm32f4xx_hal.o (symbol from plugin)
HAL_EnableCompensationCell                        output\REVOLT\stm32f4xx_hal.o (symbol from plugin)
HAL_FLASHEx_Erase                                 output\REVOLT\stm32f4xx_hal_flash_ex.o (symbol from plugin)
                                                  output\REVOLT\flash.o (symbol from plugin)
HAL_FLASHEx_Erase_IT                              output\REVOLT\stm32f4xx_hal_flash_ex.o (symbol from plugin)
HAL_FLASHEx_OBGetConfig                           output\REVOLT\stm32f4xx_hal_flash_ex.o (symbol from plugin)
HAL_FLASHEx_OBProgram                             output\REVOLT\stm32f4xx_hal_flash_ex.o (symbol from plugin)
HAL_FLASH_EndOfOperationCallback                  output\REVOLT\stm32f4xx_hal_flash.o (symbol from plugin)
HAL_FLASH_GetError                                output\REVOLT\stm32f4xx_hal_flash.o (symbol from plugin)
HAL_FLASH_IRQHandler                              output\REVOLT\stm32f4xx_hal_flash.o (symbol from plugin)
HAL_FLASH_Lock                                    output\REVOLT\stm32f4xx_hal_flash.o (symbol from plugin)
                                                  output\REVOLT\flash.o (symbol from plugin)
HAL_FLASH_OB_Launch                               output\REVOLT\stm32f4xx_hal_flash.o (symbol from plugin)
HAL_FLASH_OB_Lock                                 output\REVOLT\stm32f4xx_hal_flash.o (symbol from plugin)
HAL_FLASH_OB_Unlock                               output\REVOLT\stm32f4xx_hal_flash.o (symbol from plugin)
HAL_FLASH_OperationErrorCallback                  output\REVOLT\stm32f4xx_hal_flash.o (symbol from plugin)
HAL_FLASH_Program                                 output\REVOLT\stm32f4xx_hal_flash.o (symbol from plugin)
                                                  output\REVOLT\flash.o (symbol from plugin)
HAL_FLASH_Program_IT                              output\REVOLT\stm32f4xx_hal_flash.o (symbol from plugin)
HAL_FLASH_Unlock                                  output\REVOLT\stm32f4xx_hal_flash.o (symbol from plugin)
                                                  output\REVOLT\flash.o (symbol from plugin)
HAL_GPIO_DeInit                                   C:\Users\PRESTO~1\AppData\Local\Temp\cc3x6Wri.ltrans5.ltrans.o
                                                  output\REVOLT\stm32f4xx_hal_gpio.o (symbol from plugin)
                                                  C:\Users\PRESTO~1\AppData\Local\Temp\cc3x6Wri.ltrans28.ltrans.o
                                                  C:\Users\PRESTO~1\AppData\Local\Temp\cc3x6Wri.ltrans24.ltrans.o
                                                  C:\Users\PRESTO~1\AppData\Local\Temp\cc3x6Wri.ltrans23.ltrans.o
                                                  C:\Users\PRESTO~1\AppData\Local\Temp\cc3x6Wri.ltrans21.ltrans.o
                                                  C:\Users\PRESTO~1\AppData\Local\Temp\cc3x6Wri.ltrans17.ltrans.o
                                                  C:\Users\PRESTO~1\AppData\Local\Temp\cc3x6Wri.ltrans16.ltrans.o
                                                  C:\Users\PRESTO~1\AppData\Local\Temp\cc3x6Wri.ltrans14.ltrans.o
                                                  C:\Users\PRESTO~1\AppData\Local\Temp\cc3x6Wri.ltrans11.ltrans.o
                                                  C:\Users\PRESTO~1\AppData\Local\Temp\cc3x6Wri.ltrans7.ltrans.o
                                                  C:\Users\PRESTO~1\AppData\Local\Temp\cc3x6Wri.ltrans6.ltrans.o
                                                  C:\Users\PRESTO~1\AppData\Local\Temp\cc3x6Wri.ltrans3.ltrans.o
                                                  C:\Users\PRESTO~1\AppData\Local\Temp\cc3x6Wri.ltrans2.ltrans.o
                                                  C:\Users\PRESTO~1\AppData\Local\Temp\cc3x6Wri.ltrans0.ltrans.o
                                                  output\REVOLT\spm_laptimer.o (symbol from plugin)
                                                  output\REVOLT\serial.o (symbol from plugin)
                                                  output\REVOLT\buzzer.o (symbol from plugin)
                                                  output\REVOLT\actuator_output.o (symbol from plugin)
                                                  output\REVOLT\dmaShenanigans.o (symbol from plugin)
                                                  output\REVOLT\transponder.o (symbol from plugin)
                                                  output\REVOLT\flight.o (symbol from plugin)
                                                  output\REVOLT\exti.o (symbol from plugin)
                                                  output\REVOLT\stm32f4xx_spi_msp.o (symbol from plugin)
                                                  output\REVOLT\stm32f4.o (symbol from plugin)
                                                  output\REVOLT\general_functions.o (symbol from plugin)
HAL_GPIO_EXTI_Callback                            output\REVOLT\stm32f4xx_hal_gpio.o (symbol from plugin)
HAL_GPIO_EXTI_IRQHandler                          output\REVOLT\stm32f4xx_hal_gpio.o (symbol from plugin)
                                                  output\REVOLT\invensense_bus_spi.o (symbol from plugin)
HAL_GPIO_Init                                     C:\Users\PRESTO~1\AppData\Local\Temp\cc3x6Wri.ltrans5.ltrans.o
                                                  output\REVOLT\stm32f4xx_hal_gpio.o (symbol from plugin)
                                                  C:\Users\PRESTO~1\AppData\Local\Temp\cc3x6Wri.ltrans21.ltrans.o
                                                  C:\Users\PRESTO~1\AppData\Local\Temp\cc3x6Wri.ltrans14.ltrans.o
                                                  C:\Users\PRESTO~1\AppData\Local\Temp\cc3x6Wri.ltrans12.ltrans.o
                                                  C:\Users\PRESTO~1\AppData\Local\Temp\cc3x6Wri.ltrans6.ltrans.o
                                                  C:\Users\PRESTO~1\AppData\Local\Temp\cc3x6Wri.ltrans3.ltrans.o
                                                  C:\Users\PRESTO~1\AppData\Local\Temp\cc3x6Wri.ltrans2.ltrans.o
                                                  output\REVOLT\spm_laptimer.o (symbol from plugin)
                                                  output\REVOLT\serial.o (symbol from plugin)
                                                  output\REVOLT\flash_chip.o (symbol from plugin)
                                                  output\REVOLT\buzzer.o (symbol from plugin)
                                                  output\REVOLT\actuator_output.o (symbol from plugin)
                                                  output\REVOLT\dmaShenanigans.o (symbol from plugin)
                                                  output\REVOLT\maxOsd.o (symbol from plugin)
                                                  output\REVOLT\transponder.o (symbol from plugin)
                                                  output\REVOLT\adc.o (symbol from plugin)
                                                  output\REVOLT\stm32f4xx_hal_rcc.o (symbol from plugin)
                                                  output\REVOLT\flight.o (symbol from plugin)
                                                  output\REVOLT\exti.o (symbol from plugin)
                                                  output\REVOLT\stm32f4xx_spi_msp.o (symbol from plugin)
                                                  output\REVOLT\stm32f4.o (symbol from plugin)
                                                  output\REVOLT\general_functions.o (symbol from plugin)
HAL_GPIO_Init.constprop.183                       C:\Users\PRESTO~1\AppData\Local\Temp\cc3x6Wri.ltrans28.ltrans.o
                                                  C:\Users\PRESTO~1\AppData\Local\Temp\cc3x6Wri.ltrans23.ltrans.o
                                                  C:\Users\PRESTO~1\AppData\Local\Temp\cc3x6Wri.ltrans5.ltrans.o
                                                  C:\Users\PRESTO~1\AppData\Local\Temp\cc3x6Wri.ltrans0.ltrans.o
HAL_GPIO_Init.constprop.184                       C:\Users\PRESTO~1\AppData\Local\Temp\cc3x6Wri.ltrans28.ltrans.o
                                                  C:\Users\PRESTO~1\AppData\Local\Temp\cc3x6Wri.ltrans2.ltrans.o
HAL_GPIO_Init.constprop.186                       C:\Users\PRESTO~1\AppData\Local\Temp\cc3x6Wri.ltrans28.ltrans.o
                                                  C:\Users\PRESTO~1\AppData\Local\Temp\cc3x6Wri.ltrans23.ltrans.o
                                                  C:\Users\PRESTO~1\AppData\Local\Temp\cc3x6Wri.ltrans5.ltrans.o
                                                  C:\Users\PRESTO~1\AppData\Local\Temp\cc3x6Wri.ltrans2.ltrans.o
HAL_GPIO_LockPin                                  output\REVOLT\stm32f4xx_hal_gpio.o (symbol from plugin)
HAL_GPIO_ReadPin                                  output\REVOLT\stm32f4xx_hal_gpio.o (symbol from plugin)
                                                  output\REVOLT\general_functions.o (symbol from plugin)
HAL_GPIO_TogglePin                                output\REVOLT\stm32f4xx_hal_gpio.o (symbol from plugin)
HAL_GPIO_WritePin                                 output\REVOLT\stm32f4xx_hal_gpio.o (symbol from plugin)
                                                  output\REVOLT\buzzer.o (symbol from plugin)
                                                  output\REVOLT\leds.o (symbol from plugin)
                                                  output\REVOLT\general_functions.o (symbol from plugin)
HAL_GetDEVID                                      output\REVOLT\stm32f4xx_hal.o (symbol from plugin)
HAL_GetHalVersion                                 output\REVOLT\stm32f4xx_hal.o (symbol from plugin)
HAL_GetREVID                                      output\REVOLT\stm32f4xx_hal.o (symbol from plugin)
HAL_GetTick                                       output\REVOLT\stm32f4xx_hal.o (symbol from plugin)
                                                  output\REVOLT\stm32f4xx_hal_usart.o (symbol from plugin)
                                                  output\REVOLT\stm32f4xx_hal_uart.o (symbol from plugin)
                                                  output\REVOLT\stm32f4xx_hal_spi.o (symbol from plugin)
                                                  output\REVOLT\stm32f4xx_hal_rtc_ex.o (symbol from plugin)
                                                  output\REVOLT\stm32f4xx_hal_rtc.o (symbol from plugin)
                                                  output\REVOLT\stm32f4xx_hal_rcc_ex.o (symbol from plugin)
                                                  output\REVOLT\stm32f4xx_hal_rcc.o (symbol from plugin)
                                                  output\REVOLT\stm32f4xx_hal_pwr_ex.o (symbol from plugin)
                                                  output\REVOLT\stm32f4xx_hal_flash.o (symbol from plugin)
                                                  output\REVOLT\stm32f4xx_hal_dma.o (symbol from plugin)
                                                  output\REVOLT\stm32f4xx_hal_adc_ex.o (symbol from plugin)
                                                  output\REVOLT\stm32f4xx_hal_adc.o (symbol from plugin)
                                                  output\REVOLT\general_functions.o (symbol from plugin)
HAL_HalfDuplex_EnableReceiver                     output\REVOLT\stm32f4xx_hal_uart.o (symbol from plugin)
HAL_HalfDuplex_EnableTransmitter                  output\REVOLT\stm32f4xx_hal_uart.o (symbol from plugin)
HAL_HalfDuplex_Init                               output\REVOLT\stm32f4xx_hal_uart.o (symbol from plugin)
                                                  output\REVOLT\serial.o (symbol from plugin)
HAL_IncTick                                       output\REVOLT\stm32f4xx_hal.o (symbol from plugin)
                                                  output\REVOLT\stm32f4xx_it.o (symbol from plugin)
HAL_Init                                          output\REVOLT\stm32f4xx_hal.o (symbol from plugin)
                                                  output\REVOLT\stm32f4.o (symbol from plugin)
HAL_InitTick                                      output\REVOLT\stm32f4xx_hal.o (symbol from plugin)
                                                  output\REVOLT\stm32f4xx_hal_rcc.o (symbol from plugin)
HAL_InitTick.constprop.158                        C:\Users\PRESTO~1\AppData\Local\Temp\cc3x6Wri.ltrans28.ltrans.o
                                                  C:\Users\PRESTO~1\AppData\Local\Temp\cc3x6Wri.ltrans27.ltrans.o
                                                  C:\Users\PRESTO~1\AppData\Local\Temp\cc3x6Wri.ltrans3.ltrans.o
HAL_LIN_Init                                      output\REVOLT\stm32f4xx_hal_uart.o (symbol from plugin)
HAL_LIN_SendBreak                                 output\REVOLT\stm32f4xx_hal_uart.o (symbol from plugin)
HAL_MPU_ConfigRegion                              output\REVOLT\stm32f4xx_hal_cortex.o (symbol from plugin)
HAL_MspDeInit                                     output\REVOLT\stm32f4xx_hal.o (symbol from plugin)
HAL_MspInit                                       output\REVOLT\stm32f4xx_hal_msp.o (symbol from plugin)
HAL_MultiProcessor_EnterMuteMode                  output\REVOLT\stm32f4xx_hal_uart.o (symbol from plugin)
HAL_MultiProcessor_ExitMuteMode                   output\REVOLT\stm32f4xx_hal_uart.o (symbol from plugin)
HAL_MultiProcessor_Init                           output\REVOLT\stm32f4xx_hal_uart.o (symbol from plugin)
HAL_NVIC_ClearPendingIRQ                          output\REVOLT\stm32f4xx_hal_cortex.o (symbol from plugin)
                                                  output\REVOLT\stm32f4xx_it.o (symbol from plugin)
HAL_NVIC_DisableIRQ                               output\REVOLT\stm32f4xx_hal_cortex.o (symbol from plugin)
                                                  output\REVOLT\serial.o (symbol from plugin)
                                                  output\REVOLT\invensense_bus_spi.o (symbol from plugin)
                                                  output\REVOLT\exti.o (symbol from plugin)
                                                  output\REVOLT\stm32f4xx_spi_msp.o (symbol from plugin)
                                                  output\REVOLT\stm32f4.o (symbol from plugin)
HAL_NVIC_EnableIRQ                                output\REVOLT\stm32f4xx_hal_cortex.o (symbol from plugin)
                                                  output\REVOLT\spm_laptimer.o (symbol from plugin)
                                                  output\REVOLT\serial.o (symbol from plugin)
                                                  output\REVOLT\dmaShenanigans.o (symbol from plugin)
                                                  output\REVOLT\adc.o (symbol from plugin)
                                                  output\REVOLT\scheduler.o (symbol from plugin)
                                                  output\REVOLT\newSoftSerial.o (symbol from plugin)
                                                  output\REVOLT\exti.o (symbol from plugin)
                                                  output\REVOLT\stm32f4xx_spi_msp.o (symbol from plugin)
                                                  output\REVOLT\stm32f4.o (symbol from plugin)
HAL_NVIC_GetActive                                output\REVOLT\stm32f4xx_hal_cortex.o (symbol from plugin)
HAL_NVIC_GetPendingIRQ                            output\REVOLT\stm32f4xx_hal_cortex.o (symbol from plugin)
HAL_NVIC_GetPriority                              output\REVOLT\stm32f4xx_hal_cortex.o (symbol from plugin)
HAL_NVIC_GetPriorityGrouping                      output\REVOLT\stm32f4xx_hal_cortex.o (symbol from plugin)
HAL_NVIC_SetPendingIRQ                            output\REVOLT\stm32f4xx_hal_cortex.o (symbol from plugin)
HAL_NVIC_SetPriority                              C:\Users\PRESTO~1\AppData\Local\Temp\cc3x6Wri.ltrans7.ltrans.o
                                                  output\REVOLT\stm32f4xx_hal_cortex.o (symbol from plugin)
                                                  C:\Users\PRESTO~1\AppData\Local\Temp\cc3x6Wri.ltrans28.ltrans.o
                                                  C:\Users\PRESTO~1\AppData\Local\Temp\cc3x6Wri.ltrans23.ltrans.o
                                                  C:\Users\PRESTO~1\AppData\Local\Temp\cc3x6Wri.ltrans21.ltrans.o
                                                  C:\Users\PRESTO~1\AppData\Local\Temp\cc3x6Wri.ltrans14.ltrans.o
                                                  C:\Users\PRESTO~1\AppData\Local\Temp\cc3x6Wri.ltrans6.ltrans.o
                                                  C:\Users\PRESTO~1\AppData\Local\Temp\cc3x6Wri.ltrans5.ltrans.o
                                                  C:\Users\PRESTO~1\AppData\Local\Temp\cc3x6Wri.ltrans3.ltrans.o
                                                  C:\Users\PRESTO~1\AppData\Local\Temp\cc3x6Wri.ltrans2.ltrans.o
                                                  C:\Users\PRESTO~1\AppData\Local\Temp\cc3x6Wri.ltrans0.ltrans.o
                                                  output\REVOLT\spm_laptimer.o (symbol from plugin)
                                                  output\REVOLT\serial.o (symbol from plugin)
                                                  output\REVOLT\dmaShenanigans.o (symbol from plugin)
                                                  output\REVOLT\adc.o (symbol from plugin)
                                                  output\REVOLT\stm32f4xx_hal.o (symbol from plugin)
                                                  output\REVOLT\scheduler.o (symbol from plugin)
                                                  output\REVOLT\newSoftSerial.o (symbol from plugin)
                                                  output\REVOLT\exti.o (symbol from plugin)
                                                  output\REVOLT\stm32f4xx_spi_msp.o (symbol from plugin)
                                                  output\REVOLT\stm32f4xx_hal_msp.o (symbol from plugin)
                                                  output\REVOLT\stm32f4.o (symbol from plugin)
HAL_NVIC_SetPriorityGrouping                      output\REVOLT\stm32f4xx_hal_cortex.o (symbol from plugin)
                                                  output\REVOLT\stm32f4xx_hal.o (symbol from plugin)
                                                  output\REVOLT\stm32f4xx_hal_msp.o (symbol from plugin)
HAL_NVIC_SystemReset                              output\REVOLT\stm32f4xx_hal_cortex.o (symbol from plugin)
HAL_PCDEx_SetRxFiFo                               output\REVOLT\stm32f4xx_hal_pcd_ex.o (symbol from plugin)
                                                  output\REVOLT\usbd_conf.o (symbol from plugin)
HAL_PCDEx_SetTxFiFo                               output\REVOLT\stm32f4xx_hal_pcd_ex.o (symbol from plugin)
                                                  output\REVOLT\usbd_conf.o (symbol from plugin)
HAL_PCD_ActivateRemoteWakeup                      output\REVOLT\stm32f4xx_hal_pcd.o (symbol from plugin)
HAL_PCD_ConnectCallback                           output\REVOLT\usbd_conf.o (symbol from plugin)
                                                  output\REVOLT\stm32f4xx_hal_pcd.o (symbol from plugin)
HAL_PCD_DataInStageCallback                       output\REVOLT\usbd_conf.o (symbol from plugin)
                                                  output\REVOLT\stm32f4xx_hal_pcd.o (symbol from plugin)
HAL_PCD_DataOutStageCallback                      output\REVOLT\usbd_conf.o (symbol from plugin)
                                                  output\REVOLT\stm32f4xx_hal_pcd.o (symbol from plugin)
HAL_PCD_DeActivateRemoteWakeup                    output\REVOLT\stm32f4xx_hal_pcd.o (symbol from plugin)
HAL_PCD_DeInit                                    output\REVOLT\stm32f4xx_hal_pcd.o (symbol from plugin)
                                                  output\REVOLT\usbd_conf.o (symbol from plugin)
HAL_PCD_DevConnect                                output\REVOLT\stm32f4xx_hal_pcd.o (symbol from plugin)
HAL_PCD_DevDisconnect                             output\REVOLT\stm32f4xx_hal_pcd.o (symbol from plugin)
HAL_PCD_DisconnectCallback                        output\REVOLT\usbd_conf.o (symbol from plugin)
                                                  output\REVOLT\stm32f4xx_hal_pcd.o (symbol from plugin)
HAL_PCD_EP_Close                                  output\REVOLT\stm32f4xx_hal_pcd.o (symbol from plugin)
                                                  output\REVOLT\usbd_conf.o (symbol from plugin)
HAL_PCD_EP_ClrStall                               output\REVOLT\stm32f4xx_hal_pcd.o (symbol from plugin)
                                                  output\REVOLT\usbd_conf.o (symbol from plugin)
HAL_PCD_EP_Flush                                  output\REVOLT\stm32f4xx_hal_pcd.o (symbol from plugin)
                                                  output\REVOLT\usbd_conf.o (symbol from plugin)
HAL_PCD_EP_GetRxCount                             output\REVOLT\stm32f4xx_hal_pcd.o (symbol from plugin)
                                                  output\REVOLT\usbd_conf.o (symbol from plugin)
HAL_PCD_EP_Open                                   output\REVOLT\stm32f4xx_hal_pcd.o (symbol from plugin)
                                                  output\REVOLT\usbd_conf.o (symbol from plugin)
HAL_PCD_EP_Receive                                output\REVOLT\stm32f4xx_hal_pcd.o (symbol from plugin)
                                                  output\REVOLT\usbd_conf.o (symbol from plugin)
HAL_PCD_EP_SetStall                               C:\Users\PRESTO~1\AppData\Local\Temp\cc3x6Wri.ltrans5.ltrans.o
                                                  output\REVOLT\stm32f4xx_hal_pcd.o (symbol from plugin)
                                                  C:\Users\PRESTO~1\AppData\Local\Temp\cc3x6Wri.ltrans10.ltrans.o
                                                  C:\Users\PRESTO~1\AppData\Local\Temp\cc3x6Wri.ltrans0.ltrans.o
                                                  output\REVOLT\usbd_conf.o (symbol from plugin)
HAL_PCD_EP_Transmit                               output\REVOLT\stm32f4xx_hal_pcd.o (symbol from plugin)
                                                  output\REVOLT\usbd_conf.o (symbol from plugin)
HAL_PCD_GetState                                  output\REVOLT\stm32f4xx_hal_pcd.o (symbol from plugin)
HAL_PCD_IRQHandler                                output\REVOLT\stm32f4xx_hal_pcd.o (symbol from plugin)
                                                  output\REVOLT\stm32f4xx_it.o (symbol from plugin)
HAL_PCD_ISOINIncompleteCallback                   output\REVOLT\usbd_conf.o (symbol from plugin)
                                                  output\REVOLT\stm32f4xx_hal_pcd.o (symbol from plugin)
HAL_PCD_ISOOUTIncompleteCallback                  output\REVOLT\usbd_conf.o (symbol from plugin)
                                                  output\REVOLT\stm32f4xx_hal_pcd.o (symbol from plugin)
HAL_PCD_Init                                      output\REVOLT\stm32f4xx_hal_pcd.o (symbol from plugin)
                                                  output\REVOLT\usbd_conf.o (symbol from plugin)
HAL_PCD_Init.constprop.181                        C:\Users\PRESTO~1\AppData\Local\Temp\cc3x6Wri.ltrans28.ltrans.o
                                                  C:\Users\PRESTO~1\AppData\Local\Temp\cc3x6Wri.ltrans3.ltrans.o
HAL_PCD_MspDeInit                                 output\REVOLT\usbd_conf.o (symbol from plugin)
                                                  output\REVOLT\stm32f4xx_hal_pcd.o (symbol from plugin)
HAL_PCD_MspInit                                   output\REVOLT\usbd_conf.o (symbol from plugin)
                                                  output\REVOLT\stm32f4xx_hal_pcd.o (symbol from plugin)
HAL_PCD_ResetCallback                             output\REVOLT\usbd_conf.o (symbol from plugin)
                                                  output\REVOLT\stm32f4xx_hal_pcd.o (symbol from plugin)
HAL_PCD_ResumeCallback                            output\REVOLT\usbd_conf.o (symbol from plugin)
                                                  output\REVOLT\stm32f4xx_hal_pcd.o (symbol from plugin)
HAL_PCD_SOFCallback                               output\REVOLT\usbd_conf.o (symbol from plugin)
                                                  output\REVOLT\stm32f4xx_hal_pcd.o (symbol from plugin)
HAL_PCD_SetAddress                                output\REVOLT\stm32f4xx_hal_pcd.o (symbol from plugin)
                                                  output\REVOLT\usbd_conf.o (symbol from plugin)
HAL_PCD_SetupStageCallback                        output\REVOLT\usbd_conf.o (symbol from plugin)
                                                  output\REVOLT\stm32f4xx_hal_pcd.o (symbol from plugin)
HAL_PCD_Start                                     output\REVOLT\stm32f4xx_hal_pcd.o (symbol from plugin)
                                                  output\REVOLT\usbd_conf.o (symbol from plugin)
HAL_PCD_Stop                                      output\REVOLT\stm32f4xx_hal_pcd.o (symbol from plugin)
                                                  output\REVOLT\usbd_conf.o (symbol from plugin)
HAL_PCD_Stop.part.2                               C:\Users\PRESTO~1\AppData\Local\Temp\cc3x6Wri.ltrans5.ltrans.o
                                                  C:\Users\PRESTO~1\AppData\Local\Temp\cc3x6Wri.ltrans1.ltrans.o
HAL_PCD_SuspendCallback                           output\REVOLT\usbd_conf.o (symbol from plugin)
                                                  output\REVOLT\stm32f4xx_hal_pcd.o (symbol from plugin)
HAL_PWREx_ControlVoltageScaling                   output\REVOLT\stm32f4xx_hal_pwr_ex.o (symbol from plugin)
HAL_PWREx_DisableBkUpReg                          output\REVOLT\stm32f4xx_hal_pwr_ex.o (symbol from plugin)
HAL_PWREx_DisableFlashPowerDown                   output\REVOLT\stm32f4xx_hal_pwr_ex.o (symbol from plugin)
HAL_PWREx_EnableBkUpReg                           output\REVOLT\stm32f4xx_hal_pwr_ex.o (symbol from plugin)
HAL_PWREx_EnableFlashPowerDown                    output\REVOLT\stm32f4xx_hal_pwr_ex.o (symbol from plugin)
HAL_PWREx_GetVoltageRange                         output\REVOLT\stm32f4xx_hal_pwr_ex.o (symbol from plugin)
HAL_PWR_ConfigPVD                                 output\REVOLT\stm32f4xx_hal_pwr.o (symbol from plugin)
HAL_PWR_DeInit                                    output\REVOLT\stm32f4xx_hal_pwr.o (symbol from plugin)
HAL_PWR_DisableBkUpAccess                         output\REVOLT\stm32f4xx_hal_pwr.o (symbol from plugin)
                                                  output\REVOLT\general_functions.o (symbol from plugin)
HAL_PWR_DisablePVD                                output\REVOLT\stm32f4xx_hal_pwr.o (symbol from plugin)
HAL_PWR_DisableSEVOnPend                          output\REVOLT\stm32f4xx_hal_pwr.o (symbol from plugin)
HAL_PWR_DisableSleepOnExit                        output\REVOLT\stm32f4xx_hal_pwr.o (symbol from plugin)
HAL_PWR_DisableWakeUpPin                          output\REVOLT\stm32f4xx_hal_pwr.o (symbol from plugin)
HAL_PWR_EnableBkUpAccess                          output\REVOLT\stm32f4xx_hal_pwr.o (symbol from plugin)
                                                  output\REVOLT\general_functions.o (symbol from plugin)
HAL_PWR_EnablePVD                                 output\REVOLT\stm32f4xx_hal_pwr.o (symbol from plugin)
HAL_PWR_EnableSEVOnPend                           output\REVOLT\stm32f4xx_hal_pwr.o (symbol from plugin)
HAL_PWR_EnableSleepOnExit                         output\REVOLT\stm32f4xx_hal_pwr.o (symbol from plugin)
HAL_PWR_EnableWakeUpPin                           output\REVOLT\stm32f4xx_hal_pwr.o (symbol from plugin)
HAL_PWR_EnterSLEEPMode                            output\REVOLT\stm32f4xx_hal_pwr.o (symbol from plugin)
HAL_PWR_EnterSTANDBYMode                          output\REVOLT\stm32f4xx_hal_pwr.o (symbol from plugin)
HAL_PWR_EnterSTOPMode                             output\REVOLT\stm32f4xx_hal_pwr.o (symbol from plugin)
HAL_PWR_PVDCallback                               output\REVOLT\stm32f4xx_hal_pwr.o (symbol from plugin)
HAL_PWR_PVD_IRQHandler                            output\REVOLT\stm32f4xx_hal_pwr.o (symbol from plugin)
HAL_RCCEx_GetPeriphCLKConfig                      output\REVOLT\stm32f4xx_hal_rcc_ex.o (symbol from plugin)
HAL_RCCEx_PeriphCLKConfig                         output\REVOLT\stm32f4xx_hal_rcc_ex.o (symbol from plugin)
HAL_RCC_CSSCallback                               output\REVOLT\stm32f4xx_hal_rcc.o (symbol from plugin)
HAL_RCC_ClockConfig                               output\REVOLT\stm32f4xx_hal_rcc.o (symbol from plugin)
                                                  output\REVOLT\stm32f4.o (symbol from plugin)
HAL_RCC_ClockConfig.constprop.156                 C:\Users\PRESTO~1\AppData\Local\Temp\cc3x6Wri.ltrans27.ltrans.o
                                                  C:\Users\PRESTO~1\AppData\Local\Temp\cc3x6Wri.ltrans3.ltrans.o
HAL_RCC_DeInit                                    output\REVOLT\stm32f4xx_hal_rcc_ex.o (symbol from plugin)
                                                  output\REVOLT\stm32f4xx_hal_rcc.o (symbol from plugin)
                                                  output\REVOLT\general_functions.o (symbol from plugin)
HAL_RCC_DisableCSS                                output\REVOLT\stm32f4xx_hal_rcc.o (symbol from plugin)
HAL_RCC_EnableCSS                                 output\REVOLT\stm32f4xx_hal_rcc.o (symbol from plugin)
HAL_RCC_GetClockConfig                            output\REVOLT\stm32f4xx_hal_rcc.o (symbol from plugin)
HAL_RCC_GetHCLKFreq                               output\REVOLT\stm32f4xx_hal_rcc.o (symbol from plugin)
                                                  output\REVOLT\stm32f4xx_hal_pcd.o (symbol from plugin)
                                                  output\REVOLT\stm32f4.o (symbol from plugin)
HAL_RCC_GetOscConfig                              output\REVOLT\stm32f4xx_hal_rcc.o (symbol from plugin)
HAL_RCC_GetPCLK1Freq                              output\REVOLT\stm32f4xx_hal_rcc.o (symbol from plugin)
                                                  output\REVOLT\stm32f4xx_hal_usart.o (symbol from plugin)
                                                  output\REVOLT\stm32f4xx_hal_uart.o (symbol from plugin)
HAL_RCC_GetPCLK2Freq                              output\REVOLT\stm32f4xx_hal_rcc.o (symbol from plugin)
                                                  output\REVOLT\stm32f4xx_hal_usart.o (symbol from plugin)
                                                  output\REVOLT\stm32f4xx_hal_uart.o (symbol from plugin)
HAL_RCC_GetSysClockFreq                           output\REVOLT\stm32f4xx_hal_rcc.o (symbol from plugin)
HAL_RCC_MCOConfig                                 output\REVOLT\stm32f4xx_hal_rcc.o (symbol from plugin)
HAL_RCC_NMI_IRQHandler                            output\REVOLT\stm32f4xx_hal_rcc.o (symbol from plugin)
HAL_RCC_OscConfig                                 output\REVOLT\stm32f4xx_hal_rcc.o (symbol from plugin)
                                                  output\REVOLT\stm32f4.o (symbol from plugin)
HAL_RCC_OscConfig.constprop.155                   C:\Users\PRESTO~1\AppData\Local\Temp\cc3x6Wri.ltrans27.ltrans.o
                                                  C:\Users\PRESTO~1\AppData\Local\Temp\cc3x6Wri.ltrans3.ltrans.o
HAL_RTCEx_AlarmBEventCallback                     output\REVOLT\stm32f4xx_hal_rtc_ex.o (symbol from plugin)
                                                  output\REVOLT\stm32f4xx_hal_rtc.o (symbol from plugin)
HAL_RTCEx_BKUPRead                                output\REVOLT\stm32f4xx_hal_rtc_ex.o (symbol from plugin)
                                                  output\REVOLT\general_functions.o (symbol from plugin)
HAL_RTCEx_BKUPWrite                               output\REVOLT\stm32f4xx_hal_rtc_ex.o (symbol from plugin)
                                                  output\REVOLT\general_functions.o (symbol from plugin)
HAL_RTCEx_DeactivateCalibrationOutPut             output\REVOLT\stm32f4xx_hal_rtc_ex.o (symbol from plugin)
HAL_RTCEx_DeactivateCoarseCalib                   output\REVOLT\stm32f4xx_hal_rtc_ex.o (symbol from plugin)
HAL_RTCEx_DeactivateRefClock                      output\REVOLT\stm32f4xx_hal_rtc_ex.o (symbol from plugin)
HAL_RTCEx_DeactivateTamper                        output\REVOLT\stm32f4xx_hal_rtc_ex.o (symbol from plugin)
HAL_RTCEx_DeactivateTimeStamp                     output\REVOLT\stm32f4xx_hal_rtc_ex.o (symbol from plugin)
HAL_RTCEx_DeactivateWakeUpTimer                   output\REVOLT\stm32f4xx_hal_rtc_ex.o (symbol from plugin)
HAL_RTCEx_DisableBypassShadow                     output\REVOLT\stm32f4xx_hal_rtc_ex.o (symbol from plugin)
HAL_RTCEx_EnableBypassShadow                      output\REVOLT\stm32f4xx_hal_rtc_ex.o (symbol from plugin)
HAL_RTCEx_GetTimeStamp                            output\REVOLT\stm32f4xx_hal_rtc_ex.o (symbol from plugin)
HAL_RTCEx_GetWakeUpTimer                          output\REVOLT\stm32f4xx_hal_rtc_ex.o (symbol from plugin)
HAL_RTCEx_PollForAlarmBEvent                      output\REVOLT\stm32f4xx_hal_rtc_ex.o (symbol from plugin)
HAL_RTCEx_PollForTamper1Event                     output\REVOLT\stm32f4xx_hal_rtc_ex.o (symbol from plugin)
HAL_RTCEx_PollForTamper2Event                     output\REVOLT\stm32f4xx_hal_rtc_ex.o (symbol from plugin)
HAL_RTCEx_PollForTimeStampEvent                   output\REVOLT\stm32f4xx_hal_rtc_ex.o (symbol from plugin)
HAL_RTCEx_PollForWakeUpTimerEvent                 output\REVOLT\stm32f4xx_hal_rtc_ex.o (symbol from plugin)
HAL_RTCEx_SetCalibrationOutPut                    output\REVOLT\stm32f4xx_hal_rtc_ex.o (symbol from plugin)
HAL_RTCEx_SetCoarseCalib                          output\REVOLT\stm32f4xx_hal_rtc_ex.o (symbol from plugin)
HAL_RTCEx_SetRefClock                             output\REVOLT\stm32f4xx_hal_rtc_ex.o (symbol from plugin)
HAL_RTCEx_SetSmoothCalib                          output\REVOLT\stm32f4xx_hal_rtc_ex.o (symbol from plugin)
HAL_RTCEx_SetSynchroShift                         output\REVOLT\stm32f4xx_hal_rtc_ex.o (symbol from plugin)
HAL_RTCEx_SetTamper                               output\REVOLT\stm32f4xx_hal_rtc_ex.o (symbol from plugin)
HAL_RTCEx_SetTamper_IT                            output\REVOLT\stm32f4xx_hal_rtc_ex.o (symbol from plugin)
HAL_RTCEx_SetTimeStamp                            output\REVOLT\stm32f4xx_hal_rtc_ex.o (symbol from plugin)
HAL_RTCEx_SetTimeStamp_IT                         output\REVOLT\stm32f4xx_hal_rtc_ex.o (symbol from plugin)
HAL_RTCEx_SetWakeUpTimer                          output\REVOLT\stm32f4xx_hal_rtc_ex.o (symbol from plugin)
HAL_RTCEx_SetWakeUpTimer_IT                       output\REVOLT\stm32f4xx_hal_rtc_ex.o (symbol from plugin)
HAL_RTCEx_Tamper1EventCallback                    output\REVOLT\stm32f4xx_hal_rtc_ex.o (symbol from plugin)
HAL_RTCEx_Tamper2EventCallback                    output\REVOLT\stm32f4xx_hal_rtc_ex.o (symbol from plugin)
HAL_RTCEx_TamperTimeStampIRQHandler               output\REVOLT\stm32f4xx_hal_rtc_ex.o (symbol from plugin)
HAL_RTCEx_TimeStampEventCallback                  output\REVOLT\stm32f4xx_hal_rtc_ex.o (symbol from plugin)
HAL_RTCEx_WakeUpTimerEventCallback                output\REVOLT\stm32f4xx_hal_rtc_ex.o (symbol from plugin)
HAL_RTCEx_WakeUpTimerIRQHandler                   output\REVOLT\stm32f4xx_hal_rtc_ex.o (symbol from plugin)
HAL_RTC_AlarmAEventCallback                       output\REVOLT\stm32f4xx_hal_rtc.o (symbol from plugin)
HAL_RTC_AlarmIRQHandler                           output\REVOLT\stm32f4xx_hal_rtc.o (symbol from plugin)
HAL_RTC_DeInit                                    output\REVOLT\stm32f4xx_hal_rtc.o (symbol from plugin)
HAL_RTC_DeactivateAlarm                           output\REVOLT\stm32f4xx_hal_rtc.o (symbol from plugin)
HAL_RTC_GetAlarm                                  output\REVOLT\stm32f4xx_hal_rtc.o (symbol from plugin)
HAL_RTC_GetDate                                   output\REVOLT\stm32f4xx_hal_rtc.o (symbol from plugin)
HAL_RTC_GetState                                  output\REVOLT\stm32f4xx_hal_rtc.o (symbol from plugin)
HAL_RTC_GetTime                                   output\REVOLT\stm32f4xx_hal_rtc.o (symbol from plugin)
HAL_RTC_Init                                      output\REVOLT\stm32f4xx_hal_rtc.o (symbol from plugin)
HAL_RTC_MspDeInit                                 output\REVOLT\stm32f4xx_hal_rtc.o (symbol from plugin)
HAL_RTC_MspInit                                   output\REVOLT\stm32f4xx_hal_rtc.o (symbol from plugin)
HAL_RTC_PollForAlarmAEvent                        output\REVOLT\stm32f4xx_hal_rtc.o (symbol from plugin)
HAL_RTC_SetAlarm                                  output\REVOLT\stm32f4xx_hal_rtc.o (symbol from plugin)
HAL_RTC_SetAlarm_IT                               output\REVOLT\stm32f4xx_hal_rtc.o (symbol from plugin)
HAL_RTC_SetDate                                   output\REVOLT\stm32f4xx_hal_rtc.o (symbol from plugin)
HAL_RTC_SetTime                                   output\REVOLT\stm32f4xx_hal_rtc.o (symbol from plugin)
HAL_RTC_WaitForSynchro                            output\REVOLT\stm32f4xx_hal_rtc.o (symbol from plugin)
                                                  output\REVOLT\stm32f4xx_hal_rtc_ex.o (symbol from plugin)
HAL_ResumeTick                                    output\REVOLT\stm32f4xx_hal.o (symbol from plugin)
HAL_SPI_DMAPause                                  output\REVOLT\stm32f4xx_hal_spi.o (symbol from plugin)
HAL_SPI_DMAResume                                 output\REVOLT\stm32f4xx_hal_spi.o (symbol from plugin)
HAL_SPI_DMAStop                                   output\REVOLT\stm32f4xx_hal_spi.o (symbol from plugin)
HAL_SPI_DeInit                                    C:\Users\PRESTO~1\AppData\Local\Temp\cc3x6Wri.ltrans5.ltrans.o
                                                  output\REVOLT\stm32f4xx_hal_spi.o (symbol from plugin)
                                                  C:\Users\PRESTO~1\AppData\Local\Temp\cc3x6Wri.ltrans2.ltrans.o
                                                  output\REVOLT\invensense_bus_spi.o (symbol from plugin)
                                                  output\REVOLT\flash_chip.o (symbol from plugin)
                                                  output\REVOLT\maxOsd.o (symbol from plugin)
HAL_SPI_ErrorCallback                             output\REVOLT\stm32f4xx_hal_spi.o (symbol from plugin)
HAL_SPI_GetError                                  output\REVOLT\stm32f4xx_hal_spi.o (symbol from plugin)
HAL_SPI_GetState                                  output\REVOLT\stm32f4xx_hal_spi.o (symbol from plugin)
                                                  output\REVOLT\invensense_bus_spi.o (symbol from plugin)
                                                  output\REVOLT\flash_chip.o (symbol from plugin)
                                                  output\REVOLT\maxOsd.o (symbol from plugin)
HAL_SPI_IRQHandler                                output\REVOLT\stm32f4xx_hal_spi.o (symbol from plugin)
                                                  output\REVOLT\stm32f4xx_it.o (symbol from plugin)
HAL_SPI_Init                                      C:\Users\PRESTO~1\AppData\Local\Temp\cc3x6Wri.ltrans5.ltrans.o
                                                  output\REVOLT\stm32f4xx_hal_spi.o (symbol from plugin)
                                                  C:\Users\PRESTO~1\AppData\Local\Temp\cc3x6Wri.ltrans17.ltrans.o
                                                  C:\Users\PRESTO~1\AppData\Local\Temp\cc3x6Wri.ltrans2.ltrans.o
                                                  output\REVOLT\invensense_bus_spi.o (symbol from plugin)
                                                  output\REVOLT\flash_chip.o (symbol from plugin)
                                                  output\REVOLT\maxOsd.o (symbol from plugin)
HAL_SPI_MspDeInit                                 output\REVOLT\stm32f4xx_spi_msp.o (symbol from plugin)
HAL_SPI_MspInit                                   output\REVOLT\stm32f4xx_spi_msp.o (symbol from plugin)
HAL_SPI_Receive                                   output\REVOLT\stm32f4xx_hal_spi.o (symbol from plugin)
                                                  output\REVOLT\invensense_bus_spi.o (symbol from plugin)
                                                  output\REVOLT\flash_chip.o (symbol from plugin)
HAL_SPI_Receive.part.3.constprop.89               C:\Users\PRESTO~1\AppData\Local\Temp\cc3x6Wri.ltrans11.ltrans.o
                                                  C:\Users\PRESTO~1\AppData\Local\Temp\cc3x6Wri.ltrans25.ltrans.o
                                                  C:\Users\PRESTO~1\AppData\Local\Temp\cc3x6Wri.ltrans18.ltrans.o
                                                  C:\Users\PRESTO~1\AppData\Local\Temp\cc3x6Wri.ltrans2.ltrans.o
HAL_SPI_Receive_DMA                               output\REVOLT\stm32f4xx_hal_spi.o (symbol from plugin)
HAL_SPI_Receive_IT                                output\REVOLT\stm32f4xx_hal_spi.o (symbol from plugin)
HAL_SPI_RxCpltCallback                            output\REVOLT\stm32f4xx_hal_spi.o (symbol from plugin)
HAL_SPI_RxHalfCpltCallback                        output\REVOLT\stm32f4xx_hal_spi.o (symbol from plugin)
HAL_SPI_Transmit                                  output\REVOLT\stm32f4xx_hal_spi.o (symbol from plugin)
                                                  output\REVOLT\invensense_bus_spi.o (symbol from plugin)
                                                  output\REVOLT\flash_chip.o (symbol from plugin)
HAL_SPI_Transmit.part.1                           C:\Users\PRESTO~1\AppData\Local\Temp\cc3x6Wri.ltrans5.ltrans.o
                                                  C:\Users\PRESTO~1\AppData\Local\Temp\cc3x6Wri.ltrans25.ltrans.o
                                                  C:\Users\PRESTO~1\AppData\Local\Temp\cc3x6Wri.ltrans23.ltrans.o
                                                  C:\Users\PRESTO~1\AppData\Local\Temp\cc3x6Wri.ltrans19.ltrans.o
                                                  C:\Users\PRESTO~1\AppData\Local\Temp\cc3x6Wri.ltrans18.ltrans.o
                                                  C:\Users\PRESTO~1\AppData\Local\Temp\cc3x6Wri.ltrans2.ltrans.o
                                                  C:\Users\PRESTO~1\AppData\Local\Temp\cc3x6Wri.ltrans1.ltrans.o
HAL_SPI_TransmitReceive                           output\REVOLT\stm32f4xx_hal_spi.o (symbol from plugin)
                                                  output\REVOLT\flash_chip.o (symbol from plugin)
                                                  output\REVOLT\maxOsd.o (symbol from plugin)
HAL_SPI_TransmitReceive.part.2                    C:\Users\PRESTO~1\AppData\Local\Temp\cc3x6Wri.ltrans5.ltrans.o
                                                  C:\Users\PRESTO~1\AppData\Local\Temp\cc3x6Wri.ltrans29.ltrans.o
                                                  C:\Users\PRESTO~1\AppData\Local\Temp\cc3x6Wri.ltrans25.ltrans.o
                                                  C:\Users\PRESTO~1\AppData\Local\Temp\cc3x6Wri.ltrans20.ltrans.o
                                                  C:\Users\PRESTO~1\AppData\Local\Temp\cc3x6Wri.ltrans18.ltrans.o
                                                  C:\Users\PRESTO~1\AppData\Local\Temp\cc3x6Wri.ltrans17.ltrans.o
                                                  C:\Users\PRESTO~1\AppData\Local\Temp\cc3x6Wri.ltrans13.ltrans.o
                                                  C:\Users\PRESTO~1\AppData\Local\Temp\cc3x6Wri.ltrans12.ltrans.o
                                                  C:\Users\PRESTO~1\AppData\Local\Temp\cc3x6Wri.ltrans2.ltrans.o
                                                  C:\Users\PRESTO~1\AppData\Local\Temp\cc3x6Wri.ltrans1.ltrans.o
HAL_SPI_TransmitReceive_DMA                       output\REVOLT\stm32f4xx_hal_spi.o (symbol from plugin)
                                                  output\REVOLT\invensense_bus_spi.o (symbol from plugin)
                                                  output\REVOLT\flash_chip.o (symbol from plugin)
HAL_SPI_TransmitReceive_IT                        output\REVOLT\stm32f4xx_hal_spi.o (symbol from plugin)
HAL_SPI_Transmit_DMA                              output\REVOLT\stm32f4xx_hal_spi.o (symbol from plugin)
                                                  output\REVOLT\flash_chip.o (symbol from plugin)
HAL_SPI_Transmit_IT                               output\REVOLT\stm32f4xx_hal_spi.o (symbol from plugin)
                                                  output\REVOLT\flash_chip.o (symbol from plugin)
HAL_SPI_TxCpltCallback                            output\REVOLT\stm32f4xx_hal_spi.o (symbol from plugin)
HAL_SPI_TxHalfCpltCallback                        output\REVOLT\stm32f4xx_hal_spi.o (symbol from plugin)
HAL_SPI_TxRxCpltCallback                          output\REVOLT\stm32f4xx_hal_spi.o (symbol from plugin)
HAL_SPI_TxRxHalfCpltCallback                      output\REVOLT\stm32f4xx_hal_spi.o (symbol from plugin)
HAL_SYSTICK_CLKSourceConfig                       output\REVOLT\stm32f4xx_hal_cortex.o (symbol from plugin)
                                                  output\REVOLT\stm32f4.o (symbol from plugin)
HAL_SYSTICK_CLKSourceConfig.part.0                C:\Users\PRESTO~1\AppData\Local\Temp\cc3x6Wri.ltrans7.ltrans.o
                                                  C:\Users\PRESTO~1\AppData\Local\Temp\cc3x6Wri.ltrans3.ltrans.o
HAL_SYSTICK_Callback                              output\REVOLT\stm32f4xx_hal_cortex.o (symbol from plugin)
HAL_SYSTICK_Config                                C:\Users\PRESTO~1\AppData\Local\Temp\cc3x6Wri.ltrans7.ltrans.o
                                                  output\REVOLT\stm32f4xx_hal_cortex.o (symbol from plugin)
                                                  C:\Users\PRESTO~1\AppData\Local\Temp\cc3x6Wri.ltrans3.ltrans.o
                                                  output\REVOLT\stm32f4xx_hal.o (symbol from plugin)
                                                  output\REVOLT\stm32f4.o (symbol from plugin)
HAL_SYSTICK_IRQHandler                            output\REVOLT\stm32f4xx_hal_cortex.o (symbol from plugin)
                                                  output\REVOLT\stm32f4xx_it.o (symbol from plugin)
HAL_SuspendTick                                   output\REVOLT\stm32f4xx_hal.o (symbol from plugin)
HAL_TIMEx_BreakCallback                           output\REVOLT\stm32f4xx_hal_tim_ex.o (symbol from plugin)
                                                  output\REVOLT\stm32f4xx_hal_tim.o (symbol from plugin)
HAL_TIMEx_CommutationCallback                     output\REVOLT\stm32f4xx_hal_tim_ex.o (symbol from plugin)
                                                  output\REVOLT\stm32f4xx_hal_tim.o (symbol from plugin)
HAL_TIMEx_ConfigBreakDeadTime                     output\REVOLT\stm32f4xx_hal_tim_ex.o (symbol from plugin)
HAL_TIMEx_ConfigCommutationEvent                  output\REVOLT\stm32f4xx_hal_tim_ex.o (symbol from plugin)
HAL_TIMEx_ConfigCommutationEvent_DMA              output\REVOLT\stm32f4xx_hal_tim_ex.o (symbol from plugin)
HAL_TIMEx_ConfigCommutationEvent_IT               output\REVOLT\stm32f4xx_hal_tim_ex.o (symbol from plugin)
HAL_TIMEx_HallSensor_DeInit                       output\REVOLT\stm32f4xx_hal_tim_ex.o (symbol from plugin)
HAL_TIMEx_HallSensor_GetState                     output\REVOLT\stm32f4xx_hal_tim_ex.o (symbol from plugin)
HAL_TIMEx_HallSensor_Init                         output\REVOLT\stm32f4xx_hal_tim_ex.o (symbol from plugin)
HAL_TIMEx_HallSensor_MspDeInit                    output\REVOLT\stm32f4xx_hal_tim_ex.o (symbol from plugin)
HAL_TIMEx_HallSensor_MspInit                      output\REVOLT\stm32f4xx_hal_tim_ex.o (symbol from plugin)
HAL_TIMEx_HallSensor_Start                        output\REVOLT\stm32f4xx_hal_tim_ex.o (symbol from plugin)
HAL_TIMEx_HallSensor_Start_DMA                    output\REVOLT\stm32f4xx_hal_tim_ex.o (symbol from plugin)
HAL_TIMEx_HallSensor_Start_IT                     output\REVOLT\stm32f4xx_hal_tim_ex.o (symbol from plugin)
HAL_TIMEx_HallSensor_Stop                         output\REVOLT\stm32f4xx_hal_tim_ex.o (symbol from plugin)
HAL_TIMEx_HallSensor_Stop_DMA                     output\REVOLT\stm32f4xx_hal_tim_ex.o (symbol from plugin)
HAL_TIMEx_HallSensor_Stop_IT                      output\REVOLT\stm32f4xx_hal_tim_ex.o (symbol from plugin)
HAL_TIMEx_MasterConfigSynchronization             output\REVOLT\stm32f4xx_hal_tim_ex.o (symbol from plugin)
                                                  output\REVOLT\transponder.o (symbol from plugin)
HAL_TIMEx_OCN_Start                               output\REVOLT\stm32f4xx_hal_tim_ex.o (symbol from plugin)
HAL_TIMEx_OCN_Start_DMA                           output\REVOLT\stm32f4xx_hal_tim_ex.o (symbol from plugin)
HAL_TIMEx_OCN_Start_IT                            output\REVOLT\stm32f4xx_hal_tim_ex.o (symbol from plugin)
HAL_TIMEx_OCN_Stop                                output\REVOLT\stm32f4xx_hal_tim_ex.o (symbol from plugin)
HAL_TIMEx_OCN_Stop_DMA                            output\REVOLT\stm32f4xx_hal_tim_ex.o (symbol from plugin)
HAL_TIMEx_OCN_Stop_IT                             output\REVOLT\stm32f4xx_hal_tim_ex.o (symbol from plugin)
HAL_TIMEx_OnePulseN_Start                         output\REVOLT\stm32f4xx_hal_tim_ex.o (symbol from plugin)
HAL_TIMEx_OnePulseN_Start_IT                      output\REVOLT\stm32f4xx_hal_tim_ex.o (symbol from plugin)
HAL_TIMEx_OnePulseN_Stop                          output\REVOLT\stm32f4xx_hal_tim_ex.o (symbol from plugin)
HAL_TIMEx_OnePulseN_Stop_IT                       output\REVOLT\stm32f4xx_hal_tim_ex.o (symbol from plugin)
HAL_TIMEx_PWMN_Start                              output\REVOLT\stm32f4xx_hal_tim_ex.o (symbol from plugin)
                                                  output\REVOLT\actuator_output.o (symbol from plugin)
HAL_TIMEx_PWMN_Start_DMA                          C:\Users\PRESTO~1\AppData\Local\Temp\cc3x6Wri.ltrans8.ltrans.o
                                                  output\REVOLT\stm32f4xx_hal_tim_ex.o (symbol from plugin)
                                                  C:\Users\PRESTO~1\AppData\Local\Temp\cc3x6Wri.ltrans27.ltrans.o
                                                  C:\Users\PRESTO~1\AppData\Local\Temp\cc3x6Wri.ltrans22.ltrans.o
                                                  C:\Users\PRESTO~1\AppData\Local\Temp\cc3x6Wri.ltrans16.ltrans.o
                                                  C:\Users\PRESTO~1\AppData\Local\Temp\cc3x6Wri.ltrans13.ltrans.o
                                                  C:\Users\PRESTO~1\AppData\Local\Temp\cc3x6Wri.ltrans3.ltrans.o
                                                  output\REVOLT\dmaShenanigans.o (symbol from plugin)
HAL_TIMEx_PWMN_Start_IT                           output\REVOLT\stm32f4xx_hal_tim_ex.o (symbol from plugin)
HAL_TIMEx_PWMN_Stop                               output\REVOLT\stm32f4xx_hal_tim_ex.o (symbol from plugin)
HAL_TIMEx_PWMN_Stop_DMA                           output\REVOLT\stm32f4xx_hal_tim_ex.o (symbol from plugin)
HAL_TIMEx_PWMN_Stop_IT                            output\REVOLT\stm32f4xx_hal_tim_ex.o (symbol from plugin)
HAL_TIMEx_RemapConfig                             output\REVOLT\stm32f4xx_hal_tim_ex.o (symbol from plugin)
HAL_TIM_Base_DeInit                               output\REVOLT\stm32f4xx_hal_tim.o (symbol from plugin)
                                                  output\REVOLT\actuator_output.o (symbol from plugin)
                                                  output\REVOLT\dmaShenanigans.o (symbol from plugin)
                                                  output\REVOLT\newSoftSerial.o (symbol from plugin)
HAL_TIM_Base_GetState                             output\REVOLT\stm32f4xx_hal_tim.o (symbol from plugin)
HAL_TIM_Base_Init                                 output\REVOLT\stm32f4xx_hal_tim.o (symbol from plugin)
                                                  output\REVOLT\spm_laptimer.o (symbol from plugin)
                                                  output\REVOLT\actuator_output.o (symbol from plugin)
                                                  output\REVOLT\dmaShenanigans.o (symbol from plugin)
                                                  output\REVOLT\transponder.o (symbol from plugin)
                                                  output\REVOLT\scheduler.o (symbol from plugin)
                                                  output\REVOLT\newSoftSerial.o (symbol from plugin)
HAL_TIM_Base_MspDeInit                            output\REVOLT\stm32f4xx_hal_tim_msp.o (symbol from plugin)
HAL_TIM_Base_MspInit                              output\REVOLT\stm32f4xx_hal_tim_msp.o (symbol from plugin)
HAL_TIM_Base_Start                                output\REVOLT\stm32f4xx_hal_tim.o (symbol from plugin)
                                                  output\REVOLT\actuator_output.o (symbol from plugin)
                                                  output\REVOLT\dmaShenanigans.o (symbol from plugin)
                                                  output\REVOLT\transponder.o (symbol from plugin)
HAL_TIM_Base_Start_DMA                            output\REVOLT\stm32f4xx_hal_tim.o (symbol from plugin)
HAL_TIM_Base_Start_IT                             output\REVOLT\stm32f4xx_hal_tim.o (symbol from plugin)
                                                  output\REVOLT\scheduler.o (symbol from plugin)
                                                  output\REVOLT\newSoftSerial.o (symbol from plugin)
HAL_TIM_Base_Stop                                 output\REVOLT\stm32f4xx_hal_tim.o (symbol from plugin)
HAL_TIM_Base_Stop_DMA                             output\REVOLT\stm32f4xx_hal_tim.o (symbol from plugin)
HAL_TIM_Base_Stop_IT                              output\REVOLT\stm32f4xx_hal_tim.o (symbol from plugin)
                                                  output\REVOLT\scheduler.o (symbol from plugin)
                                                  output\REVOLT\newSoftSerial.o (symbol from plugin)
HAL_TIM_ConfigClockSource                         output\REVOLT\stm32f4xx_hal_tim.o (symbol from plugin)
                                                  output\REVOLT\transponder.o (symbol from plugin)
HAL_TIM_ConfigOCrefClear                          output\REVOLT\stm32f4xx_hal_tim.o (symbol from plugin)
HAL_TIM_ConfigTI1Input                            output\REVOLT\stm32f4xx_hal_tim.o (symbol from plugin)
HAL_TIM_DMABurst_ReadStart                        output\REVOLT\stm32f4xx_hal_tim.o (symbol from plugin)
HAL_TIM_DMABurst_ReadStop                         output\REVOLT\stm32f4xx_hal_tim.o (symbol from plugin)
HAL_TIM_DMABurst_WriteStart                       output\REVOLT\stm32f4xx_hal_tim.o (symbol from plugin)
HAL_TIM_DMABurst_WriteStop                        output\REVOLT\stm32f4xx_hal_tim.o (symbol from plugin)
HAL_TIM_Encoder_DeInit                            output\REVOLT\stm32f4xx_hal_tim.o (symbol from plugin)
HAL_TIM_Encoder_GetState                          output\REVOLT\stm32f4xx_hal_tim.o (symbol from plugin)
HAL_TIM_Encoder_Init                              output\REVOLT\stm32f4xx_hal_tim.o (symbol from plugin)
HAL_TIM_Encoder_MspDeInit                         output\REVOLT\stm32f4xx_hal_tim.o (symbol from plugin)
HAL_TIM_Encoder_MspInit                           output\REVOLT\stm32f4xx_hal_tim.o (symbol from plugin)
HAL_TIM_Encoder_Start                             output\REVOLT\stm32f4xx_hal_tim.o (symbol from plugin)
HAL_TIM_Encoder_Start_DMA                         output\REVOLT\stm32f4xx_hal_tim.o (symbol from plugin)
HAL_TIM_Encoder_Start_IT                          output\REVOLT\stm32f4xx_hal_tim.o (symbol from plugin)
HAL_TIM_Encoder_Stop                              output\REVOLT\stm32f4xx_hal_tim.o (symbol from plugin)
HAL_TIM_Encoder_Stop_DMA                          output\REVOLT\stm32f4xx_hal_tim.o (symbol from plugin)
HAL_TIM_Encoder_Stop_IT                           output\REVOLT\stm32f4xx_hal_tim.o (symbol from plugin)
HAL_TIM_ErrorCallback                             output\REVOLT\stm32f4xx_hal_tim.o (symbol from plugin)
HAL_TIM_GenerateEvent                             output\REVOLT\stm32f4xx_hal_tim.o (symbol from plugin)
HAL_TIM_IC_CaptureCallback                        output\REVOLT\stm32f4xx_hal_tim.o (symbol from plugin)
HAL_TIM_IC_ConfigChannel                          output\REVOLT\stm32f4xx_hal_tim.o (symbol from plugin)
                                                  output\REVOLT\spm_laptimer.o (symbol from plugin)
                                                  output\REVOLT\dmaShenanigans.o (symbol from plugin)
HAL_TIM_IC_DeInit                                 output\REVOLT\stm32f4xx_hal_tim.o (symbol from plugin)
HAL_TIM_IC_GetState                               output\REVOLT\stm32f4xx_hal_tim.o (symbol from plugin)
HAL_TIM_IC_Init                                   output\REVOLT\stm32f4xx_hal_tim.o (symbol from plugin)
                                                  output\REVOLT\spm_laptimer.o (symbol from plugin)
                                                  output\REVOLT\dmaShenanigans.o (symbol from plugin)
HAL_TIM_IC_MspDeInit                              output\REVOLT\stm32f4xx_hal_tim.o (symbol from plugin)
HAL_TIM_IC_MspInit                                output\REVOLT\stm32f4xx_hal_tim.o (symbol from plugin)
HAL_TIM_IC_Start                                  output\REVOLT\stm32f4xx_hal_tim.o (symbol from plugin)
HAL_TIM_IC_Start_DMA                              output\REVOLT\stm32f4xx_hal_tim.o (symbol from plugin)
HAL_TIM_IC_Start_IT                               output\REVOLT\stm32f4xx_hal_tim.o (symbol from plugin)
                                                  output\REVOLT\spm_laptimer.o (symbol from plugin)
                                                  output\REVOLT\dmaShenanigans.o (symbol from plugin)
HAL_TIM_IC_Stop                                   output\REVOLT\stm32f4xx_hal_tim.o (symbol from plugin)
HAL_TIM_IC_Stop_DMA                               output\REVOLT\stm32f4xx_hal_tim.o (symbol from plugin)
HAL_TIM_IC_Stop_IT                                output\REVOLT\stm32f4xx_hal_tim.o (symbol from plugin)
HAL_TIM_IRQHandler                                output\REVOLT\stm32f4xx_hal_tim.o (symbol from plugin)
HAL_TIM_OC_ConfigChannel                          output\REVOLT\stm32f4xx_hal_tim.o (symbol from plugin)
HAL_TIM_OC_DeInit                                 output\REVOLT\stm32f4xx_hal_tim.o (symbol from plugin)
HAL_TIM_OC_DelayElapsedCallback                   output\REVOLT\stm32f4xx_hal_tim.o (symbol from plugin)
HAL_TIM_OC_GetState                               output\REVOLT\stm32f4xx_hal_tim.o (symbol from plugin)
HAL_TIM_OC_Init                                   output\REVOLT\stm32f4xx_hal_tim.o (symbol from plugin)
HAL_TIM_OC_MspDeInit                              output\REVOLT\stm32f4xx_hal_tim.o (symbol from plugin)
HAL_TIM_OC_MspInit                                output\REVOLT\stm32f4xx_hal_tim.o (symbol from plugin)
HAL_TIM_OC_Start                                  output\REVOLT\stm32f4xx_hal_tim.o (symbol from plugin)
HAL_TIM_OC_Start_DMA                              output\REVOLT\stm32f4xx_hal_tim.o (symbol from plugin)
HAL_TIM_OC_Start_IT                               output\REVOLT\stm32f4xx_hal_tim.o (symbol from plugin)
HAL_TIM_OC_Stop                                   output\REVOLT\stm32f4xx_hal_tim.o (symbol from plugin)
HAL_TIM_OC_Stop_DMA                               output\REVOLT\stm32f4xx_hal_tim.o (symbol from plugin)
HAL_TIM_OC_Stop_IT                                output\REVOLT\stm32f4xx_hal_tim.o (symbol from plugin)
HAL_TIM_OnePulse_ConfigChannel                    output\REVOLT\stm32f4xx_hal_tim.o (symbol from plugin)
HAL_TIM_OnePulse_DeInit                           output\REVOLT\stm32f4xx_hal_tim.o (symbol from plugin)
HAL_TIM_OnePulse_GetState                         output\REVOLT\stm32f4xx_hal_tim.o (symbol from plugin)
HAL_TIM_OnePulse_Init                             output\REVOLT\stm32f4xx_hal_tim.o (symbol from plugin)
HAL_TIM_OnePulse_MspDeInit                        output\REVOLT\stm32f4xx_hal_tim.o (symbol from plugin)
HAL_TIM_OnePulse_MspInit                          output\REVOLT\stm32f4xx_hal_tim.o (symbol from plugin)
HAL_TIM_OnePulse_Start                            output\REVOLT\stm32f4xx_hal_tim.o (symbol from plugin)
HAL_TIM_OnePulse_Start_IT                         output\REVOLT\stm32f4xx_hal_tim.o (symbol from plugin)
HAL_TIM_OnePulse_Stop                             output\REVOLT\stm32f4xx_hal_tim.o (symbol from plugin)
HAL_TIM_OnePulse_Stop_IT                          output\REVOLT\stm32f4xx_hal_tim.o (symbol from plugin)
HAL_TIM_PWM_ConfigChannel                         output\REVOLT\stm32f4xx_hal_tim.o (symbol from plugin)
                                                  output\REVOLT\actuator_output.o (symbol from plugin)
                                                  output\REVOLT\dmaShenanigans.o (symbol from plugin)
                                                  output\REVOLT\transponder.o (symbol from plugin)
HAL_TIM_PWM_ConfigChannel.part.11                 C:\Users\PRESTO~1\AppData\Local\Temp\cc3x6Wri.ltrans8.ltrans.o
                                                  C:\Users\PRESTO~1\AppData\Local\Temp\cc3x6Wri.ltrans24.ltrans.o
                                                  C:\Users\PRESTO~1\AppData\Local\Temp\cc3x6Wri.ltrans16.ltrans.o
HAL_TIM_PWM_DeInit                                output\REVOLT\stm32f4xx_hal_tim.o (symbol from plugin)
                                                  output\REVOLT\actuator_output.o (symbol from plugin)
HAL_TIM_PWM_GetState                              output\REVOLT\stm32f4xx_hal_tim.o (symbol from plugin)
HAL_TIM_PWM_Init                                  output\REVOLT\stm32f4xx_hal_tim.o (symbol from plugin)
                                                  output\REVOLT\actuator_output.o (symbol from plugin)
                                                  output\REVOLT\dmaShenanigans.o (symbol from plugin)
                                                  output\REVOLT\transponder.o (symbol from plugin)
HAL_TIM_PWM_MspDeInit                             output\REVOLT\stm32f4xx_hal_tim.o (symbol from plugin)
HAL_TIM_PWM_MspInit                               output\REVOLT\stm32f4xx_hal_tim.o (symbol from plugin)
HAL_TIM_PWM_PulseFinishedCallback                 output\REVOLT\stm32f4xx_hal_tim.o (symbol from plugin)
HAL_TIM_PWM_Start                                 output\REVOLT\stm32f4xx_hal_tim.o (symbol from plugin)
                                                  output\REVOLT\actuator_output.o (symbol from plugin)
                                                  output\REVOLT\transponder.o (symbol from plugin)
HAL_TIM_PWM_Start_DMA                             C:\Users\PRESTO~1\AppData\Local\Temp\cc3x6Wri.ltrans8.ltrans.o
                                                  output\REVOLT\stm32f4xx_hal_tim.o (symbol from plugin)
                                                  C:\Users\PRESTO~1\AppData\Local\Temp\cc3x6Wri.ltrans27.ltrans.o
                                                  C:\Users\PRESTO~1\AppData\Local\Temp\cc3x6Wri.ltrans22.ltrans.o
                                                  C:\Users\PRESTO~1\AppData\Local\Temp\cc3x6Wri.ltrans3.ltrans.o
                                                  output\REVOLT\dmaShenanigans.o (symbol from plugin)
HAL_TIM_PWM_Start_DMA.part.14                     C:\Users\PRESTO~1\AppData\Local\Temp\cc3x6Wri.ltrans8.ltrans.o
                                                  C:\Users\PRESTO~1\AppData\Local\Temp\cc3x6Wri.ltrans16.ltrans.o
                                                  C:\Users\PRESTO~1\AppData\Local\Temp\cc3x6Wri.ltrans13.ltrans.o
HAL_TIM_PWM_Start_IT                              output\REVOLT\stm32f4xx_hal_tim.o (symbol from plugin)
HAL_TIM_PWM_Stop                                  output\REVOLT\stm32f4xx_hal_tim.o (symbol from plugin)
HAL_TIM_PWM_Stop_DMA                              output\REVOLT\stm32f4xx_hal_tim.o (symbol from plugin)
HAL_TIM_PWM_Stop_IT                               output\REVOLT\stm32f4xx_hal_tim.o (symbol from plugin)
HAL_TIM_PeriodElapsedCallback                     output\REVOLT\stm32f4xx_it.o (symbol from plugin)
HAL_TIM_ReadCapturedValue                         output\REVOLT\stm32f4xx_hal_tim.o (symbol from plugin)
                                                  output\REVOLT\spm_laptimer.o (symbol from plugin)
HAL_TIM_SlaveConfigSynchronization                output\REVOLT\stm32f4xx_hal_tim.o (symbol from plugin)
                                                  output\REVOLT\dmaShenanigans.o (symbol from plugin)
HAL_TIM_SlaveConfigSynchronization_IT             output\REVOLT\stm32f4xx_hal_tim.o (symbol from plugin)
HAL_TIM_TriggerCallback                           output\REVOLT\stm32f4xx_hal_tim.o (symbol from plugin)
HAL_UART_DMAPause                                 output\REVOLT\stm32f4xx_hal_uart.o (symbol from plugin)
HAL_UART_DMAResume                                output\REVOLT\stm32f4xx_hal_uart.o (symbol from plugin)
HAL_UART_DMAStop                                  output\REVOLT\stm32f4xx_hal_uart.o (symbol from plugin)
HAL_UART_DeInit                                   output\REVOLT\stm32f4xx_hal_uart.o (symbol from plugin)
                                                  output\REVOLT\serial.o (symbol from plugin)
HAL_UART_ErrorCallback                            output\REVOLT\stm32f4xx_hal_uart.o (symbol from plugin)
HAL_UART_GetError                                 output\REVOLT\stm32f4xx_hal_uart.o (symbol from plugin)
HAL_UART_GetState                                 output\REVOLT\stm32f4xx_hal_uart.o (symbol from plugin)
HAL_UART_IRQHandler                               output\REVOLT\stm32f4xx_hal_uart.o (symbol from plugin)
HAL_UART_Init                                     output\REVOLT\stm32f4xx_hal_uart.o (symbol from plugin)
                                                  output\REVOLT\serial.o (symbol from plugin)
HAL_UART_MspDeInit                                output\REVOLT\stm32f4xx_hal_uart.o (symbol from plugin)
HAL_UART_MspInit                                  output\REVOLT\stm32f4xx_hal_uart.o (symbol from plugin)
HAL_UART_Receive                                  output\REVOLT\stm32f4xx_hal_uart.o (symbol from plugin)
                                                  output\REVOLT\trampTelemetry.o (symbol from plugin)
HAL_UART_Receive_DMA                              output\REVOLT\stm32f4xx_hal_uart.o (symbol from plugin)
                                                  output\REVOLT\serial.o (symbol from plugin)
HAL_UART_Receive_IT                               output\REVOLT\stm32f4xx_hal_uart.o (symbol from plugin)
HAL_UART_RxCpltCallback                           output\REVOLT\serial.o (symbol from plugin)
                                                  output\REVOLT\stm32f4xx_hal_uart.o (symbol from plugin)
HAL_UART_RxHalfCpltCallback                       output\REVOLT\stm32f4xx_hal_uart.o (symbol from plugin)
HAL_UART_Transmit                                 output\REVOLT\stm32f4xx_hal_uart.o (symbol from plugin)
                                                  output\REVOLT\trampTelemetry.o (symbol from plugin)
HAL_UART_Transmit_DMA                             C:\Users\PRESTO~1\AppData\Local\Temp\cc3x6Wri.ltrans8.ltrans.o
                                                  output\REVOLT\stm32f4xx_hal_uart.o (symbol from plugin)
                                                  C:\Users\PRESTO~1\AppData\Local\Temp\cc3x6Wri.ltrans3.ltrans.o
                                                  output\REVOLT\sPortTelemetry.o (symbol from plugin)
                                                  output\REVOLT\spektrumTelemetry.o (symbol from plugin)
                                                  output\REVOLT\rfVtx.o (symbol from plugin)
                                                  output\REVOLT\rfosdTelemetry.o (symbol from plugin)
                                                  output\REVOLT\mspTelemetry.o (symbol from plugin)
                                                  output\REVOLT\crossfire.o (symbol from plugin)
HAL_UART_Transmit_IT                              output\REVOLT\stm32f4xx_hal_uart.o (symbol from plugin)
HAL_UART_TxCpltCallback                           output\REVOLT\serial.o (symbol from plugin)
                                                  output\REVOLT\stm32f4xx_hal_uart.o (symbol from plugin)
HAL_UART_TxHalfCpltCallback                       output\REVOLT\stm32f4xx_hal_uart.o (symbol from plugin)
HAL_USART_DMAPause                                output\REVOLT\stm32f4xx_hal_usart.o (symbol from plugin)
HAL_USART_DMAResume                               output\REVOLT\stm32f4xx_hal_usart.o (symbol from plugin)
HAL_USART_DMAStop                                 output\REVOLT\stm32f4xx_hal_usart.o (symbol from plugin)
HAL_USART_DeInit                                  output\REVOLT\stm32f4xx_hal_usart.o (symbol from plugin)
HAL_USART_ErrorCallback                           output\REVOLT\stm32f4xx_hal_usart.o (symbol from plugin)
HAL_USART_GetError                                output\REVOLT\stm32f4xx_hal_usart.o (symbol from plugin)
HAL_USART_GetState                                output\REVOLT\stm32f4xx_hal_usart.o (symbol from plugin)
HAL_USART_IRQHandler                              output\REVOLT\stm32f4xx_hal_usart.o (symbol from plugin)
HAL_USART_Init                                    output\REVOLT\stm32f4xx_hal_usart.o (symbol from plugin)
HAL_USART_MspDeInit                               output\REVOLT\stm32f4xx_hal_usart.o (symbol from plugin)
HAL_USART_MspInit                                 output\REVOLT\stm32f4xx_hal_usart.o (symbol from plugin)
HAL_USART_Receive                                 output\REVOLT\stm32f4xx_hal_usart.o (symbol from plugin)
HAL_USART_Receive_DMA                             output\REVOLT\stm32f4xx_hal_usart.o (symbol from plugin)
HAL_USART_Receive_IT                              output\REVOLT\stm32f4xx_hal_usart.o (symbol from plugin)
HAL_USART_RxCpltCallback                          output\REVOLT\stm32f4xx_hal_usart.o (symbol from plugin)
HAL_USART_RxHalfCpltCallback                      output\REVOLT\stm32f4xx_hal_usart.o (symbol from plugin)
HAL_USART_Transmit                                output\REVOLT\stm32f4xx_hal_usart.o (symbol from plugin)
HAL_USART_TransmitReceive                         output\REVOLT\stm32f4xx_hal_usart.o (symbol from plugin)
HAL_USART_TransmitReceive_DMA                     output\REVOLT\stm32f4xx_hal_usart.o (symbol from plugin)
HAL_USART_TransmitReceive_IT                      output\REVOLT\stm32f4xx_hal_usart.o (symbol from plugin)
HAL_USART_Transmit_DMA                            output\REVOLT\stm32f4xx_hal_usart.o (symbol from plugin)
HAL_USART_Transmit_IT                             output\REVOLT\stm32f4xx_hal_usart.o (symbol from plugin)
HAL_USART_TxCpltCallback                          output\REVOLT\stm32f4xx_hal_usart.o (symbol from plugin)
HAL_USART_TxHalfCpltCallback                      output\REVOLT\stm32f4xx_hal_usart.o (symbol from plugin)
HAL_USART_TxRxCpltCallback                        output\REVOLT\stm32f4xx_hal_usart.o (symbol from plugin)
HASH_RNG_IRQHandler                               output\REVOLT\startup_stm32f405xx.o
HandleCoolLeds.lto_priv.265                       C:\Users\PRESTO~1\AppData\Local\Temp\cc3x6Wri.ltrans16.ltrans.o
                                                  C:\Users\PRESTO~1\AppData\Local\Temp\cc3x6Wri.ltrans3.ltrans.o
HandleDshotBeep                                   output\REVOLT\quopa.o (symbol from plugin)
                                                  output\REVOLT\scheduler.o (symbol from plugin)
HandleDshotBeep.part.1                            C:\Users\PRESTO~1\AppData\Local\Temp\cc3x6Wri.ltrans9.ltrans.o
                                                  C:\Users\PRESTO~1\AppData\Local\Temp\cc3x6Wri.ltrans3.ltrans.o
HandleDshotCommands                               output\REVOLT\dshotTwoWay.o (symbol from plugin)
                                                  output\REVOLT\scheduler.o (symbol from plugin)
HandleFcStartupReg                                output\REVOLT\rfbl_functions.o (symbol from plugin)
                                                  output\REVOLT\main.o (symbol from plugin)
HandleMaxOsd                                      output\REVOLT\maxOsd.o (symbol from plugin)
                                                  output\REVOLT\scheduler.o (symbol from plugin)
HandleMaxOsd.part.6                               C:\Users\PRESTO~1\AppData\Local\Temp\cc3x6Wri.ltrans20.ltrans.o
                                                  C:\Users\PRESTO~1\AppData\Local\Temp\cc3x6Wri.ltrans3.ltrans.o
HandleQuopaMode                                   output\REVOLT\quopa.o (symbol from plugin)
                                                  output\REVOLT\scheduler.o (symbol from plugin)
HandleRfOsd                                       output\REVOLT\rfosdTelemetry.o (symbol from plugin)
                                                  output\REVOLT\telemetry.o (symbol from plugin)
HandleRfOsd.part.0                                C:\Users\PRESTO~1\AppData\Local\Temp\cc3x6Wri.ltrans6.ltrans.o
                                                  C:\Users\PRESTO~1\AppData\Local\Temp\cc3x6Wri.ltrans3.ltrans.o
HandleRfbl                                        output\REVOLT\rfbl_functions.o (symbol from plugin)
                                                  output\REVOLT\main.o (symbol from plugin)
HandleRfblDisasterPrevention                      output\REVOLT\rfbl_functions.o (symbol from plugin)
                                                  output\REVOLT\flight.o (symbol from plugin)
HandleWizRc                                       C:\Users\PRESTO~1\AppData\Local\Temp\cc3x6Wri.ltrans26.ltrans.o
                                                  output\REVOLT\wizard.o (symbol from plugin)
                                                  C:\Users\PRESTO~1\AppData\Local\Temp\cc3x6Wri.ltrans3.ltrans.o
                                                  C:\Users\PRESTO~1\AppData\Local\Temp\cc3x6Wri.ltrans1.ltrans.o
                                                  output\REVOLT\scheduler.o (symbol from plugin)
HardFault_Handler                                 C:\Users\PRESTO~1\AppData\Local\Temp\cc3x6Wri.ltrans0.ltrans.o
                                                  output\REVOLT\startup_stm32f405xx.o
                                                  output\REVOLT\stm32f4xx_it.o (symbol from plugin)
I2C1_ER_IRQHandler                                output\REVOLT\startup_stm32f405xx.o
I2C1_EV_IRQHandler                                output\REVOLT\startup_stm32f405xx.o
I2C2_ER_IRQHandler                                output\REVOLT\startup_stm32f405xx.o
I2C2_EV_IRQHandler                                output\REVOLT\startup_stm32f405xx.o
I2C3_ER_IRQHandler                                output\REVOLT\startup_stm32f405xx.o
I2C3_EV_IRQHandler                                output\REVOLT\startup_stm32f405xx.o
IdleActuator                                      C:\Users\PRESTO~1\AppData\Local\Temp\cc3x6Wri.ltrans24.ltrans.o
                                                  output\REVOLT\actuator_output.o (symbol from plugin)
                                                  C:\Users\PRESTO~1\AppData\Local\Temp\cc3x6Wri.ltrans26.ltrans.o
                                                  C:\Users\PRESTO~1\AppData\Local\Temp\cc3x6Wri.ltrans3.ltrans.o
                                                  C:\Users\PRESTO~1\AppData\Local\Temp\cc3x6Wri.ltrans1.ltrans.o
                                                  output\REVOLT\wizard.o (symbol from plugin)
                                                  output\REVOLT\scheduler.o (symbol from plugin)
                                                  output\REVOLT\config.o (symbol from plugin)
ImuResetCommandQuat                               output\REVOLT\imu.o (symbol from plugin)
                                                  output\REVOLT\flight.o (symbol from plugin)
ImuUpdateCommandQuat                              output\REVOLT\imu.o (symbol from plugin)
                                                  output\REVOLT\rx.o (symbol from plugin)
InitActuators                                     C:\Users\PRESTO~1\AppData\Local\Temp\cc3x6Wri.ltrans24.ltrans.o
                                                  output\REVOLT\actuator_output.o (symbol from plugin)
                                                  C:\Users\PRESTO~1\AppData\Local\Temp\cc3x6Wri.ltrans7.ltrans.o
                                                  C:\Users\PRESTO~1\AppData\Local\Temp\cc3x6Wri.ltrans2.ltrans.o
                                                  output\REVOLT\esc_1wire.o (symbol from plugin)
                                                  output\REVOLT\flight.o (symbol from plugin)
InitAdc                                           output\REVOLT\adc.o (symbol from plugin)
                                                  output\REVOLT\flight.o (symbol from plugin)
InitAllSport                                      C:\Users\PRESTO~1\AppData\Local\Temp\cc3x6Wri.ltrans14.ltrans.o
                                                  output\REVOLT\sPortTelemetry.o (symbol from plugin)
                                                  C:\Users\PRESTO~1\AppData\Local\Temp\cc3x6Wri.ltrans6.ltrans.o
                                                  C:\Users\PRESTO~1\AppData\Local\Temp\cc3x6Wri.ltrans2.ltrans.o
                                                  output\REVOLT\telemetry.o (symbol from plugin)
                                                  output\REVOLT\smartAudio.o (symbol from plugin)
InitBiquad                                        output\REVOLT\filter.o (symbol from plugin)
                                                  output\REVOLT\pid.o (symbol from plugin)
                                                  output\REVOLT\flight.o (symbol from plugin)
InitBlockingSoftSerialPort                        output\REVOLT\newSoftSerial.o (symbol from plugin)
                                                  output\REVOLT\smartAudio.o (symbol from plugin)
InitBlockingSoftSerialPort.constprop.99           C:\Users\PRESTO~1\AppData\Local\Temp\cc3x6Wri.ltrans11.ltrans.o
                                                  C:\Users\PRESTO~1\AppData\Local\Temp\cc3x6Wri.ltrans6.ltrans.o
InitBoardUsarts                                   output\REVOLT\serial.o (symbol from plugin)
                                                  output\REVOLT\flight.o (symbol from plugin)
InitBuzzer                                        output\REVOLT\buzzer.o (symbol from plugin)
                                                  output\REVOLT\main.o (symbol from plugin)
InitCrsfTelemetry                                 output\REVOLT\crossfire.o (symbol from plugin)
                                                  output\REVOLT\telemetry.o (symbol from plugin)
InitDebugGpio                                     output\REVOLT\debug.o (symbol from plugin)
InitDmaInputOnMotors                              output\REVOLT\dmaShenanigans.o (symbol from plugin)
InitDmaOutputForSoftSerial                        output\REVOLT\dmaShenanigans.o (symbol from plugin)
                                                  output\REVOLT\esc_1wire.o (symbol from plugin)
                                                  output\REVOLT\softSerial.o (symbol from plugin)
                                                  output\REVOLT\sPortTelemetry.o (symbol from plugin)
InitDshotBeep                                     output\REVOLT\quopa.o (symbol from plugin)
                                                  output\REVOLT\main.o (symbol from plugin)
InitDshotCommandState                             output\REVOLT\dshotTwoWay.o (symbol from plugin)
                                                  output\REVOLT\main.o (symbol from plugin)
InitDshotOutputOnMotors                           output\REVOLT\dmaShenanigans.o (symbol from plugin)
                                                  output\REVOLT\actuator_output.o (symbol from plugin)
InitFakeGyroExti                                  output\REVOLT\scheduler.o (symbol from plugin)
                                                  output\REVOLT\newSoftSerial.o (symbol from plugin)
InitFlashChip                                     output\REVOLT\flash_chip.o (symbol from plugin)
                                                  output\REVOLT\flight.o (symbol from plugin)
InitFlight                                        C:\Users\PRESTO~1\AppData\Local\Temp\cc3x6Wri.ltrans2.ltrans.o
                                                  output\REVOLT\flight.o (symbol from plugin)
                                                  C:\Users\PRESTO~1\AppData\Local\Temp\cc3x6Wri.ltrans16.ltrans.o
                                                  C:\Users\PRESTO~1\AppData\Local\Temp\cc3x6Wri.ltrans13.ltrans.o
                                                  C:\Users\PRESTO~1\AppData\Local\Temp\cc3x6Wri.ltrans9.ltrans.o
                                                  C:\Users\PRESTO~1\AppData\Local\Temp\cc3x6Wri.ltrans3.ltrans.o
                                                  C:\Users\PRESTO~1\AppData\Local\Temp\cc3x6Wri.ltrans1.ltrans.o
                                                  output\REVOLT\esc_1wire.o (symbol from plugin)
                                                  output\REVOLT\dshotTwoWay.o (symbol from plugin)
                                                  output\REVOLT\wizard.o (symbol from plugin)
                                                  output\REVOLT\scheduler.o (symbol from plugin)
                                                  output\REVOLT\quopa.o (symbol from plugin)
                                                  output\REVOLT\main.o (symbol from plugin)
                                                  output\REVOLT\config.o (symbol from plugin)
InitFlightCode                                    output\REVOLT\flight.o (symbol from plugin)
InitFlightLogger                                  output\REVOLT\flight_logger.o (symbol from plugin)
                                                  output\REVOLT\flight.o (symbol from plugin)
InitGeneralInterruptTimer.constprop.100           C:\Users\PRESTO~1\AppData\Local\Temp\cc3x6Wri.ltrans11.ltrans.o
                                                  C:\Users\PRESTO~1\AppData\Local\Temp\cc3x6Wri.ltrans6.ltrans.o
                                                  C:\Users\PRESTO~1\AppData\Local\Temp\cc3x6Wri.ltrans2.ltrans.o
InitGyroExti                                      output\REVOLT\invensense_bus_spi.o (symbol from plugin)
                                                  output\REVOLT\scheduler.o (symbol from plugin)
InitImu                                           output\REVOLT\imu.o (symbol from plugin)
                                                  output\REVOLT\flight.o (symbol from plugin)
InitKdFilter                                      output\REVOLT\filter.o (symbol from plugin)
                                                  output\REVOLT\pid.o (symbol from plugin)
InitLaptimer                                      output\REVOLT\spm_laptimer.o (symbol from plugin)
InitLeds                                          output\REVOLT\leds.o (symbol from plugin)
                                                  output\REVOLT\main.o (symbol from plugin)
InitMavlink                                       output\REVOLT\telemetry.o (symbol from plugin)
InitMaxOsd                                        output\REVOLT\maxOsd.o (symbol from plugin)
                                                  output\REVOLT\flight.o (symbol from plugin)
InitMixer                                         output\REVOLT\mixer.o (symbol from plugin)
                                                  output\REVOLT\flight.o (symbol from plugin)
InitModes                                         output\REVOLT\modes.o (symbol from plugin)
                                                  output\REVOLT\flight.o (symbol from plugin)
InitMsp                                           C:\Users\PRESTO~1\AppData\Local\Temp\cc3x6Wri.ltrans15.ltrans.o
                                                  output\REVOLT\mspTelemetry.o (symbol from plugin)
                                                  C:\Users\PRESTO~1\AppData\Local\Temp\cc3x6Wri.ltrans2.ltrans.o
                                                  output\REVOLT\telemetry.o (symbol from plugin)
InitOrientation                                   output\REVOLT\gyro.o (symbol from plugin)
                                                  output\REVOLT\flight.o (symbol from plugin)
InitOutputForDma.isra.1.lto_priv.229              C:\Users\PRESTO~1\AppData\Local\Temp\cc3x6Wri.ltrans16.ltrans.o
                                                  C:\Users\PRESTO~1\AppData\Local\Temp\cc3x6Wri.ltrans24.ltrans.o
                                                  C:\Users\PRESTO~1\AppData\Local\Temp\cc3x6Wri.ltrans14.ltrans.o
                                                  C:\Users\PRESTO~1\AppData\Local\Temp\cc3x6Wri.ltrans12.ltrans.o
                                                  C:\Users\PRESTO~1\AppData\Local\Temp\cc3x6Wri.ltrans7.ltrans.o
InitPaf                                           output\REVOLT\filter.o (symbol from plugin)
                                                  output\REVOLT\flight.o (symbol from plugin)
InitPid                                           output\REVOLT\pid.o (symbol from plugin)
                                                  output\REVOLT\flight.o (symbol from plugin)
InitQuopaMode                                     output\REVOLT\quopa.o (symbol from plugin)
                                                  output\REVOLT\main.o (symbol from plugin)
InitRcData                                        output\REVOLT\rx.o (symbol from plugin)
                                                  output\REVOLT\flight.o (symbol from plugin)
InitRfOsd                                         C:\Users\PRESTO~1\AppData\Local\Temp\cc3x6Wri.ltrans6.ltrans.o
                                                  output\REVOLT\rfosdTelemetry.o (symbol from plugin)
                                                  C:\Users\PRESTO~1\AppData\Local\Temp\cc3x6Wri.ltrans2.ltrans.o
                                                  output\REVOLT\telemetry.o (symbol from plugin)
InitRfVtx                                         output\REVOLT\rfVtx.o (symbol from plugin)
InitScheduler                                     output\REVOLT\scheduler.o (symbol from plugin)
                                                  output\REVOLT\flight.o (symbol from plugin)
InitSmartAudio                                    output\REVOLT\smartAudio.o (symbol from plugin)
                                                  output\REVOLT\telemetry.o (symbol from plugin)
                                                  output\REVOLT\config.o (symbol from plugin)
InitSmartAudio.part.2                             C:\Users\PRESTO~1\AppData\Local\Temp\cc3x6Wri.ltrans6.ltrans.o
                                                  C:\Users\PRESTO~1\AppData\Local\Temp\cc3x6Wri.ltrans14.ltrans.o
                                                  C:\Users\PRESTO~1\AppData\Local\Temp\cc3x6Wri.ltrans2.ltrans.o
                                                  C:\Users\PRESTO~1\AppData\Local\Temp\cc3x6Wri.ltrans1.ltrans.o
InitSoftPwm                                       output\REVOLT\softPwm.o (symbol from plugin)
                                                  output\REVOLT\flight.o (symbol from plugin)
InitSoftSerialTimer.constprop.96                  C:\Users\PRESTO~1\AppData\Local\Temp\cc3x6Wri.ltrans11.ltrans.o
                                                  C:\Users\PRESTO~1\AppData\Local\Temp\cc3x6Wri.ltrans6.ltrans.o
InitSoftSport                                     output\REVOLT\sPortTelemetry.o (symbol from plugin)
InitSpektrumTelemetry                             output\REVOLT\spektrumTelemetry.o (symbol from plugin)
                                                  output\REVOLT\telemetry.o (symbol from plugin)
InitSport                                         output\REVOLT\sPortTelemetry.o (symbol from plugin)
InitTelemtry                                      output\REVOLT\telemetry.o (symbol from plugin)
                                                  output\REVOLT\flight.o (symbol from plugin)
InitTrampTelemetry                                C:\Users\PRESTO~1\AppData\Local\Temp\cc3x6Wri.ltrans14.ltrans.o
                                                  output\REVOLT\trampTelemetry.o (symbol from plugin)
                                                  C:\Users\PRESTO~1\AppData\Local\Temp\cc3x6Wri.ltrans2.ltrans.o
                                                  output\REVOLT\telemetry.o (symbol from plugin)
InitTransponderTimer                              output\REVOLT\transponder.o (symbol from plugin)
InitUsb                                           output\REVOLT\general_functions.o (symbol from plugin)
                                                  output\REVOLT\main.o (symbol from plugin)
InitWatchdog                                      C:\Users\PRESTO~1\AppData\Local\Temp\cc3x6Wri.ltrans26.ltrans.o
                                                  output\REVOLT\watchdog.o (symbol from plugin)
                                                  C:\Users\PRESTO~1\AppData\Local\Temp\cc3x6Wri.ltrans13.ltrans.o
                                                  C:\Users\PRESTO~1\AppData\Local\Temp\cc3x6Wri.ltrans3.ltrans.o
                                                  C:\Users\PRESTO~1\AppData\Local\Temp\cc3x6Wri.ltrans2.ltrans.o
                                                  output\REVOLT\main.o (symbol from plugin)
                                                  output\REVOLT\flight.o (symbol from plugin)
InitWs2812                                        output\REVOLT\dmaShenanigans.o (symbol from plugin)
                                                  output\REVOLT\flight.o (symbol from plugin)
InitWs2812.part.2                                 C:\Users\PRESTO~1\AppData\Local\Temp\cc3x6Wri.ltrans24.ltrans.o
                                                  C:\Users\PRESTO~1\AppData\Local\Temp\cc3x6Wri.ltrans2.ltrans.o
InitializeBuzzerPin                               output\REVOLT\buzzer.o (symbol from plugin)
InitializeGpio                                    C:\Users\PRESTO~1\AppData\Local\Temp\cc3x6Wri.ltrans0.ltrans.o
                                                  output\REVOLT\general_functions.o (symbol from plugin)
                                                  C:\Users\PRESTO~1\AppData\Local\Temp\cc3x6Wri.ltrans21.ltrans.o
                                                  C:\Users\PRESTO~1\AppData\Local\Temp\cc3x6Wri.ltrans3.ltrans.o
                                                  output\REVOLT\rx.o (symbol from plugin)
                                                  output\REVOLT\leds.o (symbol from plugin)
                                                  output\REVOLT\newSoftSerial.o (symbol from plugin)
                                                  output\REVOLT\debug.o (symbol from plugin)
InitializeGpio.constprop.173                      C:\Users\PRESTO~1\AppData\Local\Temp\cc3x6Wri.ltrans28.ltrans.o
                                                  C:\Users\PRESTO~1\AppData\Local\Temp\cc3x6Wri.ltrans3.ltrans.o
InitializeMCUSettings                             output\REVOLT\boarddef.o (symbol from plugin)
                                                  output\REVOLT\main.o (symbol from plugin)
InlineApplyGyroAccRotationAndScale                C:\Users\PRESTO~1\AppData\Local\Temp\cc3x6Wri.ltrans10.ltrans.o
                                                  output\REVOLT\gyro.o (symbol from plugin)
                                                  C:\Users\PRESTO~1\AppData\Local\Temp\cc3x6Wri.ltrans23.ltrans.o
InlineApplyMixer                                  output\REVOLT\mixer.o (symbol from plugin)
InlineApplyMotorMixer                             output\REVOLT\mixer.o (symbol from plugin)
                                                  output\REVOLT\flight.o (symbol from plugin)
InlineApplyMotorMixer1                            output\REVOLT\mixer.o (symbol from plugin)
                                                  output\REVOLT\flight.o (symbol from plugin)
InlineApplyMotorMixer3dInverted                   output\REVOLT\mixer.o (symbol from plugin)
InlineApplyMotorMixer3dNeutral                    output\REVOLT\mixer.o (symbol from plugin)
InlineApplyMotorMixer3dUpright                    output\REVOLT\mixer.o (symbol from plugin)
InlineApplyRcCommandCurve                         output\REVOLT\rx.o (symbol from plugin)
InlineChangeRangef                                output\REVOLT\rf_math.o (symbol from plugin)
                                                  output\REVOLT\rx.o (symbol from plugin)
                                                  output\REVOLT\actuator_output.o (symbol from plugin)
                                                  output\REVOLT\dshotTwoWay.o (symbol from plugin)
                                                  output\REVOLT\mixer.o (symbol from plugin)
InlineCollectRcCommand                            C:\Users\PRESTO~1\AppData\Local\Temp\cc3x6Wri.ltrans25.ltrans.o
                                                  output\REVOLT\rx.o (symbol from plugin)
                                                  C:\Users\PRESTO~1\AppData\Local\Temp\cc3x6Wri.ltrans8.ltrans.o
InlineConstrainf                                  output\REVOLT\rf_math.o (symbol from plugin)
                                                  output\REVOLT\rx.o (symbol from plugin)
                                                  output\REVOLT\wizard.o (symbol from plugin)
                                                  output\REVOLT\pid.o (symbol from plugin)
                                                  output\REVOLT\mixer.o (symbol from plugin)
                                                  output\REVOLT\flight.o (symbol from plugin)
InlineConstrainui                                 output\REVOLT\rf_math.o (symbol from plugin)
                                                  output\REVOLT\sPortTelemetry.o (symbol from plugin)
InlineDegreesToRadians                            output\REVOLT\rf_math.o (symbol from plugin)
                                                  output\REVOLT\crossfire.o (symbol from plugin)
                                                  output\REVOLT\imu.o (symbol from plugin)
InlineFlightCode                                  output\REVOLT\flight.o (symbol from plugin)
                                                  output\REVOLT\gyro.o (symbol from plugin)
InlineFlightCode.constprop.20                     C:\Users\PRESTO~1\AppData\Local\Temp\cc3x6Wri.ltrans4.ltrans.o
                                                  C:\Users\PRESTO~1\AppData\Local\Temp\cc3x6Wri.ltrans23.ltrans.o
InlineGetSetPoint                                 output\REVOLT\flight.o (symbol from plugin)
InlineInitAccFilters                              output\REVOLT\flight.o (symbol from plugin)
InlineInitGyroFilters                             output\REVOLT\flight.o (symbol from plugin)
InlineInitKdFilters                               output\REVOLT\flight.o (symbol from plugin)
InlineInitSpectrumNoiseFilter                     output\REVOLT\flight.o (symbol from plugin)
InlineMillis                                      output\REVOLT\general_functions.o (symbol from plugin)
                                                  output\REVOLT\spm_laptimer.o (symbol from plugin)
                                                  output\REVOLT\serial.o (symbol from plugin)
                                                  output\REVOLT\rx.o (symbol from plugin)
                                                  output\REVOLT\buzzer.o (symbol from plugin)
                                                  output\REVOLT\leds.o (symbol from plugin)
                                                  output\REVOLT\maxOsd.o (symbol from plugin)
                                                  output\REVOLT\softSerial.o (symbol from plugin)
                                                  output\REVOLT\adc.o (symbol from plugin)
                                                  output\REVOLT\telemetry.o (symbol from plugin)
                                                  output\REVOLT\sPortTelemetry.o (symbol from plugin)
                                                  output\REVOLT\spektrumTelemetry.o (symbol from plugin)
                                                  output\REVOLT\scheduler.o (symbol from plugin)
                                                  output\REVOLT\quopa.o (symbol from plugin)
                                                  output\REVOLT\newSoftSerial.o (symbol from plugin)
                                                  output\REVOLT\flight_logger.o (symbol from plugin)
                                                  output\REVOLT\flight.o (symbol from plugin)
InlinePidController                               output\REVOLT\pid.o (symbol from plugin)
                                                  output\REVOLT\flight.o (symbol from plugin)
InlineRadiansToDegrees                            output\REVOLT\rf_math.o (symbol from plugin)
                                                  output\REVOLT\imu.o (symbol from plugin)
InlineRcSmoothing                                 output\REVOLT\rx.o (symbol from plugin)
                                                  output\REVOLT\flight.o (symbol from plugin)
InlineUpdateAcc                                   output\REVOLT\gyro.o (symbol from plugin)
                                                  output\REVOLT\invensense_mpu_icm_device.o (symbol from plugin)
InlineUpdateAttitude                              output\REVOLT\flight.o (symbol from plugin)
                                                  output\REVOLT\gyro.o (symbol from plugin)
InlineUpdateGyro                                  output\REVOLT\gyro.o (symbol from plugin)
                                                  output\REVOLT\invensense_mpu_icm_device.o (symbol from plugin)
InlineUpdateMillisClock                           output\REVOLT\general_functions.o (symbol from plugin)
                                                  output\REVOLT\stm32f4xx_it.o (symbol from plugin)
InlineUpdateWitchcraft                            output\REVOLT\pid.o (symbol from plugin)
InlineWrite16To8                                  output\REVOLT\flight_logger.o (symbol from plugin)
IsDshotActiveOnActuator                           output\REVOLT\dmaShenanigans.o (symbol from plugin)
IsDshotEnabled                                    C:\Users\PRESTO~1\AppData\Local\Temp\cc3x6Wri.ltrans16.ltrans.o
                                                  output\REVOLT\dmaShenanigans.o (symbol from plugin)
                                                  C:\Users\PRESTO~1\AppData\Local\Temp\cc3x6Wri.ltrans9.ltrans.o
                                                  C:\Users\PRESTO~1\AppData\Local\Temp\cc3x6Wri.ltrans3.ltrans.o
                                                  C:\Users\PRESTO~1\AppData\Local\Temp\cc3x6Wri.ltrans1.ltrans.o
                                                  output\REVOLT\dshotTwoWay.o (symbol from plugin)
                                                  output\REVOLT\quopa.o (symbol from plugin)
                                                  output\REVOLT\flight_logger.o (symbol from plugin)
                                                  output\REVOLT\config.o (symbol from plugin)
KdFilterUpdate                                    output\REVOLT\filter.o (symbol from plugin)
LearningInit                                      output\REVOLT\learning.o (symbol from plugin)
                                                  output\REVOLT\flight.o (symbol from plugin)
LearningModelInit                                 output\REVOLT\learning.o (symbol from plugin)
                                                  output\REVOLT\flight.o (symbol from plugin)
LedModeDisco.lto_priv.260                         C:\Users\PRESTO~1\AppData\Local\Temp\cc3x6Wri.ltrans16.ltrans.o
                                                  C:\Users\PRESTO~1\AppData\Local\Temp\cc3x6Wri.ltrans3.ltrans.o
LedModeKnightRider.lto_priv.264                   C:\Users\PRESTO~1\AppData\Local\Temp\cc3x6Wri.ltrans16.ltrans.o
                                                  C:\Users\PRESTO~1\AppData\Local\Temp\cc3x6Wri.ltrans3.ltrans.o
LedModeMultiDisco.lto_priv.262                    C:\Users\PRESTO~1\AppData\Local\Temp\cc3x6Wri.ltrans16.ltrans.o
                                                  C:\Users\PRESTO~1\AppData\Local\Temp\cc3x6Wri.ltrans3.ltrans.o
LedModeMultiParty.lto_priv.263                    C:\Users\PRESTO~1\AppData\Local\Temp\cc3x6Wri.ltrans16.ltrans.o
                                                  C:\Users\PRESTO~1\AppData\Local\Temp\cc3x6Wri.ltrans3.ltrans.o
LedModeParty.lto_priv.261                         C:\Users\PRESTO~1\AppData\Local\Temp\cc3x6Wri.ltrans16.ltrans.o
                                                  C:\Users\PRESTO~1\AppData\Local\Temp\cc3x6Wri.ltrans3.ltrans.o
LeftPadString                                     output\REVOLT\config.o (symbol from plugin)
ListAllEscHexesInFlash                            output\REVOLT\esc_1wire.o (symbol from plugin)
                                                  output\REVOLT\wizard.o (symbol from plugin)
LoadConfig                                        output\REVOLT\config.o (symbol from plugin)
                                                  output\REVOLT\main.o (symbol from plugin)
LoggingEnabled                                    C:\Users\PRESTO~1\AppData\Local\Temp\cc3x6Wri.ltrans4.ltrans.o
                                                  output\REVOLT\flight_logger.o (symbol from plugin)
                                                  C:\Users\PRESTO~1\AppData\Local\Temp\cc3x6Wri.ltrans2.ltrans.o
LpfInit                                           output\REVOLT\filter.o (symbol from plugin)
LpfUpdate                                         output\REVOLT\filter.o (symbol from plugin)
M25p16BlockingWritePage                           output\REVOLT\flash_chip.o (symbol from plugin)
M25p16BlockingWritePagePartial                    output\REVOLT\flash_chip.o (symbol from plugin)
M25p16DmaWritePage                                output\REVOLT\flash_chip.o (symbol from plugin)
                                                  output\REVOLT\flight_logger.o (symbol from plugin)
M25p16IrqWritePage                                output\REVOLT\flash_chip.o (symbol from plugin)
M25p16ReadIdSetFlashRecord.lto_priv.278           C:\Users\PRESTO~1\AppData\Local\Temp\cc3x6Wri.ltrans17.ltrans.o
                                                  C:\Users\PRESTO~1\AppData\Local\Temp\cc3x6Wri.ltrans2.ltrans.o
M25p16ReadPage                                    output\REVOLT\flash_chip.o (symbol from plugin)
                                                  output\REVOLT\config.o (symbol from plugin)
M25p16ReadStatus.lto_priv.203                     C:\Users\PRESTO~1\AppData\Local\Temp\cc3x6Wri.ltrans18.ltrans.o
                                                  C:\Users\PRESTO~1\AppData\Local\Temp\cc3x6Wri.ltrans13.ltrans.o
                                                  C:\Users\PRESTO~1\AppData\Local\Temp\cc3x6Wri.ltrans1.ltrans.o
MassEraseDataFlash                                output\REVOLT\flash_chip.o (symbol from plugin)
                                                  output\REVOLT\wizard.o (symbol from plugin)
                                                  output\REVOLT\config.o (symbol from plugin)
MassEraseDataFlashByPage                          output\REVOLT\flash_chip.o (symbol from plugin)
                                                  output\REVOLT\config.o (symbol from plugin)
MassEraseDataFlashByPage.constprop.55             C:\Users\PRESTO~1\AppData\Local\Temp\cc3x6Wri.ltrans13.ltrans.o
                                                  C:\Users\PRESTO~1\AppData\Local\Temp\cc3x6Wri.ltrans1.ltrans.o
MaxOsdDmaTxCallback                               output\REVOLT\maxOsd.o (symbol from plugin)
MaxOsdSetVidoOnOff                                output\REVOLT\maxOsd.o (symbol from plugin)
MaxOsdSetVidoOnOff.constprop.49                   C:\Users\PRESTO~1\AppData\Local\Temp\cc3x6Wri.ltrans29.ltrans.o
                                                  C:\Users\PRESTO~1\AppData\Local\Temp\cc3x6Wri.ltrans1.ltrans.o
MaxSendReceiveCommand.isra.1.constprop.71         C:\Users\PRESTO~1\AppData\Local\Temp\cc3x6Wri.ltrans13.ltrans.o
                                                  C:\Users\PRESTO~1\AppData\Local\Temp\cc3x6Wri.ltrans20.ltrans.o
                                                  C:\Users\PRESTO~1\AppData\Local\Temp\cc3x6Wri.ltrans2.ltrans.o
                                                  C:\Users\PRESTO~1\AppData\Local\Temp\cc3x6Wri.ltrans1.ltrans.o
MaxSendReceiveCommand.isra.1.lto_priv.198         C:\Users\PRESTO~1\AppData\Local\Temp\cc3x6Wri.ltrans12.ltrans.o
                                                  C:\Users\PRESTO~1\AppData\Local\Temp\cc3x6Wri.ltrans1.ltrans.o
MemManage_Handler                                 C:\Users\PRESTO~1\AppData\Local\Temp\cc3x6Wri.ltrans0.ltrans.o
                                                  output\REVOLT\startup_stm32f405xx.o
                                                  output\REVOLT\stm32f4xx_it.o (symbol from plugin)
Micros                                            C:\Users\PRESTO~1\AppData\Local\Temp\cc3x6Wri.ltrans0.ltrans.o
                                                  output\REVOLT\general_functions.o (symbol from plugin)
                                                  C:\Users\PRESTO~1\AppData\Local\Temp\cc3x6Wri.ltrans3.ltrans.o
                                                  C:\Users\PRESTO~1\AppData\Local\Temp\cc3x6Wri.ltrans1.ltrans.o
                                                  output\REVOLT\rx.o (symbol from plugin)
                                                  output\REVOLT\leds.o (symbol from plugin)
                                                  output\REVOLT\softSerial.o (symbol from plugin)
                                                  output\REVOLT\sPortTelemetry.o (symbol from plugin)
                                                  output\REVOLT\newSoftSerial.o (symbol from plugin)
                                                  output\REVOLT\config.o (symbol from plugin)
MixerWizard                                       C:\Users\PRESTO~1\AppData\Local\Temp\cc3x6Wri.ltrans26.ltrans.o
                                                  output\REVOLT\wizard.o (symbol from plugin)
                                                  C:\Users\PRESTO~1\AppData\Local\Temp\cc3x6Wri.ltrans1.ltrans.o
ModeActive                                        output\REVOLT\modes.o (symbol from plugin)
                                                  output\REVOLT\rx.o (symbol from plugin)
                                                  output\REVOLT\leds.o (symbol from plugin)
                                                  output\REVOLT\mspTelemetry.o (symbol from plugin)
                                                  output\REVOLT\crossfire.o (symbol from plugin)
                                                  output\REVOLT\scheduler.o (symbol from plugin)
                                                  output\REVOLT\quopa.o (symbol from plugin)
                                                  output\REVOLT\pid.o (symbol from plugin)
                                                  output\REVOLT\learning.o (symbol from plugin)
                                                  output\REVOLT\flight_logger.o (symbol from plugin)
                                                  output\REVOLT\flight.o (symbol from plugin)
ModeSet                                           output\REVOLT\modes.o (symbol from plugin)
                                                  output\REVOLT\rx.o (symbol from plugin)
                                                  output\REVOLT\leds.o (symbol from plugin)
                                                  output\REVOLT\scheduler.o (symbol from plugin)
                                                  output\REVOLT\learning.o (symbol from plugin)
                                                  output\REVOLT\flight_logger.o (symbol from plugin)
                                                  output\REVOLT\flight.o (symbol from plugin)
MultiplyQuatAndQuat                               output\REVOLT\imu.o (symbol from plugin)
MultiplyQuatAndVector                             output\REVOLT\imu.o (symbol from plugin)
MultiplyQuaternionByQuaternion                    output\REVOLT\imu.o (symbol from plugin)
NMI_Handler                                       C:\Users\PRESTO~1\AppData\Local\Temp\cc3x6Wri.ltrans0.ltrans.o
                                                  output\REVOLT\startup_stm32f405xx.o
                                                  output\REVOLT\stm32f4xx_it.o (symbol from plugin)
NVIC_SystemReset.lto_priv.213                     C:\Users\PRESTO~1\AppData\Local\Temp\cc3x6Wri.ltrans0.ltrans.o
                                                  C:\Users\PRESTO~1\AppData\Local\Temp\cc3x6Wri.ltrans1.ltrans.o
NewProcessSoftSerialBits                          C:\Users\PRESTO~1\AppData\Local\Temp\cc3x6Wri.ltrans9.ltrans.o
                                                  output\REVOLT\newSoftSerial.o (symbol from plugin)
                                                  C:\Users\PRESTO~1\AppData\Local\Temp\cc3x6Wri.ltrans11.ltrans.o
                                                  C:\Users\PRESTO~1\AppData\Local\Temp\cc3x6Wri.ltrans3.ltrans.o
                                                  output\REVOLT\sPortTelemetry.o (symbol from plugin)
NewSoftSerialExtiCallback                         C:\Users\PRESTO~1\AppData\Local\Temp\cc3x6Wri.ltrans9.ltrans.o
                                                  output\REVOLT\newSoftSerial.o (symbol from plugin)
                                                  C:\Users\PRESTO~1\AppData\Local\Temp\cc3x6Wri.ltrans11.ltrans.o
NewSoftSerialTimerCallback                        C:\Users\PRESTO~1\AppData\Local\Temp\cc3x6Wri.ltrans9.ltrans.o
                                                  output\REVOLT\newSoftSerial.o (symbol from plugin)
                                                  C:\Users\PRESTO~1\AppData\Local\Temp\cc3x6Wri.ltrans11.ltrans.o
OTG_FS_IRQHandler                                 C:\Users\PRESTO~1\AppData\Local\Temp\cc3x6Wri.ltrans0.ltrans.o
                                                  output\REVOLT\startup_stm32f405xx.o
                                                  output\REVOLT\stm32f4xx_it.o (symbol from plugin)
OTG_FS_WKUP_IRQHandler                            output\REVOLT\startup_stm32f405xx.o
OTG_HS_EP1_IN_IRQHandler                          output\REVOLT\startup_stm32f405xx.o
OTG_HS_EP1_OUT_IRQHandler                         output\REVOLT\startup_stm32f405xx.o
OTG_HS_IRQHandler                                 output\REVOLT\startup_stm32f405xx.o
OTG_HS_WKUP_IRQHandler                            output\REVOLT\startup_stm32f405xx.o
OldInitPaf                                        output\REVOLT\filter.o (symbol from plugin)
                                                  output\REVOLT\flight.o (symbol from plugin)
OldPafUpdate                                      output\REVOLT\filter.o (symbol from plugin)
                                                  output\REVOLT\flight.o (symbol from plugin)
OneWire                                           C:\Users\PRESTO~1\AppData\Local\Temp\cc3x6Wri.ltrans7.ltrans.o
                                                  output\REVOLT\wizard.o (symbol from plugin)
                                                  C:\Users\PRESTO~1\AppData\Local\Temp\cc3x6Wri.ltrans1.ltrans.o
                                                  output\REVOLT\config.o (symbol from plugin)
OneWireDeinit                                     C:\Users\PRESTO~1\AppData\Local\Temp\cc3x6Wri.ltrans16.ltrans.o
                                                  output\REVOLT\esc_1wire.o (symbol from plugin)
                                                  C:\Users\PRESTO~1\AppData\Local\Temp\cc3x6Wri.ltrans7.ltrans.o
                                                  output\REVOLT\wizard.o (symbol from plugin)
OneWireInit                                       output\REVOLT\esc_1wire.o (symbol from plugin)
                                                  output\REVOLT\wizard.o (symbol from plugin)
OneWireParameterNameToValue                       output\REVOLT\esc_1wire.o (symbol from plugin)
                                                  output\REVOLT\wizard.o (symbol from plugin)
OneWireParameterNumberToValue                     output\REVOLT\esc_1wire.o (symbol from plugin)
                                                  output\REVOLT\wizard.o (symbol from plugin)
OneWireParameterValueToName                       output\REVOLT\esc_1wire.o (symbol from plugin)
                                                  output\REVOLT\wizard.o (symbol from plugin)
OneWireParameterValueToNumber                     output\REVOLT\esc_1wire.o (symbol from plugin)
                                                  output\REVOLT\wizard.o (symbol from plugin)
OneWireSaveConfig                                 C:\Users\PRESTO~1\AppData\Local\Temp\cc3x6Wri.ltrans20.ltrans.o
                                                  output\REVOLT\esc_1wire.o (symbol from plugin)
                                                  C:\Users\PRESTO~1\AppData\Local\Temp\cc3x6Wri.ltrans7.ltrans.o
                                                  output\REVOLT\wizard.o (symbol from plugin)
OutputActuators                                   output\REVOLT\actuator_output.o (symbol from plugin)
                                                  output\REVOLT\wizard.o (symbol from plugin)
                                                  output\REVOLT\flight.o (symbol from plugin)
OutputActuators.constprop.53                      C:\Users\PRESTO~1\AppData\Local\Temp\cc3x6Wri.ltrans29.ltrans.o
                                                  C:\Users\PRESTO~1\AppData\Local\Temp\cc3x6Wri.ltrans4.ltrans.o
                                                  C:\Users\PRESTO~1\AppData\Local\Temp\cc3x6Wri.ltrans1.ltrans.o
OutputDDShotDma                                   C:\Users\PRESTO~1\AppData\Local\Temp\cc3x6Wri.ltrans16.ltrans.o
                                                  output\REVOLT\dmaShenanigans.o (symbol from plugin)
                                                  C:\Users\PRESTO~1\AppData\Local\Temp\cc3x6Wri.ltrans29.ltrans.o
                                                  C:\Users\PRESTO~1\AppData\Local\Temp\cc3x6Wri.ltrans26.ltrans.o
                                                  C:\Users\PRESTO~1\AppData\Local\Temp\cc3x6Wri.ltrans24.ltrans.o
                                                  C:\Users\PRESTO~1\AppData\Local\Temp\cc3x6Wri.ltrans3.ltrans.o
                                                  C:\Users\PRESTO~1\AppData\Local\Temp\cc3x6Wri.ltrans1.ltrans.o
                                                  output\REVOLT\actuator_output.o (symbol from plugin)
                                                  output\REVOLT\scheduler.o (symbol from plugin)
                                                  output\REVOLT\config.o (symbol from plugin)
OutputSerialDmaByte                               output\REVOLT\dmaShenanigans.o (symbol from plugin)
                                                  output\REVOLT\actuator_output.o (symbol from plugin)
                                                  output\REVOLT\leds.o (symbol from plugin)
                                                  output\REVOLT\softSerial.o (symbol from plugin)
                                                  output\REVOLT\sPortTelemetry.o (symbol from plugin)
                                                  output\REVOLT\dshotTwoWay.o (symbol from plugin)
                                                  output\REVOLT\scheduler.o (symbol from plugin)
                                                  output\REVOLT\quopa.o (symbol from plugin)
                                                  output\REVOLT\config.o (symbol from plugin)
OutputSerialDmaByte.constprop.149                 C:\Users\PRESTO~1\AppData\Local\Temp\cc3x6Wri.ltrans27.ltrans.o
                                                  C:\Users\PRESTO~1\AppData\Local\Temp\cc3x6Wri.ltrans24.ltrans.o
                                                  C:\Users\PRESTO~1\AppData\Local\Temp\cc3x6Wri.ltrans13.ltrans.o
OutputSerialDmaByte.constprop.150                 C:\Users\PRESTO~1\AppData\Local\Temp\cc3x6Wri.ltrans27.ltrans.o
                                                  C:\Users\PRESTO~1\AppData\Local\Temp\cc3x6Wri.ltrans29.ltrans.o
                                                  C:\Users\PRESTO~1\AppData\Local\Temp\cc3x6Wri.ltrans26.ltrans.o
                                                  C:\Users\PRESTO~1\AppData\Local\Temp\cc3x6Wri.ltrans24.ltrans.o
                                                  C:\Users\PRESTO~1\AppData\Local\Temp\cc3x6Wri.ltrans9.ltrans.o
                                                  C:\Users\PRESTO~1\AppData\Local\Temp\cc3x6Wri.ltrans3.ltrans.o
                                                  C:\Users\PRESTO~1\AppData\Local\Temp\cc3x6Wri.ltrans1.ltrans.o
OutputSerialDmaByte.constprop.152                 C:\Users\PRESTO~1\AppData\Local\Temp\cc3x6Wri.ltrans27.ltrans.o
                                                  C:\Users\PRESTO~1\AppData\Local\Temp\cc3x6Wri.ltrans12.ltrans.o
                                                  C:\Users\PRESTO~1\AppData\Local\Temp\cc3x6Wri.ltrans3.ltrans.o
OutputVar                                         output\REVOLT\config.o (symbol from plugin)
OutputVarSet                                      C:\Users\PRESTO~1\AppData\Local\Temp\cc3x6Wri.ltrans0.ltrans.o
                                                  output\REVOLT\config.o (symbol from plugin)
                                                  C:\Users\PRESTO~1\AppData\Local\Temp\cc3x6Wri.ltrans1.ltrans.o
                                                  output\REVOLT\flight_logger.o (symbol from plugin)
PVD_IRQHandler                                    output\REVOLT\startup_stm32f405xx.o
PafUpdate                                         output\REVOLT\filter.o (symbol from plugin)
                                                  output\REVOLT\flight.o (symbol from plugin)
PageEraseSiLabsBLHeli.lto_priv.241                C:\Users\PRESTO~1\AppData\Local\Temp\cc3x6Wri.ltrans20.ltrans.o
                                                  C:\Users\PRESTO~1\AppData\Local\Temp\cc3x6Wri.ltrans7.ltrans.o
PendSV_Handler                                    C:\Users\PRESTO~1\AppData\Local\Temp\cc3x6Wri.ltrans0.ltrans.o
                                                  output\REVOLT\startup_stm32f405xx.o
                                                  output\REVOLT\stm32f4xx_it.o (symbol from plugin)
PollAdc                                           output\REVOLT\adc.o (symbol from plugin)
                                                  output\REVOLT\scheduler.o (symbol from plugin)
PowerInveter                                      output\REVOLT\rx.o (symbol from plugin)
                                                  output\REVOLT\serial.o (symbol from plugin)
Powerf                                            output\REVOLT\rf_math.o (symbol from plugin)
                                                  output\REVOLT\rx.o (symbol from plugin)
PpmExtiCallback                                   C:\Users\PRESTO~1\AppData\Local\Temp\cc3x6Wri.ltrans25.ltrans.o
                                                  output\REVOLT\rx.o (symbol from plugin)
                                                  C:\Users\PRESTO~1\AppData\Local\Temp\cc3x6Wri.ltrans2.ltrans.o
                                                  output\REVOLT\serial.o (symbol from plugin)
PreArmFilterCheck                                 C:\Users\PRESTO~1\AppData\Local\Temp\cc3x6Wri.ltrans4.ltrans.o
                                                  output\REVOLT\rx.o (symbol from plugin)
                                                  C:\Users\PRESTO~1\AppData\Local\Temp\cc3x6Wri.ltrans25.ltrans.o
                                                  output\REVOLT\flight.o (symbol from plugin)
PrepareFlash                                      output\REVOLT\flash.o (symbol from plugin)
                                                  output\REVOLT\config.o (symbol from plugin)
PrintCurve.lto_priv.248                           C:\Users\PRESTO~1\AppData\Local\Temp\cc3x6Wri.ltrans31.ltrans.o
                                                  C:\Users\PRESTO~1\AppData\Local\Temp\cc3x6Wri.ltrans9.ltrans.o
PrintModes                                        C:\Users\PRESTO~1\AppData\Local\Temp\cc3x6Wri.ltrans9.ltrans.o
                                                  output\REVOLT\modes.o (symbol from plugin)
                                                  C:\Users\PRESTO~1\AppData\Local\Temp\cc3x6Wri.ltrans4.ltrans.o
                                                  C:\Users\PRESTO~1\AppData\Local\Temp\cc3x6Wri.ltrans1.ltrans.o
                                                  output\REVOLT\flight_logger.o (symbol from plugin)
                                                  output\REVOLT\config.o (symbol from plugin)
PrintTpaCurves                                    C:\Users\PRESTO~1\AppData\Local\Temp\cc3x6Wri.ltrans9.ltrans.o
                                                  output\REVOLT\mixer.o (symbol from plugin)
                                                  C:\Users\PRESTO~1\AppData\Local\Temp\cc3x6Wri.ltrans4.ltrans.o
                                                  C:\Users\PRESTO~1\AppData\Local\Temp\cc3x6Wri.ltrans1.ltrans.o
                                                  output\REVOLT\flight_logger.o (symbol from plugin)
                                                  output\REVOLT\config.o (symbol from plugin)
PrintVtxInfo                                      C:\Users\PRESTO~1\AppData\Local\Temp\cc3x6Wri.ltrans0.ltrans.o
                                                  output\REVOLT\config.o (symbol from plugin)
                                                  C:\Users\PRESTO~1\AppData\Local\Temp\cc3x6Wri.ltrans1.ltrans.o
ProcessArmingStructure                            output\REVOLT\rx.o (symbol from plugin)
                                                  output\REVOLT\scheduler.o (symbol from plugin)
ProcessCommand                                    output\REVOLT\config.o (symbol from plugin)
                                                  output\REVOLT\scheduler.o (symbol from plugin)
ProcessCommand.constprop.35                       C:\Users\PRESTO~1\AppData\Local\Temp\cc3x6Wri.ltrans1.ltrans.o
                                                  C:\Users\PRESTO~1\AppData\Local\Temp\cc3x6Wri.ltrans3.ltrans.o
ProcessCrsfPacket                                 output\REVOLT\rx.o (symbol from plugin)
                                                  output\REVOLT\serial.o (symbol from plugin)
ProcessEEprom.isra.0.lto_priv.230                 C:\Users\PRESTO~1\AppData\Local\Temp\cc3x6Wri.ltrans16.ltrans.o
                                                  C:\Users\PRESTO~1\AppData\Local\Temp\cc3x6Wri.ltrans20.ltrans.o
                                                  C:\Users\PRESTO~1\AppData\Local\Temp\cc3x6Wri.ltrans7.ltrans.o
ProcessIbusPacket                                 output\REVOLT\rx.o (symbol from plugin)
                                                  output\REVOLT\serial.o (symbol from plugin)
ProcessSbusPacket                                 output\REVOLT\rx.o (symbol from plugin)
                                                  output\REVOLT\serial.o (symbol from plugin)
ProcessSerialRx                                   output\REVOLT\serial.o (symbol from plugin)
ProcessSoftSerialLineIdle.constprop.59            C:\Users\PRESTO~1\AppData\Local\Temp\cc3x6Wri.ltrans13.ltrans.o
                                                  C:\Users\PRESTO~1\AppData\Local\Temp\cc3x6Wri.ltrans12.ltrans.o
ProcessSpektrumPacket                             output\REVOLT\rx.o (symbol from plugin)
                                                  output\REVOLT\serial.o (symbol from plugin)
ProcessSumdPacket                                 output\REVOLT\rx.o (symbol from plugin)
                                                  output\REVOLT\serial.o (symbol from plugin)
ProcessTelemtry                                   output\REVOLT\telemetry.o (symbol from plugin)
                                                  output\REVOLT\scheduler.o (symbol from plugin)
PutSoftSerialActuatorInSendState.lto_priv.202     C:\Users\PRESTO~1\AppData\Local\Temp\cc3x6Wri.ltrans12.ltrans.o
                                                  C:\Users\PRESTO~1\AppData\Local\Temp\cc3x6Wri.ltrans13.ltrans.o
PutSportIntoSendState.isra.3.lto_priv.259         C:\Users\PRESTO~1\AppData\Local\Temp\cc3x6Wri.ltrans14.ltrans.o
                                                  C:\Users\PRESTO~1\AppData\Local\Temp\cc3x6Wri.ltrans3.ltrans.o
QuaternionConjugate                               output\REVOLT\imu.o (symbol from plugin)
RCC_IRQHandler                                    output\REVOLT\startup_stm32f405xx.o
RTC_Alarm_IRQHandler                              output\REVOLT\startup_stm32f405xx.o
RTC_Bcd2ToByte                                    output\REVOLT\stm32f4xx_hal_rtc.o (symbol from plugin)
                                                  output\REVOLT\stm32f4xx_hal_rtc_ex.o (symbol from plugin)
RTC_ByteToBcd2                                    output\REVOLT\stm32f4xx_hal_rtc.o (symbol from plugin)
RTC_EnterInitMode                                 output\REVOLT\stm32f4xx_hal_rtc.o (symbol from plugin)
                                                  output\REVOLT\stm32f4xx_hal_rtc_ex.o (symbol from plugin)
RTC_WKUP_IRQHandler                               output\REVOLT\startup_stm32f405xx.o
ReadEEpromSiLabsBLHeli.lto_priv.239               C:\Users\PRESTO~1\AppData\Local\Temp\cc3x6Wri.ltrans20.ltrans.o
                                                  C:\Users\PRESTO~1\AppData\Local\Temp\cc3x6Wri.ltrans7.ltrans.o
ReadFlashSiLabsBLHeli.lto_priv.237                C:\Users\PRESTO~1\AppData\Local\Temp\cc3x6Wri.ltrans20.ltrans.o
                                                  C:\Users\PRESTO~1\AppData\Local\Temp\cc3x6Wri.ltrans7.ltrans.o
ReadRfblBkRegs                                    output\REVOLT\rfbl_functions.o (symbol from plugin)
ReceiveSoftSerialBlocking                         output\REVOLT\newSoftSerial.o (symbol from plugin)
                                                  output\REVOLT\smartAudio.o (symbol from plugin)
ReceiveSoftSerialBlocking.constprop.92            C:\Users\PRESTO~1\AppData\Local\Temp\cc3x6Wri.ltrans11.ltrans.o
                                                  C:\Users\PRESTO~1\AppData\Local\Temp\cc3x6Wri.ltrans14.ltrans.o
                                                  C:\Users\PRESTO~1\AppData\Local\Temp\cc3x6Wri.ltrans6.ltrans.o
RemoveNull                                        output\REVOLT\config.o (symbol from plugin)
ResetGyroCalibration                              output\REVOLT\gyro.o (symbol from plugin)
                                                  output\REVOLT\rx.o (symbol from plugin)
                                                  output\REVOLT\config.o (symbol from plugin)
ResetPersistance                                  C:\Users\PRESTO~1\AppData\Local\Temp\cc3x6Wri.ltrans23.ltrans.o
                                                  output\REVOLT\flash_chip.o (symbol from plugin)
                                                  C:\Users\PRESTO~1\AppData\Local\Temp\cc3x6Wri.ltrans2.ltrans.o
                                                  C:\Users\PRESTO~1\AppData\Local\Temp\cc3x6Wri.ltrans1.ltrans.o
                                                  output\REVOLT\config.o (symbol from plugin)
ResetTpaCurves                                    C:\Users\PRESTO~1\AppData\Local\Temp\cc3x6Wri.ltrans31.ltrans.o
                                                  output\REVOLT\mixer.o (symbol from plugin)
                                                  C:\Users\PRESTO~1\AppData\Local\Temp\cc3x6Wri.ltrans1.ltrans.o
                                                  C:\Users\PRESTO~1\AppData\Local\Temp\cc3x6Wri.ltrans0.ltrans.o
                                                  output\REVOLT\config.o (symbol from plugin)
Reset_Handler                                     output\REVOLT\startup_stm32f405xx.o
RfCustomReply                                     C:\Users\PRESTO~1\AppData\Local\Temp\cc3x6Wri.ltrans0.ltrans.o
                                                  output\REVOLT\config.o (symbol from plugin)
                                                  C:\Users\PRESTO~1\AppData\Local\Temp\cc3x6Wri.ltrans1.ltrans.o
RfCustomReplyBuffer                               C:\Users\PRESTO~1\AppData\Local\Temp\cc3x6Wri.ltrans0.ltrans.o
                                                  output\REVOLT\config.o (symbol from plugin)
                                                  C:\Users\PRESTO~1\AppData\Local\Temp\cc3x6Wri.ltrans31.ltrans.o
                                                  C:\Users\PRESTO~1\AppData\Local\Temp\cc3x6Wri.ltrans26.ltrans.o
                                                  C:\Users\PRESTO~1\AppData\Local\Temp\cc3x6Wri.ltrans7.ltrans.o
                                                  C:\Users\PRESTO~1\AppData\Local\Temp\cc3x6Wri.ltrans4.ltrans.o
                                                  C:\Users\PRESTO~1\AppData\Local\Temp\cc3x6Wri.ltrans1.ltrans.o
                                                  output\REVOLT\wizard.o (symbol from plugin)
                                                  output\REVOLT\modes.o (symbol from plugin)
                                                  output\REVOLT\mixer.o (symbol from plugin)
                                                  output\REVOLT\flight_logger.o (symbol from plugin)
RfVtxBand                                         output\REVOLT\rfVtx.o (symbol from plugin)
RfVtxBaud                                         output\REVOLT\rfVtx.o (symbol from plugin)
RfVtxChannel                                      output\REVOLT\rfVtx.o (symbol from plugin)
RfVtxOff                                          output\REVOLT\rfVtx.o (symbol from plugin)
RfVtxOn200                                        output\REVOLT\rfVtx.o (symbol from plugin)
RfVtxOn25                                         output\REVOLT\rfVtx.o (symbol from plugin)
RfblDisasterPreventionCheck                       output\REVOLT\flight.o (symbol from plugin)
RtcReadBackupRegister                             output\REVOLT\general_functions.o (symbol from plugin)
                                                  output\REVOLT\rx.o (symbol from plugin)
                                                  output\REVOLT\rfbl_functions.o (symbol from plugin)
RtcWriteBackupRegister                            C:\Users\PRESTO~1\AppData\Local\Temp\cc3x6Wri.ltrans0.ltrans.o
                                                  output\REVOLT\general_functions.o (symbol from plugin)
                                                  C:\Users\PRESTO~1\AppData\Local\Temp\cc3x6Wri.ltrans25.ltrans.o
                                                  C:\Users\PRESTO~1\AppData\Local\Temp\cc3x6Wri.ltrans3.ltrans.o
                                                  C:\Users\PRESTO~1\AppData\Local\Temp\cc3x6Wri.ltrans1.ltrans.o
                                                  output\REVOLT\rx.o (symbol from plugin)
                                                  output\REVOLT\rfbl_functions.o (symbol from plugin)
                                                  output\REVOLT\config.o (symbol from plugin)
RxUpdate                                          C:\Users\PRESTO~1\AppData\Local\Temp\cc3x6Wri.ltrans25.ltrans.o
                                                  output\REVOLT\rx.o (symbol from plugin)
                                                  C:\Users\PRESTO~1\AppData\Local\Temp\cc3x6Wri.ltrans8.ltrans.o
SDIO_IRQHandler                                   output\REVOLT\startup_stm32f405xx.o
SKIP_GYRO                                         C:\Users\PRESTO~1\AppData\Local\Temp\cc3x6Wri.ltrans11.ltrans.o
                                                  output\REVOLT\flight.o (symbol from plugin)
                                                  C:\Users\PRESTO~1\AppData\Local\Temp\cc3x6Wri.ltrans26.ltrans.o
                                                  C:\Users\PRESTO~1\AppData\Local\Temp\cc3x6Wri.ltrans13.ltrans.o
                                                  C:\Users\PRESTO~1\AppData\Local\Temp\cc3x6Wri.ltrans9.ltrans.o
                                                  C:\Users\PRESTO~1\AppData\Local\Temp\cc3x6Wri.ltrans4.ltrans.o
                                                  C:\Users\PRESTO~1\AppData\Local\Temp\cc3x6Wri.ltrans3.ltrans.o
                                                  C:\Users\PRESTO~1\AppData\Local\Temp\cc3x6Wri.ltrans2.ltrans.o
                                                  C:\Users\PRESTO~1\AppData\Local\Temp\cc3x6Wri.ltrans1.ltrans.o
                                                  C:\Users\PRESTO~1\AppData\Local\Temp\cc3x6Wri.ltrans0.ltrans.o
                                                  output\REVOLT\dshotTwoWay.o (symbol from plugin)
                                                  output\REVOLT\wizard.o (symbol from plugin)
                                                  output\REVOLT\quopa.o (symbol from plugin)
                                                  output\REVOLT\newSoftSerial.o (symbol from plugin)
                                                  output\REVOLT\config.o (symbol from plugin)
SPI1_IRQHandler                                   C:\Users\PRESTO~1\AppData\Local\Temp\cc3x6Wri.ltrans0.ltrans.o
                                                  output\REVOLT\startup_stm32f405xx.o
                                                  output\REVOLT\stm32f4xx_it.o (symbol from plugin)
SPI2_IRQHandler                                   C:\Users\PRESTO~1\AppData\Local\Temp\cc3x6Wri.ltrans0.ltrans.o
                                                  output\REVOLT\startup_stm32f405xx.o
                                                  output\REVOLT\stm32f4xx_it.o (symbol from plugin)
SPI3_IRQHandler                                   C:\Users\PRESTO~1\AppData\Local\Temp\cc3x6Wri.ltrans0.ltrans.o
                                                  output\REVOLT\startup_stm32f405xx.o
                                                  output\REVOLT\stm32f4xx_it.o (symbol from plugin)
SPI_DMAAbortOnError.lto_priv.279                  C:\Users\PRESTO~1\AppData\Local\Temp\cc3x6Wri.ltrans5.ltrans.o
                                                  C:\Users\PRESTO~1\AppData\Local\Temp\cc3x6Wri.ltrans0.ltrans.o
SPI_DMAError.lto_priv.224                         C:\Users\PRESTO~1\AppData\Local\Temp\cc3x6Wri.ltrans5.ltrans.o
                                                  C:\Users\PRESTO~1\AppData\Local\Temp\cc3x6Wri.ltrans30.ltrans.o
                                                  C:\Users\PRESTO~1\AppData\Local\Temp\cc3x6Wri.ltrans25.ltrans.o
                                                  C:\Users\PRESTO~1\AppData\Local\Temp\cc3x6Wri.ltrans19.ltrans.o
SPI_DMAHalfReceiveCplt.lto_priv.220               C:\Users\PRESTO~1\AppData\Local\Temp\cc3x6Wri.ltrans5.ltrans.o
                                                  C:\Users\PRESTO~1\AppData\Local\Temp\cc3x6Wri.ltrans30.ltrans.o
                                                  C:\Users\PRESTO~1\AppData\Local\Temp\cc3x6Wri.ltrans25.ltrans.o
                                                  C:\Users\PRESTO~1\AppData\Local\Temp\cc3x6Wri.ltrans19.ltrans.o
SPI_DMAHalfTransmitReceiveCplt.lto_priv.222       C:\Users\PRESTO~1\AppData\Local\Temp\cc3x6Wri.ltrans5.ltrans.o
                                                  C:\Users\PRESTO~1\AppData\Local\Temp\cc3x6Wri.ltrans30.ltrans.o
                                                  C:\Users\PRESTO~1\AppData\Local\Temp\cc3x6Wri.ltrans25.ltrans.o
                                                  C:\Users\PRESTO~1\AppData\Local\Temp\cc3x6Wri.ltrans19.ltrans.o
SPI_DMAReceiveCplt.lto_priv.221                   C:\Users\PRESTO~1\AppData\Local\Temp\cc3x6Wri.ltrans5.ltrans.o
                                                  C:\Users\PRESTO~1\AppData\Local\Temp\cc3x6Wri.ltrans30.ltrans.o
                                                  C:\Users\PRESTO~1\AppData\Local\Temp\cc3x6Wri.ltrans25.ltrans.o
                                                  C:\Users\PRESTO~1\AppData\Local\Temp\cc3x6Wri.ltrans19.ltrans.o
SPI_DMATransmitReceiveCplt.lto_priv.223           C:\Users\PRESTO~1\AppData\Local\Temp\cc3x6Wri.ltrans5.ltrans.o
                                                  C:\Users\PRESTO~1\AppData\Local\Temp\cc3x6Wri.ltrans30.ltrans.o
                                                  C:\Users\PRESTO~1\AppData\Local\Temp\cc3x6Wri.ltrans25.ltrans.o
                                                  C:\Users\PRESTO~1\AppData\Local\Temp\cc3x6Wri.ltrans19.ltrans.o
SPI_Init.lto_priv.267                             C:\Users\PRESTO~1\AppData\Local\Temp\cc3x6Wri.ltrans23.ltrans.o
                                                  C:\Users\PRESTO~1\AppData\Local\Temp\cc3x6Wri.ltrans2.ltrans.o
SPI_TxISR_16BIT.lto_priv.227                      C:\Users\PRESTO~1\AppData\Local\Temp\cc3x6Wri.ltrans5.ltrans.o
                                                  C:\Users\PRESTO~1\AppData\Local\Temp\cc3x6Wri.ltrans18.ltrans.o
SPI_TxISR_8BIT.lto_priv.228                       C:\Users\PRESTO~1\AppData\Local\Temp\cc3x6Wri.ltrans5.ltrans.o
                                                  C:\Users\PRESTO~1\AppData\Local\Temp\cc3x6Wri.ltrans18.ltrans.o
SVC_Handler                                       C:\Users\PRESTO~1\AppData\Local\Temp\cc3x6Wri.ltrans0.ltrans.o
                                                  output\REVOLT\startup_stm32f405xx.o
                                                  output\REVOLT\stm32f4xx_it.o (symbol from plugin)
SanityCheckEscProtocolAndFrequency                output\REVOLT\flight.o (symbol from plugin)
SaveAndSend                                       C:\Users\PRESTO~1\AppData\Local\Temp\cc3x6Wri.ltrans0.ltrans.o
                                                  output\REVOLT\config.o (symbol from plugin)
                                                  C:\Users\PRESTO~1\AppData\Local\Temp\cc3x6Wri.ltrans26.ltrans.o
                                                  C:\Users\PRESTO~1\AppData\Local\Temp\cc3x6Wri.ltrans1.ltrans.o
                                                  output\REVOLT\wizard.o (symbol from plugin)
SaveConfig                                        output\REVOLT\config.o (symbol from plugin)
                                                  output\REVOLT\rx.o (symbol from plugin)
                                                  output\REVOLT\sPortTelemetry.o (symbol from plugin)
                                                  output\REVOLT\spektrumTelemetry.o (symbol from plugin)
SaveConfig.constprop.68                           C:\Users\PRESTO~1\AppData\Local\Temp\cc3x6Wri.ltrans13.ltrans.o
                                                  C:\Users\PRESTO~1\AppData\Local\Temp\cc3x6Wri.ltrans22.ltrans.o
                                                  C:\Users\PRESTO~1\AppData\Local\Temp\cc3x6Wri.ltrans6.ltrans.o
                                                  C:\Users\PRESTO~1\AppData\Local\Temp\cc3x6Wri.ltrans3.ltrans.o
                                                  C:\Users\PRESTO~1\AppData\Local\Temp\cc3x6Wri.ltrans0.ltrans.o
SavePersistance                                   C:\Users\PRESTO~1\AppData\Local\Temp\cc3x6Wri.ltrans18.ltrans.o
                                                  output\REVOLT\flash_chip.o (symbol from plugin)
                                                  C:\Users\PRESTO~1\AppData\Local\Temp\cc3x6Wri.ltrans23.ltrans.o
                                                  C:\Users\PRESTO~1\AppData\Local\Temp\cc3x6Wri.ltrans2.ltrans.o
Scheduler                                         output\REVOLT\scheduler.o (symbol from plugin)
                                                  output\REVOLT\main.o (symbol from plugin)
SendCamKey                                        output\REVOLT\softPwm.o (symbol from plugin)
SendCrsfTelem                                     C:\Users\PRESTO~1\AppData\Local\Temp\cc3x6Wri.ltrans15.ltrans.o
                                                  output\REVOLT\crossfire.o (symbol from plugin)
                                                  C:\Users\PRESTO~1\AppData\Local\Temp\cc3x6Wri.ltrans3.ltrans.o
                                                  output\REVOLT\telemetry.o (symbol from plugin)
SendMsp                                           output\REVOLT\mspTelemetry.o (symbol from plugin)
SendMspAnalog                                     C:\Users\PRESTO~1\AppData\Local\Temp\cc3x6Wri.ltrans15.ltrans.o
                                                  output\REVOLT\mspTelemetry.o (symbol from plugin)
                                                  C:\Users\PRESTO~1\AppData\Local\Temp\cc3x6Wri.ltrans3.ltrans.o
                                                  output\REVOLT\telemetry.o (symbol from plugin)
SendMspAttitude                                   C:\Users\PRESTO~1\AppData\Local\Temp\cc3x6Wri.ltrans15.ltrans.o
                                                  output\REVOLT\mspTelemetry.o (symbol from plugin)
                                                  C:\Users\PRESTO~1\AppData\Local\Temp\cc3x6Wri.ltrans3.ltrans.o
                                                  output\REVOLT\telemetry.o (symbol from plugin)
SendMspBoxIds                                     C:\Users\PRESTO~1\AppData\Local\Temp\cc3x6Wri.ltrans15.ltrans.o
                                                  output\REVOLT\mspTelemetry.o (symbol from plugin)
                                                  C:\Users\PRESTO~1\AppData\Local\Temp\cc3x6Wri.ltrans3.ltrans.o
                                                  output\REVOLT\telemetry.o (symbol from plugin)
SendMspStatus                                     C:\Users\PRESTO~1\AppData\Local\Temp\cc3x6Wri.ltrans15.ltrans.o
                                                  output\REVOLT\mspTelemetry.o (symbol from plugin)
                                                  C:\Users\PRESTO~1\AppData\Local\Temp\cc3x6Wri.ltrans3.ltrans.o
                                                  output\REVOLT\telemetry.o (symbol from plugin)
SendRfCustomReplyBuffer                           C:\Users\PRESTO~1\AppData\Local\Temp\cc3x6Wri.ltrans0.ltrans.o
                                                  output\REVOLT\config.o (symbol from plugin)
                                                  C:\Users\PRESTO~1\AppData\Local\Temp\cc3x6Wri.ltrans1.ltrans.o
SendSmartPort                                     C:\Users\PRESTO~1\AppData\Local\Temp\cc3x6Wri.ltrans22.ltrans.o
                                                  output\REVOLT\sPortTelemetry.o (symbol from plugin)
                                                  C:\Users\PRESTO~1\AppData\Local\Temp\cc3x6Wri.ltrans3.ltrans.o
                                                  output\REVOLT\telemetry.o (symbol from plugin)
SendSmartPortLua                                  output\REVOLT\sPortTelemetry.o (symbol from plugin)
                                                  output\REVOLT\telemetry.o (symbol from plugin)
SendSoftSerialBlocking                            output\REVOLT\newSoftSerial.o (symbol from plugin)
                                                  output\REVOLT\smartAudio.o (symbol from plugin)
SendSoftSerialBlocking.constprop.94               C:\Users\PRESTO~1\AppData\Local\Temp\cc3x6Wri.ltrans11.ltrans.o
                                                  C:\Users\PRESTO~1\AppData\Local\Temp\cc3x6Wri.ltrans14.ltrans.o
                                                  C:\Users\PRESTO~1\AppData\Local\Temp\cc3x6Wri.ltrans6.ltrans.o
SendSoftSerialByteBlocking                        C:\Users\PRESTO~1\AppData\Local\Temp\cc3x6Wri.ltrans9.ltrans.o
                                                  output\REVOLT\newSoftSerial.o (symbol from plugin)
                                                  C:\Users\PRESTO~1\AppData\Local\Temp\cc3x6Wri.ltrans11.ltrans.o
                                                  C:\Users\PRESTO~1\AppData\Local\Temp\cc3x6Wri.ltrans6.ltrans.o
SendStatusReport                                  output\REVOLT\config.o (symbol from plugin)
                                                  output\REVOLT\esc_1wire.o (symbol from plugin)
SerialTxCallback                                  output\REVOLT\serial.o (symbol from plugin)
SetActiveDmaToActuatorDma                         output\REVOLT\dmaShenanigans.o (symbol from plugin)
                                                  output\REVOLT\softSerial.o (symbol from plugin)
                                                  output\REVOLT\sPortTelemetry.o (symbol from plugin)
SetCalibrate1                                     output\REVOLT\flight.o (symbol from plugin)
                                                  output\REVOLT\wizard.o (symbol from plugin)
SetCalibrate2                                     output\REVOLT\flight.o (symbol from plugin)
                                                  output\REVOLT\wizard.o (symbol from plugin)
SetMode                                           output\REVOLT\modes.o (symbol from plugin)
                                                  output\REVOLT\wizard.o (symbol from plugin)
                                                  output\REVOLT\config.o (symbol from plugin)
SetMode.constprop.54                              C:\Users\PRESTO~1\AppData\Local\Temp\cc3x6Wri.ltrans13.ltrans.o
                                                  C:\Users\PRESTO~1\AppData\Local\Temp\cc3x6Wri.ltrans26.ltrans.o
                                                  C:\Users\PRESTO~1\AppData\Local\Temp\cc3x6Wri.ltrans1.ltrans.o
SetRxDefaults                                     C:\Users\PRESTO~1\AppData\Local\Temp\cc3x6Wri.ltrans21.ltrans.o
                                                  output\REVOLT\rx.o (symbol from plugin)
                                                  C:\Users\PRESTO~1\AppData\Local\Temp\cc3x6Wri.ltrans1.ltrans.o
                                                  output\REVOLT\wizard.o (symbol from plugin)
                                                  output\REVOLT\config.o (symbol from plugin)
SetupModes                                        output\REVOLT\modes.o (symbol from plugin)
                                                  output\REVOLT\config.o (symbol from plugin)
SetupWizard                                       output\REVOLT\wizard.o (symbol from plugin)
                                                  output\REVOLT\config.o (symbol from plugin)
SmCrc8                                            output\REVOLT\rf_math.o (symbol from plugin)
                                                  output\REVOLT\smartAudio.o (symbol from plugin)
SmartAudioGetSettings                             output\REVOLT\smartAudio.o (symbol from plugin)
SmartAudioGetSettings.part.1                      C:\Users\PRESTO~1\AppData\Local\Temp\cc3x6Wri.ltrans6.ltrans.o
                                                  C:\Users\PRESTO~1\AppData\Local\Temp\cc3x6Wri.ltrans14.ltrans.o
                                                  C:\Users\PRESTO~1\AppData\Local\Temp\cc3x6Wri.ltrans1.ltrans.o
SmartAudioVtxBandChannel                          output\REVOLT\smartAudio.o (symbol from plugin)
                                                  output\REVOLT\telemetry.o (symbol from plugin)
SmartAudioVtxPower                                output\REVOLT\smartAudio.o (symbol from plugin)
                                                  output\REVOLT\telemetry.o (symbol from plugin)
SmartAudioVtxTurnOn                               output\REVOLT\smartAudio.o (symbol from plugin)
                                                  output\REVOLT\telemetry.o (symbol from plugin)
SmartAudioVtxTurnOn.part.3                        C:\Users\PRESTO~1\AppData\Local\Temp\cc3x6Wri.ltrans6.ltrans.o
                                                  C:\Users\PRESTO~1\AppData\Local\Temp\cc3x6Wri.ltrans14.ltrans.o
SmartAudioVtxTurnPit                              output\REVOLT\smartAudio.o (symbol from plugin)
                                                  output\REVOLT\telemetry.o (symbol from plugin)
SmartAudioVtxTurnPit.part.4                       C:\Users\PRESTO~1\AppData\Local\Temp\cc3x6Wri.ltrans6.ltrans.o
                                                  C:\Users\PRESTO~1\AppData\Local\Temp\cc3x6Wri.ltrans1.ltrans.o
SmartPortCreatePacket.lto_priv.258                C:\Users\PRESTO~1\AppData\Local\Temp\cc3x6Wri.ltrans22.ltrans.o
                                                  C:\Users\PRESTO~1\AppData\Local\Temp\cc3x6Wri.ltrans3.ltrans.o
SoftPwmTimerCallback                              output\REVOLT\softPwm.o (symbol from plugin)
SoftPwmVoltage                                    output\REVOLT\softPwm.o (symbol from plugin)
                                                  output\REVOLT\config.o (symbol from plugin)
SoftSerialDmaCallback                             output\REVOLT\softSerial.o (symbol from plugin)
SoftSerialExtiCallback                            output\REVOLT\softSerial.o (symbol from plugin)
SoftSerialReceiveNonBlocking                      output\REVOLT\softSerial.o (symbol from plugin)
SoftSerialSendNonBlocking                         output\REVOLT\softSerial.o (symbol from plugin)
SoftSerialSendReceiveBlocking                     C:\Users\PRESTO~1\AppData\Local\Temp\cc3x6Wri.ltrans12.ltrans.o
                                                  output\REVOLT\softSerial.o (symbol from plugin)
                                                  C:\Users\PRESTO~1\AppData\Local\Temp\cc3x6Wri.ltrans20.ltrans.o
                                                  C:\Users\PRESTO~1\AppData\Local\Temp\cc3x6Wri.ltrans7.ltrans.o
                                                  output\REVOLT\esc_1wire.o (symbol from plugin)
SoftSerialSendReceiveBlocking.constprop.57        C:\Users\PRESTO~1\AppData\Local\Temp\cc3x6Wri.ltrans13.ltrans.o
                                                  C:\Users\PRESTO~1\AppData\Local\Temp\cc3x6Wri.ltrans20.ltrans.o
SoftSerialSendReceiveBlocking.constprop.58        C:\Users\PRESTO~1\AppData\Local\Temp\cc3x6Wri.ltrans13.ltrans.o
                                                  C:\Users\PRESTO~1\AppData\Local\Temp\cc3x6Wri.ltrans20.ltrans.o
SpektrumBind                                      output\REVOLT\rx.o (symbol from plugin)
                                                  output\REVOLT\main.o (symbol from plugin)
SpiInit.lto_priv.273                              C:\Users\PRESTO~1\AppData\Local\Temp\cc3x6Wri.ltrans17.ltrans.o
                                                  C:\Users\PRESTO~1\AppData\Local\Temp\cc3x6Wri.ltrans2.ltrans.o
SpinStopper                                       output\REVOLT\pid.o (symbol from plugin)
SpmLaptimerCallback                               output\REVOLT\spm_laptimer.o (symbol from plugin)
SportSoftSerialDmaCallback                        C:\Users\PRESTO~1\AppData\Local\Temp\cc3x6Wri.ltrans14.ltrans.o
                                                  output\REVOLT\sPortTelemetry.o (symbol from plugin)
                                                  C:\Users\PRESTO~1\AppData\Local\Temp\cc3x6Wri.ltrans3.ltrans.o
SportSoftSerialExtiCallback                       C:\Users\PRESTO~1\AppData\Local\Temp\cc3x6Wri.ltrans14.ltrans.o
                                                  output\REVOLT\sPortTelemetry.o (symbol from plugin)
                                                  C:\Users\PRESTO~1\AppData\Local\Temp\cc3x6Wri.ltrans3.ltrans.o
StartSystemClocks.lto_priv.266                    C:\Users\PRESTO~1\AppData\Local\Temp\cc3x6Wri.ltrans0.ltrans.o
                                                  C:\Users\PRESTO~1\AppData\Local\Temp\cc3x6Wri.ltrans3.ltrans.o
StopSoftPwm                                       output\REVOLT\softPwm.o (symbol from plugin)
                                                  output\REVOLT\config.o (symbol from plugin)
StripSpaces                                       C:\Users\PRESTO~1\AppData\Local\Temp\cc3x6Wri.ltrans0.ltrans.o
                                                  output\REVOLT\config.o (symbol from plugin)
                                                  C:\Users\PRESTO~1\AppData\Local\Temp\cc3x6Wri.ltrans7.ltrans.o
                                                  C:\Users\PRESTO~1\AppData\Local\Temp\cc3x6Wri.ltrans4.ltrans.o
                                                  C:\Users\PRESTO~1\AppData\Local\Temp\cc3x6Wri.ltrans1.ltrans.o
                                                  output\REVOLT\wizard.o (symbol from plugin)
                                                  output\REVOLT\modes.o (symbol from plugin)
SysTick_Handler                                   C:\Users\PRESTO~1\AppData\Local\Temp\cc3x6Wri.ltrans0.ltrans.o
                                                  output\REVOLT\startup_stm32f405xx.o
                                                  output\REVOLT\stm32f4xx_it.o (symbol from plugin)
SystemClock_Config                                output\REVOLT\stm32f4.o (symbol from plugin)
SystemCoreClock                                   C:\Users\PRESTO~1\AppData\Local\Temp\cc3x6Wri.ltrans28.ltrans.o
                                                  output\REVOLT\system_stm32f4xx.o (symbol from plugin)
                                                  C:\Users\PRESTO~1\AppData\Local\Temp\cc3x6Wri.ltrans27.ltrans.o
                                                  C:\Users\PRESTO~1\AppData\Local\Temp\cc3x6Wri.ltrans24.ltrans.o
                                                  C:\Users\PRESTO~1\AppData\Local\Temp\cc3x6Wri.ltrans16.ltrans.o
                                                  C:\Users\PRESTO~1\AppData\Local\Temp\cc3x6Wri.ltrans11.ltrans.o
                                                  C:\Users\PRESTO~1\AppData\Local\Temp\cc3x6Wri.ltrans8.ltrans.o
                                                  C:\Users\PRESTO~1\AppData\Local\Temp\cc3x6Wri.ltrans5.ltrans.o
                                                  C:\Users\PRESTO~1\AppData\Local\Temp\cc3x6Wri.ltrans3.ltrans.o
                                                  C:\Users\PRESTO~1\AppData\Local\Temp\cc3x6Wri.ltrans2.ltrans.o
                                                  C:\Users\PRESTO~1\AppData\Local\Temp\cc3x6Wri.ltrans1.ltrans.o
                                                  C:\Users\PRESTO~1\AppData\Local\Temp\cc3x6Wri.ltrans0.ltrans.o
                                                  output\REVOLT\spm_laptimer.o (symbol from plugin)
                                                  output\REVOLT\actuator_output.o (symbol from plugin)
                                                  output\REVOLT\dmaShenanigans.o (symbol from plugin)
                                                  output\REVOLT\transponder.o (symbol from plugin)
                                                  output\REVOLT\stm32f4xx_hal_spi.o (symbol from plugin)
                                                  output\REVOLT\stm32f4xx_hal_rtc_ex.o (symbol from plugin)
                                                  output\REVOLT\stm32f4xx_hal_rtc.o (symbol from plugin)
                                                  output\REVOLT\stm32f4xx_hal_rcc_ex.o (symbol from plugin)
                                                  output\REVOLT\stm32f4xx_hal_rcc.o (symbol from plugin)
                                                  output\REVOLT\stm32f4xx_hal_dma.o (symbol from plugin)
                                                  output\REVOLT\stm32f4xx_hal_adc_ex.o (symbol from plugin)
                                                  output\REVOLT\stm32f4xx_hal_adc.o (symbol from plugin)
                                                  output\REVOLT\stm32f4xx_hal.o (symbol from plugin)
                                                  output\REVOLT\scheduler.o (symbol from plugin)
                                                  output\REVOLT\newSoftSerial.o (symbol from plugin)
SystemCoreClockUpdate                             output\REVOLT\system_stm32f4xx.o (symbol from plugin)
SystemInit                                        C:\Users\PRESTO~1\AppData\Local\Temp\cc3x6Wri.ltrans0.ltrans.o
                                                  output\REVOLT\system_stm32f4xx.o (symbol from plugin)
                                                  output\REVOLT\startup_stm32f405xx.o
SystemReset                                       C:\Users\PRESTO~1\AppData\Local\Temp\cc3x6Wri.ltrans0.ltrans.o
                                                  output\REVOLT\general_functions.o (symbol from plugin)
                                                  C:\Users\PRESTO~1\AppData\Local\Temp\cc3x6Wri.ltrans6.ltrans.o
                                                  C:\Users\PRESTO~1\AppData\Local\Temp\cc3x6Wri.ltrans1.ltrans.o
                                                  output\REVOLT\spektrumTelemetry.o (symbol from plugin)
                                                  output\REVOLT\config.o (symbol from plugin)
SystemResetToDfuBootloader                        output\REVOLT\general_functions.o (symbol from plugin)
                                                  output\REVOLT\config.o (symbol from plugin)
TAMP_STAMP_IRQHandler                             output\REVOLT\startup_stm32f405xx.o
TIM1_BRK_TIM9_IRQHandler                          C:\Users\PRESTO~1\AppData\Local\Temp\cc3x6Wri.ltrans0.ltrans.o
                                                  output\REVOLT\startup_stm32f405xx.o
                                                  output\REVOLT\stm32f4xx_it.o (symbol from plugin)
TIM1_CC_IRQHandler                                C:\Users\PRESTO~1\AppData\Local\Temp\cc3x6Wri.ltrans0.ltrans.o
                                                  output\REVOLT\startup_stm32f405xx.o
                                                  output\REVOLT\stm32f4xx_it.o (symbol from plugin)
TIM1_TRG_COM_TIM11_IRQHandler                     output\REVOLT\startup_stm32f405xx.o
TIM1_UP_TIM10_IRQHandler                          C:\Users\PRESTO~1\AppData\Local\Temp\cc3x6Wri.ltrans0.ltrans.o
                                                  output\REVOLT\startup_stm32f405xx.o
                                                  output\REVOLT\stm32f4xx_it.o (symbol from plugin)
TIM2_IRQHandler                                   output\REVOLT\startup_stm32f405xx.o
TIM3_IRQHandler                                   output\REVOLT\startup_stm32f405xx.o
TIM4_IRQHandler                                   output\REVOLT\startup_stm32f405xx.o
TIM5_IRQHandler                                   C:\Users\PRESTO~1\AppData\Local\Temp\cc3x6Wri.ltrans0.ltrans.o
                                                  output\REVOLT\startup_stm32f405xx.o
                                                  output\REVOLT\stm32f4xx_it.o (symbol from plugin)
TIM6_DAC_IRQHandler                               C:\Users\PRESTO~1\AppData\Local\Temp\cc3x6Wri.ltrans0.ltrans.o
                                                  output\REVOLT\startup_stm32f405xx.o
                                                  output\REVOLT\stm32f4xx_it.o (symbol from plugin)
TIM7_IRQHandler                                   C:\Users\PRESTO~1\AppData\Local\Temp\cc3x6Wri.ltrans0.ltrans.o
                                                  output\REVOLT\startup_stm32f405xx.o
                                                  output\REVOLT\stm32f4xx_it.o (symbol from plugin)
TIM8_BRK_TIM12_IRQHandler                         output\REVOLT\startup_stm32f405xx.o
TIM8_CC_IRQHandler                                output\REVOLT\startup_stm32f405xx.o
TIM8_TRG_COM_TIM14_IRQHandler                     output\REVOLT\startup_stm32f405xx.o
TIM8_UP_TIM13_IRQHandler                          output\REVOLT\startup_stm32f405xx.o
TIMEx_DMACommutationCplt                          output\REVOLT\stm32f4xx_hal_tim_ex.o (symbol from plugin)
                                                  output\REVOLT\stm32f4xx_hal_tim.o (symbol from plugin)
TIM_Base_SetConfig                                C:\Users\PRESTO~1\AppData\Local\Temp\cc3x6Wri.ltrans8.ltrans.o
                                                  output\REVOLT\stm32f4xx_hal_tim.o (symbol from plugin)
                                                  C:\Users\PRESTO~1\AppData\Local\Temp\cc3x6Wri.ltrans24.ltrans.o
                                                  C:\Users\PRESTO~1\AppData\Local\Temp\cc3x6Wri.ltrans16.ltrans.o
                                                  output\REVOLT\stm32f4xx_hal_tim_ex.o (symbol from plugin)
TIM_CCxChannelCmd                                 output\REVOLT\stm32f4xx_hal_tim.o (symbol from plugin)
                                                  output\REVOLT\stm32f4xx_hal_tim_ex.o (symbol from plugin)
TIM_DMACaptureCplt                                output\REVOLT\stm32f4xx_hal_tim.o (symbol from plugin)
                                                  output\REVOLT\stm32f4xx_hal_tim_ex.o (symbol from plugin)
TIM_DMADelayPulseCplt                             output\REVOLT\stm32f4xx_hal_tim.o (symbol from plugin)
                                                  output\REVOLT\stm32f4xx_hal_tim_ex.o (symbol from plugin)
TIM_DMAError                                      output\REVOLT\stm32f4xx_hal_tim.o (symbol from plugin)
                                                  output\REVOLT\stm32f4xx_hal_tim_ex.o (symbol from plugin)
TIM_OC2_SetConfig                                 output\REVOLT\stm32f4xx_hal_tim.o (symbol from plugin)
                                                  output\REVOLT\stm32f4xx_hal_tim_ex.o (symbol from plugin)
TIM_TI1_SetConfig                                 output\REVOLT\stm32f4xx_hal_tim.o (symbol from plugin)
                                                  output\REVOLT\stm32f4xx_hal_tim_ex.o (symbol from plugin)
ThrottleToDshot                                   output\REVOLT\dshotTwoWay.o (symbol from plugin)
                                                  output\REVOLT\actuator_output.o (symbol from plugin)
                                                  output\REVOLT\scheduler.o (symbol from plugin)
                                                  output\REVOLT\config.o (symbol from plugin)
ThrottleToDshot.constprop.144                     C:\Users\PRESTO~1\AppData\Local\Temp\cc3x6Wri.ltrans27.ltrans.o
                                                  C:\Users\PRESTO~1\AppData\Local\Temp\cc3x6Wri.ltrans29.ltrans.o
                                                  C:\Users\PRESTO~1\AppData\Local\Temp\cc3x6Wri.ltrans24.ltrans.o
                                                  C:\Users\PRESTO~1\AppData\Local\Temp\cc3x6Wri.ltrans3.ltrans.o
TimerPrescalerDivisor                             output\REVOLT\stm32f4.o (symbol from plugin)
                                                  output\REVOLT\spm_laptimer.o (symbol from plugin)
                                                  output\REVOLT\actuator_output.o (symbol from plugin)
                                                  output\REVOLT\dmaShenanigans.o (symbol from plugin)
                                                  output\REVOLT\transponder.o (symbol from plugin)
                                                  output\REVOLT\scheduler.o (symbol from plugin)
                                                  output\REVOLT\newSoftSerial.o (symbol from plugin)
TrampGetSettings                                  C:\Users\PRESTO~1\AppData\Local\Temp\cc3x6Wri.ltrans14.ltrans.o
                                                  output\REVOLT\trampTelemetry.o (symbol from plugin)
                                                  C:\Users\PRESTO~1\AppData\Local\Temp\cc3x6Wri.ltrans3.ltrans.o
                                                  C:\Users\PRESTO~1\AppData\Local\Temp\cc3x6Wri.ltrans1.ltrans.o
                                                  output\REVOLT\scheduler.o (symbol from plugin)
                                                  output\REVOLT\config.o (symbol from plugin)
TrampGetSettings.part.2                           C:\Users\PRESTO~1\AppData\Local\Temp\cc3x6Wri.ltrans10.ltrans.o
                                                  C:\Users\PRESTO~1\AppData\Local\Temp\cc3x6Wri.ltrans14.ltrans.o
TrampHandleResponse                               output\REVOLT\trampTelemetry.o (symbol from plugin)
TrampSendCommand.lto_priv.210                     C:\Users\PRESTO~1\AppData\Local\Temp\cc3x6Wri.ltrans10.ltrans.o
                                                  C:\Users\PRESTO~1\AppData\Local\Temp\cc3x6Wri.ltrans14.ltrans.o
                                                  C:\Users\PRESTO~1\AppData\Local\Temp\cc3x6Wri.ltrans1.ltrans.o
TrampSetBandChannel                               output\REVOLT\trampTelemetry.o (symbol from plugin)
                                                  output\REVOLT\telemetry.o (symbol from plugin)
TrampSetPit                                       output\REVOLT\trampTelemetry.o (symbol from plugin)
                                                  output\REVOLT\telemetry.o (symbol from plugin)
TrampSetPower                                     output\REVOLT\trampTelemetry.o (symbol from plugin)
                                                  output\REVOLT\telemetry.o (symbol from plugin)
TrimKi                                            output\REVOLT\learning.o (symbol from plugin)
                                                  output\REVOLT\flight.o (symbol from plugin)
TrimMotors                                        output\REVOLT\learning.o (symbol from plugin)
                                                  output\REVOLT\flight.o (symbol from plugin)
UART4_IRQHandler                                  output\REVOLT\startup_stm32f405xx.o
UART5_IRQHandler                                  output\REVOLT\startup_stm32f405xx.o
UART_DMAError.lto_priv.207                        C:\Users\PRESTO~1\AppData\Local\Temp\cc3x6Wri.ltrans8.ltrans.o
                                                  C:\Users\PRESTO~1\AppData\Local\Temp\cc3x6Wri.ltrans22.ltrans.o
                                                  C:\Users\PRESTO~1\AppData\Local\Temp\cc3x6Wri.ltrans21.ltrans.o
                                                  C:\Users\PRESTO~1\AppData\Local\Temp\cc3x6Wri.ltrans15.ltrans.o
                                                  C:\Users\PRESTO~1\AppData\Local\Temp\cc3x6Wri.ltrans6.ltrans.o
                                                  C:\Users\PRESTO~1\AppData\Local\Temp\cc3x6Wri.ltrans1.ltrans.o
UART_DMAReceiveCplt.lto_priv.214                  C:\Users\PRESTO~1\AppData\Local\Temp\cc3x6Wri.ltrans8.ltrans.o
                                                  C:\Users\PRESTO~1\AppData\Local\Temp\cc3x6Wri.ltrans21.ltrans.o
UART_DMARxHalfCplt.lto_priv.215                   C:\Users\PRESTO~1\AppData\Local\Temp\cc3x6Wri.ltrans8.ltrans.o
                                                  C:\Users\PRESTO~1\AppData\Local\Temp\cc3x6Wri.ltrans21.ltrans.o
UART_DMATransmitCplt.lto_priv.205                 C:\Users\PRESTO~1\AppData\Local\Temp\cc3x6Wri.ltrans8.ltrans.o
                                                  C:\Users\PRESTO~1\AppData\Local\Temp\cc3x6Wri.ltrans22.ltrans.o
                                                  C:\Users\PRESTO~1\AppData\Local\Temp\cc3x6Wri.ltrans15.ltrans.o
                                                  C:\Users\PRESTO~1\AppData\Local\Temp\cc3x6Wri.ltrans6.ltrans.o
                                                  C:\Users\PRESTO~1\AppData\Local\Temp\cc3x6Wri.ltrans1.ltrans.o
UART_DMATxHalfCplt.lto_priv.206                   C:\Users\PRESTO~1\AppData\Local\Temp\cc3x6Wri.ltrans8.ltrans.o
                                                  C:\Users\PRESTO~1\AppData\Local\Temp\cc3x6Wri.ltrans22.ltrans.o
                                                  C:\Users\PRESTO~1\AppData\Local\Temp\cc3x6Wri.ltrans15.ltrans.o
                                                  C:\Users\PRESTO~1\AppData\Local\Temp\cc3x6Wri.ltrans6.ltrans.o
                                                  C:\Users\PRESTO~1\AppData\Local\Temp\cc3x6Wri.ltrans1.ltrans.o
UART_SetConfig.lto_priv.216                       C:\Users\PRESTO~1\AppData\Local\Temp\cc3x6Wri.ltrans8.ltrans.o
                                                  C:\Users\PRESTO~1\AppData\Local\Temp\cc3x6Wri.ltrans21.ltrans.o
USART1_IRQHandler                                 output\REVOLT\startup_stm32f405xx.o
USART2_IRQHandler                                 output\REVOLT\startup_stm32f405xx.o
USART3_IRQHandler                                 output\REVOLT\startup_stm32f405xx.o
USART6_IRQHandler                                 output\REVOLT\startup_stm32f405xx.o
USBD_ClrClassConfig                               output\REVOLT\usbd_core.o (symbol from plugin)
                                                  output\REVOLT\usbd_ctlreq.o (symbol from plugin)
USBD_CtlContinueRx                                output\REVOLT\usbd_ioreq.o (symbol from plugin)
                                                  output\REVOLT\usbd_core.o (symbol from plugin)
USBD_CtlContinueSendData                          output\REVOLT\usbd_ioreq.o (symbol from plugin)
                                                  output\REVOLT\usbd_core.o (symbol from plugin)
USBD_CtlError                                     output\REVOLT\usbd_ctlreq.o (symbol from plugin)
                                                  output\REVOLT\usbd_hid.o (symbol from plugin)
USBD_CtlPrepareRx                                 output\REVOLT\usbd_ioreq.o (symbol from plugin)
USBD_CtlReceiveStatus                             output\REVOLT\usbd_ioreq.o (symbol from plugin)
                                                  output\REVOLT\usbd_core.o (symbol from plugin)
USBD_CtlSendData                                  output\REVOLT\usbd_ioreq.o (symbol from plugin)
                                                  output\REVOLT\usbd_hid.o (symbol from plugin)
                                                  output\REVOLT\usbd_ctlreq.o (symbol from plugin)
USBD_CtlSendStatus                                C:\Users\PRESTO~1\AppData\Local\Temp\cc3x6Wri.ltrans10.ltrans.o
                                                  output\REVOLT\usbd_ioreq.o (symbol from plugin)
                                                  C:\Users\PRESTO~1\AppData\Local\Temp\cc3x6Wri.ltrans0.ltrans.o
                                                  output\REVOLT\usbd_ctlreq.o (symbol from plugin)
                                                  output\REVOLT\usbd_core.o (symbol from plugin)
USBD_DeInit                                       output\REVOLT\usbd_core.o (symbol from plugin)
                                                  output\REVOLT\usb_device.o (symbol from plugin)
USBD_FS_ConfigStrDescriptor                       C:\Users\PRESTO~1\AppData\Local\Temp\cc3x6Wri.ltrans12.ltrans.o
                                                  output\REVOLT\usbd_desc.o (symbol from plugin)
                                                  C:\Users\PRESTO~1\AppData\Local\Temp\cc3x6Wri.ltrans3.ltrans.o
USBD_FS_DeviceDesc                                output\REVOLT\usbd_desc.o (symbol from plugin)
USBD_FS_DeviceDescriptor                          C:\Users\PRESTO~1\AppData\Local\Temp\cc3x6Wri.ltrans12.ltrans.o
                                                  output\REVOLT\usbd_desc.o (symbol from plugin)
                                                  C:\Users\PRESTO~1\AppData\Local\Temp\cc3x6Wri.ltrans3.ltrans.o
USBD_FS_InterfaceStrDescriptor                    C:\Users\PRESTO~1\AppData\Local\Temp\cc3x6Wri.ltrans12.ltrans.o
                                                  output\REVOLT\usbd_desc.o (symbol from plugin)
                                                  C:\Users\PRESTO~1\AppData\Local\Temp\cc3x6Wri.ltrans3.ltrans.o
USBD_FS_LangIDStrDescriptor                       C:\Users\PRESTO~1\AppData\Local\Temp\cc3x6Wri.ltrans12.ltrans.o
                                                  output\REVOLT\usbd_desc.o (symbol from plugin)
                                                  C:\Users\PRESTO~1\AppData\Local\Temp\cc3x6Wri.ltrans3.ltrans.o
USBD_FS_ManufacturerStrDescriptor                 C:\Users\PRESTO~1\AppData\Local\Temp\cc3x6Wri.ltrans12.ltrans.o
                                                  output\REVOLT\usbd_desc.o (symbol from plugin)
                                                  C:\Users\PRESTO~1\AppData\Local\Temp\cc3x6Wri.ltrans3.ltrans.o
USBD_FS_ProductStrDescriptor                      C:\Users\PRESTO~1\AppData\Local\Temp\cc3x6Wri.ltrans12.ltrans.o
                                                  output\REVOLT\usbd_desc.o (symbol from plugin)
                                                  C:\Users\PRESTO~1\AppData\Local\Temp\cc3x6Wri.ltrans3.ltrans.o
USBD_FS_SerialStrDescriptor                       C:\Users\PRESTO~1\AppData\Local\Temp\cc3x6Wri.ltrans12.ltrans.o
                                                  output\REVOLT\usbd_desc.o (symbol from plugin)
                                                  C:\Users\PRESTO~1\AppData\Local\Temp\cc3x6Wri.ltrans3.ltrans.o
USBD_GetRxCount                                   output\REVOLT\usbd_ioreq.o (symbol from plugin)
USBD_GetString                                    output\REVOLT\usbd_ctlreq.o (symbol from plugin)
                                                  output\REVOLT\usbd_desc.o (symbol from plugin)
USBD_HID                                          output\REVOLT\usbd_hid.o (symbol from plugin)
                                                  output\REVOLT\usb_device.o (symbol from plugin)
USBD_HID_DataIn.lto_priv.254                      C:\Users\PRESTO~1\AppData\Local\Temp\cc3x6Wri.ltrans12.ltrans.o
                                                  C:\Users\PRESTO~1\AppData\Local\Temp\cc3x6Wri.ltrans3.ltrans.o
USBD_HID_DataOut.lto_priv.255                     C:\Users\PRESTO~1\AppData\Local\Temp\cc3x6Wri.ltrans12.ltrans.o
                                                  C:\Users\PRESTO~1\AppData\Local\Temp\cc3x6Wri.ltrans3.ltrans.o
USBD_HID_DeInit.lto_priv.252                      C:\Users\PRESTO~1\AppData\Local\Temp\cc3x6Wri.ltrans10.ltrans.o
                                                  C:\Users\PRESTO~1\AppData\Local\Temp\cc3x6Wri.ltrans3.ltrans.o
USBD_HID_GetCfgDesc.lto_priv.256                  C:\Users\PRESTO~1\AppData\Local\Temp\cc3x6Wri.ltrans12.ltrans.o
                                                  C:\Users\PRESTO~1\AppData\Local\Temp\cc3x6Wri.ltrans3.ltrans.o
USBD_HID_GetDeviceQualifierDesc.lto_priv.257      C:\Users\PRESTO~1\AppData\Local\Temp\cc3x6Wri.ltrans12.ltrans.o
                                                  C:\Users\PRESTO~1\AppData\Local\Temp\cc3x6Wri.ltrans3.ltrans.o
USBD_HID_GetPollingInterval                       output\REVOLT\usbd_hid.o (symbol from plugin)
USBD_HID_Init.lto_priv.251                        C:\Users\PRESTO~1\AppData\Local\Temp\cc3x6Wri.ltrans10.ltrans.o
                                                  C:\Users\PRESTO~1\AppData\Local\Temp\cc3x6Wri.ltrans3.ltrans.o
USBD_HID_SendReport                               output\REVOLT\usbd_hid.o (symbol from plugin)
                                                  output\REVOLT\config.o (symbol from plugin)
USBD_HID_Setup.lto_priv.253                       C:\Users\PRESTO~1\AppData\Local\Temp\cc3x6Wri.ltrans10.ltrans.o
                                                  C:\Users\PRESTO~1\AppData\Local\Temp\cc3x6Wri.ltrans3.ltrans.o
USBD_Init                                         output\REVOLT\usbd_core.o (symbol from plugin)
                                                  output\REVOLT\usb_device.o (symbol from plugin)
USBD_LL_ClearStallEP                              output\REVOLT\usbd_conf.o (symbol from plugin)
                                                  output\REVOLT\usbd_ctlreq.o (symbol from plugin)
USBD_LL_CloseEP                                   output\REVOLT\usbd_conf.o (symbol from plugin)
                                                  output\REVOLT\usbd_hid.o (symbol from plugin)
USBD_LL_DataInStage                               output\REVOLT\usbd_core.o (symbol from plugin)
                                                  output\REVOLT\usbd_conf.o (symbol from plugin)
USBD_LL_DataOutStage                              output\REVOLT\usbd_core.o (symbol from plugin)
                                                  output\REVOLT\usbd_conf.o (symbol from plugin)
USBD_LL_DeInit                                    output\REVOLT\usbd_conf.o (symbol from plugin)
                                                  output\REVOLT\usbd_core.o (symbol from plugin)
USBD_LL_Delay                                     output\REVOLT\usbd_conf.o (symbol from plugin)
USBD_LL_DevConnected                              output\REVOLT\usbd_core.o (symbol from plugin)
                                                  output\REVOLT\usbd_conf.o (symbol from plugin)
USBD_LL_DevDisconnected                           output\REVOLT\usbd_core.o (symbol from plugin)
                                                  output\REVOLT\usbd_conf.o (symbol from plugin)
USBD_LL_FlushEP                                   output\REVOLT\usbd_conf.o (symbol from plugin)
USBD_LL_GetRxDataSize                             output\REVOLT\usbd_conf.o (symbol from plugin)
                                                  output\REVOLT\usbd_ioreq.o (symbol from plugin)
USBD_LL_Init                                      output\REVOLT\usbd_conf.o (symbol from plugin)
                                                  output\REVOLT\usbd_core.o (symbol from plugin)
USBD_LL_Init.part.1                               C:\Users\PRESTO~1\AppData\Local\Temp\cc3x6Wri.ltrans12.ltrans.o
                                                  C:\Users\PRESTO~1\AppData\Local\Temp\cc3x6Wri.ltrans3.ltrans.o
USBD_LL_IsStallEP                                 output\REVOLT\usbd_conf.o (symbol from plugin)
                                                  output\REVOLT\usbd_ctlreq.o (symbol from plugin)
USBD_LL_IsoINIncomplete                           output\REVOLT\usbd_core.o (symbol from plugin)
                                                  output\REVOLT\usbd_conf.o (symbol from plugin)
USBD_LL_IsoOUTIncomplete                          output\REVOLT\usbd_core.o (symbol from plugin)
                                                  output\REVOLT\usbd_conf.o (symbol from plugin)
USBD_LL_OpenEP                                    output\REVOLT\usbd_conf.o (symbol from plugin)
                                                  output\REVOLT\usbd_hid.o (symbol from plugin)
                                                  output\REVOLT\usbd_core.o (symbol from plugin)
USBD_LL_PrepareReceive                            output\REVOLT\usbd_conf.o (symbol from plugin)
                                                  output\REVOLT\usbd_hid.o (symbol from plugin)
                                                  output\REVOLT\usbd_ioreq.o (symbol from plugin)
                                                  output\REVOLT\usbd_core.o (symbol from plugin)
USBD_LL_Reset                                     output\REVOLT\usbd_core.o (symbol from plugin)
                                                  output\REVOLT\usbd_conf.o (symbol from plugin)
USBD_LL_Resume                                    output\REVOLT\usbd_core.o (symbol from plugin)
                                                  output\REVOLT\usbd_conf.o (symbol from plugin)
USBD_LL_SOF                                       output\REVOLT\usbd_core.o (symbol from plugin)
                                                  output\REVOLT\usbd_conf.o (symbol from plugin)
USBD_LL_SetSpeed                                  output\REVOLT\usbd_core.o (symbol from plugin)
                                                  output\REVOLT\usbd_conf.o (symbol from plugin)
USBD_LL_SetUSBAddress                             output\REVOLT\usbd_conf.o (symbol from plugin)
                                                  output\REVOLT\usbd_ctlreq.o (symbol from plugin)
USBD_LL_SetupStage                                output\REVOLT\usbd_core.o (symbol from plugin)
                                                  output\REVOLT\usbd_conf.o (symbol from plugin)
USBD_LL_StallEP                                   output\REVOLT\usbd_conf.o (symbol from plugin)
                                                  output\REVOLT\usbd_ctlreq.o (symbol from plugin)
                                                  output\REVOLT\usbd_core.o (symbol from plugin)
USBD_LL_StallEP.constprop.119                     C:\Users\PRESTO~1\AppData\Local\Temp\cc3x6Wri.ltrans11.ltrans.o
                                                  C:\Users\PRESTO~1\AppData\Local\Temp\cc3x6Wri.ltrans0.ltrans.o
USBD_LL_StallEP.constprop.120                     C:\Users\PRESTO~1\AppData\Local\Temp\cc3x6Wri.ltrans11.ltrans.o
                                                  C:\Users\PRESTO~1\AppData\Local\Temp\cc3x6Wri.ltrans0.ltrans.o
USBD_LL_Start                                     output\REVOLT\usbd_conf.o (symbol from plugin)
                                                  output\REVOLT\usbd_core.o (symbol from plugin)
USBD_LL_Stop                                      output\REVOLT\usbd_conf.o (symbol from plugin)
                                                  output\REVOLT\usbd_core.o (symbol from plugin)
USBD_LL_Suspend                                   output\REVOLT\usbd_core.o (symbol from plugin)
                                                  output\REVOLT\usbd_conf.o (symbol from plugin)
USBD_LL_Transmit                                  output\REVOLT\usbd_conf.o (symbol from plugin)
                                                  output\REVOLT\usbd_hid.o (symbol from plugin)
                                                  output\REVOLT\usbd_ioreq.o (symbol from plugin)
USBD_LangIDDesc                                   output\REVOLT\usbd_desc.o (symbol from plugin)
USBD_ParseSetupRequest                            output\REVOLT\usbd_ctlreq.o (symbol from plugin)
                                                  output\REVOLT\usbd_core.o (symbol from plugin)
USBD_RegisterClass                                output\REVOLT\usbd_core.o (symbol from plugin)
                                                  output\REVOLT\usb_device.o (symbol from plugin)
USBD_RunTestMode                                  output\REVOLT\usbd_core.o (symbol from plugin)
USBD_SetClassConfig                               output\REVOLT\usbd_core.o (symbol from plugin)
                                                  output\REVOLT\usbd_ctlreq.o (symbol from plugin)
USBD_Start                                        output\REVOLT\usbd_core.o (symbol from plugin)
                                                  output\REVOLT\usb_device.o (symbol from plugin)
USBD_StdDevReq                                    output\REVOLT\usbd_ctlreq.o (symbol from plugin)
                                                  output\REVOLT\usbd_core.o (symbol from plugin)
USBD_StdEPReq                                     output\REVOLT\usbd_ctlreq.o (symbol from plugin)
                                                  output\REVOLT\usbd_core.o (symbol from plugin)
USBD_StdItfReq                                    output\REVOLT\usbd_ctlreq.o (symbol from plugin)
                                                  output\REVOLT\usbd_core.o (symbol from plugin)
USBD_Stop                                         output\REVOLT\usbd_core.o (symbol from plugin)
                                                  output\REVOLT\usb_device.o (symbol from plugin)
USBD_StrDesc                                      output\REVOLT\usbd_desc.o (symbol from plugin)
USBDeInit                                         C:\Users\PRESTO~1\AppData\Local\Temp\cc3x6Wri.ltrans0.ltrans.o
                                                  output\REVOLT\stm32f4.o (symbol from plugin)
                                                  C:\Users\PRESTO~1\AppData\Local\Temp\cc3x6Wri.ltrans1.ltrans.o
                                                  output\REVOLT\usbd_conf.o (symbol from plugin)
USBInit                                           C:\Users\PRESTO~1\AppData\Local\Temp\cc3x6Wri.ltrans0.ltrans.o
                                                  output\REVOLT\stm32f4.o (symbol from plugin)
                                                  C:\Users\PRESTO~1\AppData\Local\Temp\cc3x6Wri.ltrans28.ltrans.o
                                                  output\REVOLT\usbd_conf.o (symbol from plugin)
USB_ActivateDedicatedEndpoint                     output\REVOLT\stm32f4xx_ll_usb.o (symbol from plugin)
USB_ActivateEndpoint                              C:\Users\PRESTO~1\AppData\Local\Temp\cc3x6Wri.ltrans15.ltrans.o
                                                  output\REVOLT\stm32f4xx_ll_usb.o (symbol from plugin)
                                                  C:\Users\PRESTO~1\AppData\Local\Temp\cc3x6Wri.ltrans10.ltrans.o
                                                  C:\Users\PRESTO~1\AppData\Local\Temp\cc3x6Wri.ltrans0.ltrans.o
                                                  output\REVOLT\stm32f4xx_hal_pcd.o (symbol from plugin)
USB_ActivateSetup                                 output\REVOLT\stm32f4xx_ll_usb.o (symbol from plugin)
                                                  output\REVOLT\stm32f4xx_hal_pcd.o (symbol from plugin)
USB_ClearInterrupts                               output\REVOLT\stm32f4xx_ll_usb.o (symbol from plugin)
USB_CoreInit                                      output\REVOLT\stm32f4xx_ll_usb.o (symbol from plugin)
                                                  output\REVOLT\stm32f4xx_hal_pcd.o (symbol from plugin)
USB_CoreReset.lto_priv.196                        C:\Users\PRESTO~1\AppData\Local\Temp\cc3x6Wri.ltrans15.ltrans.o
                                                  C:\Users\PRESTO~1\AppData\Local\Temp\cc3x6Wri.ltrans28.ltrans.o
USB_DEVICE_DeInit                                 output\REVOLT\usb_device.o (symbol from plugin)
                                                  output\REVOLT\general_functions.o (symbol from plugin)
USB_DEVICE_Init                                   output\REVOLT\usb_device.o (symbol from plugin)
                                                  output\REVOLT\general_functions.o (symbol from plugin)
USB_DeactivateDedicatedEndpoint                   output\REVOLT\stm32f4xx_ll_usb.o (symbol from plugin)
USB_DeactivateEndpoint                            output\REVOLT\stm32f4xx_ll_usb.o (symbol from plugin)
                                                  output\REVOLT\stm32f4xx_hal_pcd.o (symbol from plugin)
USB_DevConnect                                    output\REVOLT\stm32f4xx_ll_usb.o (symbol from plugin)
                                                  output\REVOLT\stm32f4xx_hal_pcd.o (symbol from plugin)
USB_DevDisconnect                                 output\REVOLT\stm32f4xx_ll_usb.o (symbol from plugin)
                                                  output\REVOLT\stm32f4xx_hal_pcd.o (symbol from plugin)
USB_DevInit                                       output\REVOLT\stm32f4xx_ll_usb.o (symbol from plugin)
                                                  output\REVOLT\stm32f4xx_hal_pcd.o (symbol from plugin)
USB_DisableGlobalInt                              C:\Users\PRESTO~1\AppData\Local\Temp\cc3x6Wri.ltrans8.ltrans.o
                                                  output\REVOLT\stm32f4xx_ll_usb.o (symbol from plugin)
                                                  C:\Users\PRESTO~1\AppData\Local\Temp\cc3x6Wri.ltrans15.ltrans.o
                                                  output\REVOLT\stm32f4xx_hal_pcd.o (symbol from plugin)
USB_DoPing                                        output\REVOLT\stm32f4xx_ll_usb.o (symbol from plugin)
USB_DriveVbus                                     output\REVOLT\stm32f4xx_ll_usb.o (symbol from plugin)
USB_EP0StartXfer                                  C:\Users\PRESTO~1\AppData\Local\Temp\cc3x6Wri.ltrans15.ltrans.o
                                                  output\REVOLT\stm32f4xx_ll_usb.o (symbol from plugin)
                                                  C:\Users\PRESTO~1\AppData\Local\Temp\cc3x6Wri.ltrans10.ltrans.o
                                                  C:\Users\PRESTO~1\AppData\Local\Temp\cc3x6Wri.ltrans0.ltrans.o
                                                  output\REVOLT\stm32f4xx_hal_pcd.o (symbol from plugin)
USB_EP0_OutStart                                  output\REVOLT\stm32f4xx_ll_usb.o (symbol from plugin)
                                                  output\REVOLT\stm32f4xx_hal_pcd.o (symbol from plugin)
USB_EPClearStall                                  output\REVOLT\stm32f4xx_ll_usb.o (symbol from plugin)
                                                  output\REVOLT\stm32f4xx_hal_pcd.o (symbol from plugin)
USB_EPSetStall                                    output\REVOLT\stm32f4xx_ll_usb.o (symbol from plugin)
                                                  output\REVOLT\stm32f4xx_hal_pcd.o (symbol from plugin)
USB_EPStartXfer                                   C:\Users\PRESTO~1\AppData\Local\Temp\cc3x6Wri.ltrans15.ltrans.o
                                                  output\REVOLT\stm32f4xx_ll_usb.o (symbol from plugin)
                                                  C:\Users\PRESTO~1\AppData\Local\Temp\cc3x6Wri.ltrans12.ltrans.o
                                                  C:\Users\PRESTO~1\AppData\Local\Temp\cc3x6Wri.ltrans10.ltrans.o
                                                  C:\Users\PRESTO~1\AppData\Local\Temp\cc3x6Wri.ltrans0.ltrans.o
                                                  output\REVOLT\stm32f4xx_hal_pcd.o (symbol from plugin)
USB_EnableGlobalInt                               C:\Users\PRESTO~1\AppData\Local\Temp\cc3x6Wri.ltrans8.ltrans.o
                                                  output\REVOLT\stm32f4xx_ll_usb.o (symbol from plugin)
                                                  C:\Users\PRESTO~1\AppData\Local\Temp\cc3x6Wri.ltrans15.ltrans.o
                                                  output\REVOLT\stm32f4xx_hal_pcd.o (symbol from plugin)
USB_FlushRxFifo                                   C:\Users\PRESTO~1\AppData\Local\Temp\cc3x6Wri.ltrans8.ltrans.o
                                                  output\REVOLT\stm32f4xx_ll_usb.o (symbol from plugin)
                                                  C:\Users\PRESTO~1\AppData\Local\Temp\cc3x6Wri.ltrans15.ltrans.o
                                                  output\REVOLT\stm32f4xx_hal_pcd.o (symbol from plugin)
USB_FlushTxFifo                                   C:\Users\PRESTO~1\AppData\Local\Temp\cc3x6Wri.ltrans8.ltrans.o
                                                  output\REVOLT\stm32f4xx_ll_usb.o (symbol from plugin)
                                                  C:\Users\PRESTO~1\AppData\Local\Temp\cc3x6Wri.ltrans15.ltrans.o
                                                  output\REVOLT\stm32f4xx_hal_pcd.o (symbol from plugin)
USB_GetCurrentFrame                               output\REVOLT\stm32f4xx_ll_usb.o (symbol from plugin)
USB_GetDevSpeed                                   output\REVOLT\stm32f4xx_ll_usb.o (symbol from plugin)
                                                  output\REVOLT\stm32f4xx_hal_pcd.o (symbol from plugin)
USB_GetHostSpeed                                  output\REVOLT\stm32f4xx_ll_usb.o (symbol from plugin)
USB_GetMode                                       output\REVOLT\stm32f4xx_ll_usb.o (symbol from plugin)
                                                  output\REVOLT\stm32f4xx_hal_pcd.o (symbol from plugin)
USB_HC_Halt                                       output\REVOLT\stm32f4xx_ll_usb.o (symbol from plugin)
USB_HC_Init                                       output\REVOLT\stm32f4xx_ll_usb.o (symbol from plugin)
USB_HC_ReadInterrupt                              output\REVOLT\stm32f4xx_ll_usb.o (symbol from plugin)
USB_HC_StartXfer                                  output\REVOLT\stm32f4xx_ll_usb.o (symbol from plugin)
USB_HostInit                                      output\REVOLT\stm32f4xx_ll_usb.o (symbol from plugin)
USB_InitFSLSPClkSel                               output\REVOLT\stm32f4xx_ll_usb.o (symbol from plugin)
USB_ReadDevAllInEpInterrupt                       output\REVOLT\stm32f4xx_ll_usb.o (symbol from plugin)
                                                  output\REVOLT\stm32f4xx_hal_pcd.o (symbol from plugin)
USB_ReadDevAllOutEpInterrupt                      output\REVOLT\stm32f4xx_ll_usb.o (symbol from plugin)
                                                  output\REVOLT\stm32f4xx_hal_pcd.o (symbol from plugin)
USB_ReadDevInEPInterrupt                          output\REVOLT\stm32f4xx_ll_usb.o (symbol from plugin)
                                                  output\REVOLT\stm32f4xx_hal_pcd.o (symbol from plugin)
USB_ReadDevOutEPInterrupt                         output\REVOLT\stm32f4xx_ll_usb.o (symbol from plugin)
                                                  output\REVOLT\stm32f4xx_hal_pcd.o (symbol from plugin)
USB_ReadInterrupts                                output\REVOLT\stm32f4xx_ll_usb.o (symbol from plugin)
                                                  output\REVOLT\stm32f4xx_hal_pcd.o (symbol from plugin)
USB_ReadPacket                                    output\REVOLT\stm32f4xx_ll_usb.o (symbol from plugin)
                                                  output\REVOLT\stm32f4xx_hal_pcd.o (symbol from plugin)
USB_ResetPort                                     output\REVOLT\stm32f4xx_ll_usb.o (symbol from plugin)
USB_Rx_Buffer                                     C:\Users\PRESTO~1\AppData\Local\Temp\cc3x6Wri.ltrans12.ltrans.o
                                                  output\REVOLT\usbd_hid.o (symbol from plugin)
                                                  C:\Users\PRESTO~1\AppData\Local\Temp\cc3x6Wri.ltrans10.ltrans.o
USB_SetCurrentMode                                output\REVOLT\stm32f4xx_ll_usb.o (symbol from plugin)
                                                  output\REVOLT\stm32f4xx_hal_pcd.o (symbol from plugin)
USB_SetDevAddress                                 output\REVOLT\stm32f4xx_ll_usb.o (symbol from plugin)
                                                  output\REVOLT\stm32f4xx_hal_pcd.o (symbol from plugin)
USB_SetDevSpeed                                   output\REVOLT\stm32f4xx_ll_usb.o (symbol from plugin)
USB_StopDevice                                    output\REVOLT\stm32f4xx_ll_usb.o (symbol from plugin)
                                                  output\REVOLT\stm32f4xx_hal_pcd.o (symbol from plugin)
USB_StopHost                                      output\REVOLT\stm32f4xx_ll_usb.o (symbol from plugin)
USB_WritePacket                                   C:\Users\PRESTO~1\AppData\Local\Temp\cc3x6Wri.ltrans15.ltrans.o
                                                  output\REVOLT\stm32f4xx_ll_usb.o (symbol from plugin)
                                                  output\REVOLT\stm32f4xx_hal_pcd.o (symbol from plugin)
UpdateAttitudeFrameQuat                           output\REVOLT\imu.o (symbol from plugin)
UpdateBlackbox                                    output\REVOLT\flight_logger.o (symbol from plugin)
                                                  output\REVOLT\flight.o (symbol from plugin)
UpdateBuzzer                                      output\REVOLT\buzzer.o (symbol from plugin)
                                                  output\REVOLT\scheduler.o (symbol from plugin)
UpdateImu                                         C:\Users\PRESTO~1\AppData\Local\Temp\cc3x6Wri.ltrans19.ltrans.o
                                                  output\REVOLT\imu.o (symbol from plugin)
                                                  C:\Users\PRESTO~1\AppData\Local\Temp\cc3x6Wri.ltrans4.ltrans.o
                                                  output\REVOLT\flight.o (symbol from plugin)
UpdateLeds                                        output\REVOLT\leds.o (symbol from plugin)
                                                  output\REVOLT\scheduler.o (symbol from plugin)
UpdateWs2812Leds                                  output\REVOLT\leds.o (symbol from plugin)
                                                  output\REVOLT\scheduler.o (symbol from plugin)
UsageFault_Handler                                C:\Users\PRESTO~1\AppData\Local\Temp\cc3x6Wri.ltrans0.ltrans.o
                                                  output\REVOLT\startup_stm32f405xx.o
                                                  output\REVOLT\stm32f4xx_it.o (symbol from plugin)
UsartDeInit                                       C:\Users\PRESTO~1\AppData\Local\Temp\cc3x6Wri.ltrans21.ltrans.o
                                                  output\REVOLT\serial.o (symbol from plugin)
                                                  C:\Users\PRESTO~1\AppData\Local\Temp\cc3x6Wri.ltrans15.ltrans.o
                                                  C:\Users\PRESTO~1\AppData\Local\Temp\cc3x6Wri.ltrans14.ltrans.o
                                                  C:\Users\PRESTO~1\AppData\Local\Temp\cc3x6Wri.ltrans6.ltrans.o
                                                  C:\Users\PRESTO~1\AppData\Local\Temp\cc3x6Wri.ltrans2.ltrans.o
                                                  output\REVOLT\trampTelemetry.o (symbol from plugin)
                                                  output\REVOLT\sPortTelemetry.o (symbol from plugin)
                                                  output\REVOLT\rfVtx.o (symbol from plugin)
                                                  output\REVOLT\rfosdTelemetry.o (symbol from plugin)
                                                  output\REVOLT\mspTelemetry.o (symbol from plugin)
                                                  output\REVOLT\crossfire.o (symbol from plugin)
UsartDmaInit                                      output\REVOLT\serial.o (symbol from plugin)
UsartInit                                         C:\Users\PRESTO~1\AppData\Local\Temp\cc3x6Wri.ltrans21.ltrans.o
                                                  output\REVOLT\serial.o (symbol from plugin)
                                                  C:\Users\PRESTO~1\AppData\Local\Temp\cc3x6Wri.ltrans15.ltrans.o
                                                  C:\Users\PRESTO~1\AppData\Local\Temp\cc3x6Wri.ltrans14.ltrans.o
                                                  C:\Users\PRESTO~1\AppData\Local\Temp\cc3x6Wri.ltrans6.ltrans.o
                                                  C:\Users\PRESTO~1\AppData\Local\Temp\cc3x6Wri.ltrans2.ltrans.o
                                                  output\REVOLT\trampTelemetry.o (symbol from plugin)
                                                  output\REVOLT\sPortTelemetry.o (symbol from plugin)
                                                  output\REVOLT\rfVtx.o (symbol from plugin)
                                                  output\REVOLT\rfosdTelemetry.o (symbol from plugin)
                                                  output\REVOLT\mspTelemetry.o (symbol from plugin)
                                                  output\REVOLT\crossfire.o (symbol from plugin)
ValidateConfigSettings                            output\REVOLT\config.o (symbol from plugin)
VectorAddVector                                   output\REVOLT\imu.o (symbol from plugin)
VectorIrqInit                                     output\REVOLT\stm32f4.o (symbol from plugin)
                                                  output\REVOLT\main.o (symbol from plugin)
VtxBandAndChannelToBandChannel                    output\REVOLT\telemetry.o (symbol from plugin)
                                                  output\REVOLT\sPortTelemetry.o (symbol from plugin)
VtxBandChannel                                    C:\Users\PRESTO~1\AppData\Local\Temp\cc3x6Wri.ltrans14.ltrans.o
                                                  output\REVOLT\telemetry.o (symbol from plugin)
                                                  C:\Users\PRESTO~1\AppData\Local\Temp\cc3x6Wri.ltrans3.ltrans.o
                                                  C:\Users\PRESTO~1\AppData\Local\Temp\cc3x6Wri.ltrans1.ltrans.o
                                                  output\REVOLT\scheduler.o (symbol from plugin)
                                                  output\REVOLT\config.o (symbol from plugin)
VtxBandChannelToFrequency                         output\REVOLT\telemetry.o (symbol from plugin)
                                                  output\REVOLT\rx.o (symbol from plugin)
                                                  output\REVOLT\trampTelemetry.o (symbol from plugin)
                                                  output\REVOLT\sPortTelemetry.o (symbol from plugin)
                                                  output\REVOLT\smartAudio.o (symbol from plugin)
VtxChannelToBandAndChannel                        output\REVOLT\telemetry.o (symbol from plugin)
                                                  output\REVOLT\rx.o (symbol from plugin)
                                                  output\REVOLT\trampTelemetry.o (symbol from plugin)
                                                  output\REVOLT\smartAudio.o (symbol from plugin)
VtxFrequencyToBandChannel                         output\REVOLT\telemetry.o (symbol from plugin)
                                                  output\REVOLT\trampTelemetry.o (symbol from plugin)
VtxPower                                          C:\Users\PRESTO~1\AppData\Local\Temp\cc3x6Wri.ltrans14.ltrans.o
                                                  output\REVOLT\telemetry.o (symbol from plugin)
                                                  C:\Users\PRESTO~1\AppData\Local\Temp\cc3x6Wri.ltrans3.ltrans.o
                                                  C:\Users\PRESTO~1\AppData\Local\Temp\cc3x6Wri.ltrans1.ltrans.o
                                                  output\REVOLT\scheduler.o (symbol from plugin)
                                                  output\REVOLT\config.o (symbol from plugin)
VtxSpektrumBandAndChannelToVtxBandChannel         output\REVOLT\spektrumTelemetry.o (symbol from plugin)
                                                  output\REVOLT\rx.o (symbol from plugin)
VtxTurnOn                                         C:\Users\PRESTO~1\AppData\Local\Temp\cc3x6Wri.ltrans14.ltrans.o
                                                  output\REVOLT\telemetry.o (symbol from plugin)
                                                  C:\Users\PRESTO~1\AppData\Local\Temp\cc3x6Wri.ltrans3.ltrans.o
                                                  C:\Users\PRESTO~1\AppData\Local\Temp\cc3x6Wri.ltrans1.ltrans.o
                                                  output\REVOLT\scheduler.o (symbol from plugin)
                                                  output\REVOLT\config.o (symbol from plugin)
VtxTurnPit                                        output\REVOLT\telemetry.o (symbol from plugin)
                                                  output\REVOLT\config.o (symbol from plugin)
WWDG_IRQHandler                                   output\REVOLT\startup_stm32f405xx.o
WizRcCheckAndSetChannel                           output\REVOLT\wizard.o (symbol from plugin)
WizRxCheckProtocol                                output\REVOLT\wizard.o (symbol from plugin)
WizRxCheckRxDataLooksValid.lto_priv.212           C:\Users\PRESTO~1\AppData\Local\Temp\cc3x6Wri.ltrans26.ltrans.o
                                                  C:\Users\PRESTO~1\AppData\Local\Temp\cc3x6Wri.ltrans1.ltrans.o
WriteByteToFlash                                  C:\Users\PRESTO~1\AppData\Local\Temp\cc3x6Wri.ltrans30.ltrans.o
                                                  output\REVOLT\flight_logger.o (symbol from plugin)
                                                  C:\Users\PRESTO~1\AppData\Local\Temp\cc3x6Wri.ltrans19.ltrans.o
                                                  C:\Users\PRESTO~1\AppData\Local\Temp\cc3x6Wri.ltrans4.ltrans.o
WriteEEpromSiLabsBLHeli.lto_priv.240              C:\Users\PRESTO~1\AppData\Local\Temp\cc3x6Wri.ltrans20.ltrans.o
                                                  C:\Users\PRESTO~1\AppData\Local\Temp\cc3x6Wri.ltrans7.ltrans.o
WriteEnableDataFlash                              C:\Users\PRESTO~1\AppData\Local\Temp\cc3x6Wri.ltrans18.ltrans.o
                                                  output\REVOLT\flash_chip.o (symbol from plugin)
                                                  C:\Users\PRESTO~1\AppData\Local\Temp\cc3x6Wri.ltrans30.ltrans.o
                                                  C:\Users\PRESTO~1\AppData\Local\Temp\cc3x6Wri.ltrans13.ltrans.o
                                                  C:\Users\PRESTO~1\AppData\Local\Temp\cc3x6Wri.ltrans1.ltrans.o
WriteEnableDataFlashDma                           output\REVOLT\flash_chip.o (symbol from plugin)
WriteFlash                                        output\REVOLT\flash.o (symbol from plugin)
                                                  output\REVOLT\config.o (symbol from plugin)
WriteFlashSiLabsBLHeli.lto_priv.238               C:\Users\PRESTO~1\AppData\Local\Temp\cc3x6Wri.ltrans20.ltrans.o
                                                  C:\Users\PRESTO~1\AppData\Local\Temp\cc3x6Wri.ltrans7.ltrans.o
WriteRfblBkRegs                                   output\REVOLT\rfbl_functions.o (symbol from plugin)
ZeroActuators                                     C:\Users\PRESTO~1\AppData\Local\Temp\cc3x6Wri.ltrans24.ltrans.o
                                                  output\REVOLT\actuator_output.o (symbol from plugin)
                                                  C:\Users\PRESTO~1\AppData\Local\Temp\cc3x6Wri.ltrans26.ltrans.o
                                                  C:\Users\PRESTO~1\AppData\Local\Temp\cc3x6Wri.ltrans13.ltrans.o
                                                  C:\Users\PRESTO~1\AppData\Local\Temp\cc3x6Wri.ltrans4.ltrans.o
                                                  C:\Users\PRESTO~1\AppData\Local\Temp\cc3x6Wri.ltrans2.ltrans.o
                                                  C:\Users\PRESTO~1\AppData\Local\Temp\cc3x6Wri.ltrans1.ltrans.o
                                                  C:\Users\PRESTO~1\AppData\Local\Temp\cc3x6Wri.ltrans0.ltrans.o
                                                  output\REVOLT\rx.o (symbol from plugin)
                                                  output\REVOLT\wizard.o (symbol from plugin)
                                                  output\REVOLT\scheduler.o (symbol from plugin)
                                                  output\REVOLT\flight.o (symbol from plugin)
                                                  output\REVOLT\config.o (symbol from plugin)
ZigzagEncode                                      output\REVOLT\flight_logger.o (symbol from plugin)
_Balloc                                           c:/dev/gcc-arm-none-eabi/bin/../lib/gcc/arm-none-eabi/6.3.1/../../../../arm-none-eabi/lib/thumb/v7e-m/fpv4-sp/hard\libc_nano.a(lib_a-mprec.o)
                                                  c:/dev/gcc-arm-none-eabi/bin/../lib/gcc/arm-none-eabi/6.3.1/../../../../arm-none-eabi/lib/thumb/v7e-m/fpv4-sp/hard\libc_nano.a(lib_a-gdtoa-gethex.o)
                                                  c:/dev/gcc-arm-none-eabi/bin/../lib/gcc/arm-none-eabi/6.3.1/../../../../arm-none-eabi/lib/thumb/v7e-m/fpv4-sp/hard\libc_nano.a(lib_a-strtod.o)
_Bfree                                            c:/dev/gcc-arm-none-eabi/bin/../lib/gcc/arm-none-eabi/6.3.1/../../../../arm-none-eabi/lib/thumb/v7e-m/fpv4-sp/hard\libc_nano.a(lib_a-mprec.o)
                                                  c:/dev/gcc-arm-none-eabi/bin/../lib/gcc/arm-none-eabi/6.3.1/../../../../arm-none-eabi/lib/thumb/v7e-m/fpv4-sp/hard\libc_nano.a(lib_a-gdtoa-gethex.o)
                                                  c:/dev/gcc-arm-none-eabi/bin/../lib/gcc/arm-none-eabi/6.3.1/../../../../arm-none-eabi/lib/thumb/v7e-m/fpv4-sp/hard\libc_nano.a(lib_a-strtod.o)
_PathLocale                                       c:/dev/gcc-arm-none-eabi/bin/../lib/gcc/arm-none-eabi/6.3.1/../../../../arm-none-eabi/lib/thumb/v7e-m/fpv4-sp/hard\libc_nano.a(lib_a-locale.o)
__adddf3                                          c:/dev/gcc-arm-none-eabi/bin/../lib/gcc/arm-none-eabi/6.3.1/thumb/v7e-m/fpv4-sp/hard\libgcc.a(_arm_addsubdf3.o)
__aeabi_cdcmpeq                                   c:/dev/gcc-arm-none-eabi/bin/../lib/gcc/arm-none-eabi/6.3.1/thumb/v7e-m/fpv4-sp/hard\libgcc.a(_arm_cmpdf2.o)
__aeabi_cdcmple                                   c:/dev/gcc-arm-none-eabi/bin/../lib/gcc/arm-none-eabi/6.3.1/thumb/v7e-m/fpv4-sp/hard\libgcc.a(_arm_cmpdf2.o)
__aeabi_cdrcmple                                  c:/dev/gcc-arm-none-eabi/bin/../lib/gcc/arm-none-eabi/6.3.1/thumb/v7e-m/fpv4-sp/hard\libgcc.a(_arm_cmpdf2.o)
__aeabi_d2f                                       c:/dev/gcc-arm-none-eabi/bin/../lib/gcc/arm-none-eabi/6.3.1/thumb/v7e-m/fpv4-sp/hard\libgcc.a(_arm_truncdfsf2.o)
                                                  c:/dev/gcc-arm-none-eabi/bin/../lib/gcc/arm-none-eabi/6.3.1/../../../../arm-none-eabi/lib/thumb/v7e-m/fpv4-sp/hard\libm.a(lib_a-wf_sqrt.o)
                                                  C:\Users\PRESTO~1\AppData\Local\Temp\cc3x6Wri.ltrans13.ltrans.o
                                                  C:\Users\PRESTO~1\AppData\Local\Temp\cc3x6Wri.ltrans9.ltrans.o
                                                  C:\Users\PRESTO~1\AppData\Local\Temp\cc3x6Wri.ltrans4.ltrans.o
                                                  C:\Users\PRESTO~1\AppData\Local\Temp\cc3x6Wri.ltrans1.ltrans.o
                                                  c:/dev/gcc-arm-none-eabi/bin/../lib/gcc/arm-none-eabi/6.3.1/../../../../arm-none-eabi/lib/thumb/v7e-m/fpv4-sp/hard\libc_nano.a(lib_a-strtod.o)
__aeabi_d2iz                                      c:/dev/gcc-arm-none-eabi/bin/../lib/gcc/arm-none-eabi/6.3.1/thumb/v7e-m/fpv4-sp/hard\libgcc.a(_arm_fixdfsi.o)
                                                  c:/dev/gcc-arm-none-eabi/bin/../lib/gcc/arm-none-eabi/6.3.1/../../../../arm-none-eabi/lib/thumb/v7e-m/fpv4-sp/hard\libm.a(lib_a-s_lrint.o)
                                                  c:/dev/gcc-arm-none-eabi/bin/../lib/gcc/arm-none-eabi/6.3.1/../../../../arm-none-eabi/lib/thumb/v7e-m/fpv4-sp/hard\libc_nano.a(lib_a-strtod.o)
__aeabi_d2uiz                                     c:/dev/gcc-arm-none-eabi/bin/../lib/gcc/arm-none-eabi/6.3.1/thumb/v7e-m/fpv4-sp/hard\libgcc.a(_arm_fixunsdfsi.o)
                                                  C:\Users\PRESTO~1\AppData\Local\Temp\cc3x6Wri.ltrans13.ltrans.o
                                                  C:\Users\PRESTO~1\AppData\Local\Temp\cc3x6Wri.ltrans0.ltrans.o
                                                  c:/dev/gcc-arm-none-eabi/bin/../lib/gcc/arm-none-eabi/6.3.1/../../../../arm-none-eabi/lib/thumb/v7e-m/fpv4-sp/hard\libc_nano.a(lib_a-strtod.o)
__aeabi_dadd                                      c:/dev/gcc-arm-none-eabi/bin/../lib/gcc/arm-none-eabi/6.3.1/thumb/v7e-m/fpv4-sp/hard\libgcc.a(_arm_addsubdf3.o)
                                                  c:/dev/gcc-arm-none-eabi/bin/../lib/gcc/arm-none-eabi/6.3.1/../../../../arm-none-eabi/lib/thumb/v7e-m/fpv4-sp/hard\libm.a(lib_a-s_scalbn.o)
                                                  c:/dev/gcc-arm-none-eabi/bin/../lib/gcc/arm-none-eabi/6.3.1/../../../../arm-none-eabi/lib/thumb/v7e-m/fpv4-sp/hard\libm.a(lib_a-s_rint.o)
                                                  c:/dev/gcc-arm-none-eabi/bin/../lib/gcc/arm-none-eabi/6.3.1/../../../../arm-none-eabi/lib/thumb/v7e-m/fpv4-sp/hard\libm.a(lib_a-e_sqrt.o)
                                                  c:/dev/gcc-arm-none-eabi/bin/../lib/gcc/arm-none-eabi/6.3.1/../../../../arm-none-eabi/lib/thumb/v7e-m/fpv4-sp/hard\libm.a(lib_a-e_pow.o)
                                                  c:/dev/gcc-arm-none-eabi/bin/../lib/gcc/arm-none-eabi/6.3.1/../../../../arm-none-eabi/lib/thumb/v7e-m/fpv4-sp/hard\libm.a(lib_a-s_round.o)
                                                  c:/dev/gcc-arm-none-eabi/bin/../lib/gcc/arm-none-eabi/6.3.1/../../../../arm-none-eabi/lib/thumb/v7e-m/fpv4-sp/hard\libm.a(lib_a-s_lrint.o)
                                                  c:/dev/gcc-arm-none-eabi/bin/../lib/gcc/arm-none-eabi/6.3.1/../../../../arm-none-eabi/lib/thumb/v7e-m/fpv4-sp/hard\libm.a(lib_a-s_ceil.o)
                                                  c:/dev/gcc-arm-none-eabi/bin/../lib/gcc/arm-none-eabi/6.3.1/../../../../arm-none-eabi/lib/thumb/v7e-m/fpv4-sp/hard\libc_nano.a(lib_a-strtod.o)
__aeabi_dcmpeq                                    c:/dev/gcc-arm-none-eabi/bin/../lib/gcc/arm-none-eabi/6.3.1/thumb/v7e-m/fpv4-sp/hard\libgcc.a(_arm_cmpdf2.o)
                                                  c:/dev/gcc-arm-none-eabi/bin/../lib/gcc/arm-none-eabi/6.3.1/../../../../arm-none-eabi/lib/thumb/v7e-m/fpv4-sp/hard\libm.a(lib_a-w_pow.o)
                                                  c:/dev/gcc-arm-none-eabi/bin/../lib/gcc/arm-none-eabi/6.3.1/../../../../arm-none-eabi/lib/thumb/v7e-m/fpv4-sp/hard\libc_nano.a(lib_a-strtod.o)
__aeabi_dcmpge                                    c:/dev/gcc-arm-none-eabi/bin/../lib/gcc/arm-none-eabi/6.3.1/thumb/v7e-m/fpv4-sp/hard\libgcc.a(_arm_cmpdf2.o)
__aeabi_dcmpgt                                    c:/dev/gcc-arm-none-eabi/bin/../lib/gcc/arm-none-eabi/6.3.1/thumb/v7e-m/fpv4-sp/hard\libgcc.a(_arm_cmpdf2.o)
                                                  c:/dev/gcc-arm-none-eabi/bin/../lib/gcc/arm-none-eabi/6.3.1/../../../../arm-none-eabi/lib/thumb/v7e-m/fpv4-sp/hard\libm.a(lib_a-e_pow.o)
                                                  c:/dev/gcc-arm-none-eabi/bin/../lib/gcc/arm-none-eabi/6.3.1/../../../../arm-none-eabi/lib/thumb/v7e-m/fpv4-sp/hard\libm.a(lib_a-s_ceil.o)
                                                  C:\Users\PRESTO~1\AppData\Local\Temp\cc3x6Wri.ltrans0.ltrans.o
                                                  c:/dev/gcc-arm-none-eabi/bin/../lib/gcc/arm-none-eabi/6.3.1/../../../../arm-none-eabi/lib/thumb/v7e-m/fpv4-sp/hard\libc_nano.a(lib_a-strtod.o)
__aeabi_dcmple                                    c:/dev/gcc-arm-none-eabi/bin/../lib/gcc/arm-none-eabi/6.3.1/thumb/v7e-m/fpv4-sp/hard\libgcc.a(_arm_cmpdf2.o)
                                                  c:/dev/gcc-arm-none-eabi/bin/../lib/gcc/arm-none-eabi/6.3.1/../../../../arm-none-eabi/lib/thumb/v7e-m/fpv4-sp/hard\libm.a(lib_a-e_pow.o)
                                                  c:/dev/gcc-arm-none-eabi/bin/../lib/gcc/arm-none-eabi/6.3.1/../../../../arm-none-eabi/lib/thumb/v7e-m/fpv4-sp/hard\libc_nano.a(lib_a-strtod.o)
__aeabi_dcmplt                                    c:/dev/gcc-arm-none-eabi/bin/../lib/gcc/arm-none-eabi/6.3.1/thumb/v7e-m/fpv4-sp/hard\libgcc.a(_arm_cmpdf2.o)
                                                  c:/dev/gcc-arm-none-eabi/bin/../lib/gcc/arm-none-eabi/6.3.1/../../../../arm-none-eabi/lib/thumb/v7e-m/fpv4-sp/hard\libm.a(lib_a-w_pow.o)
                                                  c:/dev/gcc-arm-none-eabi/bin/../lib/gcc/arm-none-eabi/6.3.1/../../../../arm-none-eabi/lib/thumb/v7e-m/fpv4-sp/hard\libc_nano.a(lib_a-strtod.o)
__aeabi_dcmpun                                    c:/dev/gcc-arm-none-eabi/bin/../lib/gcc/arm-none-eabi/6.3.1/thumb/v7e-m/fpv4-sp/hard\libgcc.a(_arm_unorddf2.o)
                                                  c:/dev/gcc-arm-none-eabi/bin/../lib/gcc/arm-none-eabi/6.3.1/../../../../arm-none-eabi/lib/thumb/v7e-m/fpv4-sp/hard\libm.a(lib_a-w_pow.o)
                                                  c:/dev/gcc-arm-none-eabi/bin/../lib/gcc/arm-none-eabi/6.3.1/../../../../arm-none-eabi/lib/thumb/v7e-m/fpv4-sp/hard\libc_nano.a(lib_a-strtod.o)
__aeabi_ddiv                                      c:/dev/gcc-arm-none-eabi/bin/../lib/gcc/arm-none-eabi/6.3.1/thumb/v7e-m/fpv4-sp/hard\libgcc.a(_arm_muldivdf3.o)
                                                  c:/dev/gcc-arm-none-eabi/bin/../lib/gcc/arm-none-eabi/6.3.1/../../../../arm-none-eabi/lib/thumb/v7e-m/fpv4-sp/hard\libm.a(lib_a-e_sqrt.o)
                                                  c:/dev/gcc-arm-none-eabi/bin/../lib/gcc/arm-none-eabi/6.3.1/../../../../arm-none-eabi/lib/thumb/v7e-m/fpv4-sp/hard\libm.a(lib_a-e_pow.o)
                                                  c:/dev/gcc-arm-none-eabi/bin/../lib/gcc/arm-none-eabi/6.3.1/../../../../arm-none-eabi/lib/thumb/v7e-m/fpv4-sp/hard\libm.a(lib_a-wf_sqrt.o)
                                                  c:/dev/gcc-arm-none-eabi/bin/../lib/gcc/arm-none-eabi/6.3.1/../../../../arm-none-eabi/lib/thumb/v7e-m/fpv4-sp/hard\libm.a(lib_a-w_pow.o)
                                                  c:/dev/gcc-arm-none-eabi/bin/../lib/gcc/arm-none-eabi/6.3.1/../../../../arm-none-eabi/lib/thumb/v7e-m/fpv4-sp/hard\libc_nano.a(lib_a-mprec.o)
                                                  c:/dev/gcc-arm-none-eabi/bin/../lib/gcc/arm-none-eabi/6.3.1/../../../../arm-none-eabi/lib/thumb/v7e-m/fpv4-sp/hard\libc_nano.a(lib_a-strtod.o)
__aeabi_dmul                                      c:/dev/gcc-arm-none-eabi/bin/../lib/gcc/arm-none-eabi/6.3.1/thumb/v7e-m/fpv4-sp/hard\libgcc.a(_arm_muldivdf3.o)
                                                  c:/dev/gcc-arm-none-eabi/bin/../lib/gcc/arm-none-eabi/6.3.1/../../../../arm-none-eabi/lib/thumb/v7e-m/fpv4-sp/hard\libm.a(lib_a-s_scalbn.o)
                                                  c:/dev/gcc-arm-none-eabi/bin/../lib/gcc/arm-none-eabi/6.3.1/../../../../arm-none-eabi/lib/thumb/v7e-m/fpv4-sp/hard\libm.a(lib_a-e_sqrt.o)
                                                  c:/dev/gcc-arm-none-eabi/bin/../lib/gcc/arm-none-eabi/6.3.1/../../../../arm-none-eabi/lib/thumb/v7e-m/fpv4-sp/hard\libm.a(lib_a-e_pow.o)
                                                  c:/dev/gcc-arm-none-eabi/bin/../lib/gcc/arm-none-eabi/6.3.1/../../../../arm-none-eabi/lib/thumb/v7e-m/fpv4-sp/hard\libm.a(lib_a-w_pow.o)
                                                  C:\Users\PRESTO~1\AppData\Local\Temp\cc3x6Wri.ltrans4.ltrans.o
                                                  C:\Users\PRESTO~1\AppData\Local\Temp\cc3x6Wri.ltrans0.ltrans.o
                                                  c:/dev/gcc-arm-none-eabi/bin/../lib/gcc/arm-none-eabi/6.3.1/../../../../arm-none-eabi/lib/thumb/v7e-m/fpv4-sp/hard\libc_nano.a(lib_a-mprec.o)
                                                  c:/dev/gcc-arm-none-eabi/bin/../lib/gcc/arm-none-eabi/6.3.1/../../../../arm-none-eabi/lib/thumb/v7e-m/fpv4-sp/hard\libc_nano.a(lib_a-strtod.o)
__aeabi_drsub                                     c:/dev/gcc-arm-none-eabi/bin/../lib/gcc/arm-none-eabi/6.3.1/thumb/v7e-m/fpv4-sp/hard\libgcc.a(_arm_addsubdf3.o)
__aeabi_dsub                                      c:/dev/gcc-arm-none-eabi/bin/../lib/gcc/arm-none-eabi/6.3.1/thumb/v7e-m/fpv4-sp/hard\libgcc.a(_arm_addsubdf3.o)
                                                  c:/dev/gcc-arm-none-eabi/bin/../lib/gcc/arm-none-eabi/6.3.1/../../../../arm-none-eabi/lib/thumb/v7e-m/fpv4-sp/hard\libm.a(lib_a-s_rint.o)
                                                  c:/dev/gcc-arm-none-eabi/bin/../lib/gcc/arm-none-eabi/6.3.1/../../../../arm-none-eabi/lib/thumb/v7e-m/fpv4-sp/hard\libm.a(lib_a-e_sqrt.o)
                                                  c:/dev/gcc-arm-none-eabi/bin/../lib/gcc/arm-none-eabi/6.3.1/../../../../arm-none-eabi/lib/thumb/v7e-m/fpv4-sp/hard\libm.a(lib_a-e_pow.o)
                                                  c:/dev/gcc-arm-none-eabi/bin/../lib/gcc/arm-none-eabi/6.3.1/../../../../arm-none-eabi/lib/thumb/v7e-m/fpv4-sp/hard\libm.a(lib_a-s_lrint.o)
                                                  C:\Users\PRESTO~1\AppData\Local\Temp\cc3x6Wri.ltrans4.ltrans.o
                                                  c:/dev/gcc-arm-none-eabi/bin/../lib/gcc/arm-none-eabi/6.3.1/../../../../arm-none-eabi/lib/thumb/v7e-m/fpv4-sp/hard\libc_nano.a(lib_a-strtod.o)
__aeabi_f2d                                       c:/dev/gcc-arm-none-eabi/bin/../lib/gcc/arm-none-eabi/6.3.1/thumb/v7e-m/fpv4-sp/hard\libgcc.a(_arm_addsubdf3.o)
                                                  c:/dev/gcc-arm-none-eabi/bin/../lib/gcc/arm-none-eabi/6.3.1/../../../../arm-none-eabi/lib/thumb/v7e-m/fpv4-sp/hard\libm.a(lib_a-wf_sqrt.o)
                                                  C:\Users\PRESTO~1\AppData\Local\Temp\cc3x6Wri.ltrans22.ltrans.o
                                                  C:\Users\PRESTO~1\AppData\Local\Temp\cc3x6Wri.ltrans13.ltrans.o
                                                  C:\Users\PRESTO~1\AppData\Local\Temp\cc3x6Wri.ltrans9.ltrans.o
                                                  C:\Users\PRESTO~1\AppData\Local\Temp\cc3x6Wri.ltrans4.ltrans.o
                                                  C:\Users\PRESTO~1\AppData\Local\Temp\cc3x6Wri.ltrans0.ltrans.o
__aeabi_i2d                                       c:/dev/gcc-arm-none-eabi/bin/../lib/gcc/arm-none-eabi/6.3.1/thumb/v7e-m/fpv4-sp/hard\libgcc.a(_arm_addsubdf3.o)
                                                  c:/dev/gcc-arm-none-eabi/bin/../lib/gcc/arm-none-eabi/6.3.1/../../../../arm-none-eabi/lib/thumb/v7e-m/fpv4-sp/hard\libm.a(lib_a-e_pow.o)
                                                  c:/dev/gcc-arm-none-eabi/bin/../lib/gcc/arm-none-eabi/6.3.1/../../../../arm-none-eabi/lib/thumb/v7e-m/fpv4-sp/hard\libc_nano.a(lib_a-strtod.o)
__aeabi_l2d                                       c:/dev/gcc-arm-none-eabi/bin/../lib/gcc/arm-none-eabi/6.3.1/thumb/v7e-m/fpv4-sp/hard\libgcc.a(_arm_addsubdf3.o)
__aeabi_ui2d                                      c:/dev/gcc-arm-none-eabi/bin/../lib/gcc/arm-none-eabi/6.3.1/thumb/v7e-m/fpv4-sp/hard\libgcc.a(_arm_addsubdf3.o)
                                                  C:\Users\PRESTO~1\AppData\Local\Temp\cc3x6Wri.ltrans0.ltrans.o
                                                  c:/dev/gcc-arm-none-eabi/bin/../lib/gcc/arm-none-eabi/6.3.1/../../../../arm-none-eabi/lib/thumb/v7e-m/fpv4-sp/hard\libc_nano.a(lib_a-strtod.o)
__aeabi_ul2d                                      c:/dev/gcc-arm-none-eabi/bin/../lib/gcc/arm-none-eabi/6.3.1/thumb/v7e-m/fpv4-sp/hard\libgcc.a(_arm_addsubdf3.o)
__any_on                                          c:/dev/gcc-arm-none-eabi/bin/../lib/gcc/arm-none-eabi/6.3.1/../../../../arm-none-eabi/lib/thumb/v7e-m/fpv4-sp/hard\libc_nano.a(lib_a-mprec.o)
                                                  c:/dev/gcc-arm-none-eabi/bin/../lib/gcc/arm-none-eabi/6.3.1/../../../../arm-none-eabi/lib/thumb/v7e-m/fpv4-sp/hard\libc_nano.a(lib_a-gdtoa-gethex.o)
__ascii_mbtowc                                    c:/dev/gcc-arm-none-eabi/bin/../lib/gcc/arm-none-eabi/6.3.1/../../../../arm-none-eabi/lib/thumb/v7e-m/fpv4-sp/hard\libc_nano.a(lib_a-mbtowc_r.o)
                                                  c:/dev/gcc-arm-none-eabi/bin/../lib/gcc/arm-none-eabi/6.3.1/../../../../arm-none-eabi/lib/thumb/v7e-m/fpv4-sp/hard\libc_nano.a(lib_a-locale.o)
__ascii_wctomb                                    c:/dev/gcc-arm-none-eabi/bin/../lib/gcc/arm-none-eabi/6.3.1/../../../../arm-none-eabi/lib/thumb/v7e-m/fpv4-sp/hard\libc_nano.a(lib_a-wctomb_r.o)
                                                  c:/dev/gcc-arm-none-eabi/bin/../lib/gcc/arm-none-eabi/6.3.1/../../../../arm-none-eabi/lib/thumb/v7e-m/fpv4-sp/hard\libc_nano.a(lib_a-locale.o)
__b2d                                             c:/dev/gcc-arm-none-eabi/bin/../lib/gcc/arm-none-eabi/6.3.1/../../../../arm-none-eabi/lib/thumb/v7e-m/fpv4-sp/hard\libc_nano.a(lib_a-mprec.o)
__cmpdf2                                          c:/dev/gcc-arm-none-eabi/bin/../lib/gcc/arm-none-eabi/6.3.1/thumb/v7e-m/fpv4-sp/hard\libgcc.a(_arm_cmpdf2.o)
__copybits                                        c:/dev/gcc-arm-none-eabi/bin/../lib/gcc/arm-none-eabi/6.3.1/../../../../arm-none-eabi/lib/thumb/v7e-m/fpv4-sp/hard\libc_nano.a(lib_a-mprec.o)
                                                  c:/dev/gcc-arm-none-eabi/bin/../lib/gcc/arm-none-eabi/6.3.1/../../../../arm-none-eabi/lib/thumb/v7e-m/fpv4-sp/hard\libc_nano.a(lib_a-strtod.o)
__d2b                                             c:/dev/gcc-arm-none-eabi/bin/../lib/gcc/arm-none-eabi/6.3.1/../../../../arm-none-eabi/lib/thumb/v7e-m/fpv4-sp/hard\libc_nano.a(lib_a-mprec.o)
                                                  c:/dev/gcc-arm-none-eabi/bin/../lib/gcc/arm-none-eabi/6.3.1/../../../../arm-none-eabi/lib/thumb/v7e-m/fpv4-sp/hard\libc_nano.a(lib_a-strtod.o)
__divdf3                                          c:/dev/gcc-arm-none-eabi/bin/../lib/gcc/arm-none-eabi/6.3.1/thumb/v7e-m/fpv4-sp/hard\libgcc.a(_arm_muldivdf3.o)
__eqdf2                                           c:/dev/gcc-arm-none-eabi/bin/../lib/gcc/arm-none-eabi/6.3.1/thumb/v7e-m/fpv4-sp/hard\libgcc.a(_arm_cmpdf2.o)
__errno                                           c:/dev/gcc-arm-none-eabi/bin/../lib/gcc/arm-none-eabi/6.3.1/../../../../arm-none-eabi/lib/thumb/v7e-m/fpv4-sp/hard\libc_nano.a(lib_a-errno.o)
                                                  c:/dev/gcc-arm-none-eabi/bin/../lib/gcc/arm-none-eabi/6.3.1/../../../../arm-none-eabi/lib/thumb/v7e-m/fpv4-sp/hard\libm.a(lib_a-wf_sqrt.o)
                                                  c:/dev/gcc-arm-none-eabi/bin/../lib/gcc/arm-none-eabi/6.3.1/../../../../arm-none-eabi/lib/thumb/v7e-m/fpv4-sp/hard\libm.a(lib_a-w_pow.o)
__extendsfdf2                                     c:/dev/gcc-arm-none-eabi/bin/../lib/gcc/arm-none-eabi/6.3.1/thumb/v7e-m/fpv4-sp/hard\libgcc.a(_arm_addsubdf3.o)
__fdlib_version                                   c:/dev/gcc-arm-none-eabi/bin/../lib/gcc/arm-none-eabi/6.3.1/../../../../arm-none-eabi/lib/thumb/v7e-m/fpv4-sp/hard\libm.a(lib_a-s_lib_ver.o)
                                                  c:/dev/gcc-arm-none-eabi/bin/../lib/gcc/arm-none-eabi/6.3.1/../../../../arm-none-eabi/lib/thumb/v7e-m/fpv4-sp/hard\libm.a(lib_a-wf_sqrt.o)
                                                  c:/dev/gcc-arm-none-eabi/bin/../lib/gcc/arm-none-eabi/6.3.1/../../../../arm-none-eabi/lib/thumb/v7e-m/fpv4-sp/hard\libm.a(lib_a-w_pow.o)
__fixdfsi                                         c:/dev/gcc-arm-none-eabi/bin/../lib/gcc/arm-none-eabi/6.3.1/thumb/v7e-m/fpv4-sp/hard\libgcc.a(_arm_fixdfsi.o)
__fixunsdfsi                                      c:/dev/gcc-arm-none-eabi/bin/../lib/gcc/arm-none-eabi/6.3.1/thumb/v7e-m/fpv4-sp/hard\libgcc.a(_arm_fixunsdfsi.o)
__floatdidf                                       c:/dev/gcc-arm-none-eabi/bin/../lib/gcc/arm-none-eabi/6.3.1/thumb/v7e-m/fpv4-sp/hard\libgcc.a(_arm_addsubdf3.o)
__floatsidf                                       c:/dev/gcc-arm-none-eabi/bin/../lib/gcc/arm-none-eabi/6.3.1/thumb/v7e-m/fpv4-sp/hard\libgcc.a(_arm_addsubdf3.o)
__floatundidf                                     c:/dev/gcc-arm-none-eabi/bin/../lib/gcc/arm-none-eabi/6.3.1/thumb/v7e-m/fpv4-sp/hard\libgcc.a(_arm_addsubdf3.o)
__floatunsidf                                     c:/dev/gcc-arm-none-eabi/bin/../lib/gcc/arm-none-eabi/6.3.1/thumb/v7e-m/fpv4-sp/hard\libgcc.a(_arm_addsubdf3.o)
__gedf2                                           c:/dev/gcc-arm-none-eabi/bin/../lib/gcc/arm-none-eabi/6.3.1/thumb/v7e-m/fpv4-sp/hard\libgcc.a(_arm_cmpdf2.o)
__gethex                                          c:/dev/gcc-arm-none-eabi/bin/../lib/gcc/arm-none-eabi/6.3.1/../../../../arm-none-eabi/lib/thumb/v7e-m/fpv4-sp/hard\libc_nano.a(lib_a-gdtoa-gethex.o)
                                                  c:/dev/gcc-arm-none-eabi/bin/../lib/gcc/arm-none-eabi/6.3.1/../../../../arm-none-eabi/lib/thumb/v7e-m/fpv4-sp/hard\libc_nano.a(lib_a-strtod.o)
__global_locale                                   c:/dev/gcc-arm-none-eabi/bin/../lib/gcc/arm-none-eabi/6.3.1/../../../../arm-none-eabi/lib/thumb/v7e-m/fpv4-sp/hard\libc_nano.a(lib_a-locale.o)
                                                  c:/dev/gcc-arm-none-eabi/bin/../lib/gcc/arm-none-eabi/6.3.1/../../../../arm-none-eabi/lib/thumb/v7e-m/fpv4-sp/hard\libc_nano.a(lib_a-localeconv.o)
                                                  c:/dev/gcc-arm-none-eabi/bin/../lib/gcc/arm-none-eabi/6.3.1/../../../../arm-none-eabi/lib/thumb/v7e-m/fpv4-sp/hard\libc_nano.a(lib_a-wctomb_r.o)
                                                  c:/dev/gcc-arm-none-eabi/bin/../lib/gcc/arm-none-eabi/6.3.1/../../../../arm-none-eabi/lib/thumb/v7e-m/fpv4-sp/hard\libc_nano.a(lib_a-strtol.o)
                                                  c:/dev/gcc-arm-none-eabi/bin/../lib/gcc/arm-none-eabi/6.3.1/../../../../arm-none-eabi/lib/thumb/v7e-m/fpv4-sp/hard\libc_nano.a(lib_a-strtod.o)
                                                  c:/dev/gcc-arm-none-eabi/bin/../lib/gcc/arm-none-eabi/6.3.1/../../../../arm-none-eabi/lib/thumb/v7e-m/fpv4-sp/hard\libc_nano.a(lib_a-mbtowc_r.o)
__gtdf2                                           c:/dev/gcc-arm-none-eabi/bin/../lib/gcc/arm-none-eabi/6.3.1/thumb/v7e-m/fpv4-sp/hard\libgcc.a(_arm_cmpdf2.o)
__hexdig_fun                                      c:/dev/gcc-arm-none-eabi/bin/../lib/gcc/arm-none-eabi/6.3.1/../../../../arm-none-eabi/lib/thumb/v7e-m/fpv4-sp/hard\libc_nano.a(lib_a-gdtoa-gethex.o)
                                                  c:/dev/gcc-arm-none-eabi/bin/../lib/gcc/arm-none-eabi/6.3.1/../../../../arm-none-eabi/lib/thumb/v7e-m/fpv4-sp/hard\libc_nano.a(lib_a-gdtoa-hexnan.o)
__hexnan                                          c:/dev/gcc-arm-none-eabi/bin/../lib/gcc/arm-none-eabi/6.3.1/../../../../arm-none-eabi/lib/thumb/v7e-m/fpv4-sp/hard\libc_nano.a(lib_a-gdtoa-hexnan.o)
                                                  c:/dev/gcc-arm-none-eabi/bin/../lib/gcc/arm-none-eabi/6.3.1/../../../../arm-none-eabi/lib/thumb/v7e-m/fpv4-sp/hard\libc_nano.a(lib_a-strtod.o)
__hi0bits                                         c:/dev/gcc-arm-none-eabi/bin/../lib/gcc/arm-none-eabi/6.3.1/../../../../arm-none-eabi/lib/thumb/v7e-m/fpv4-sp/hard\libc_nano.a(lib_a-mprec.o)
                                                  c:/dev/gcc-arm-none-eabi/bin/../lib/gcc/arm-none-eabi/6.3.1/../../../../arm-none-eabi/lib/thumb/v7e-m/fpv4-sp/hard\libc_nano.a(lib_a-gdtoa-gethex.o)
__i2b                                             c:/dev/gcc-arm-none-eabi/bin/../lib/gcc/arm-none-eabi/6.3.1/../../../../arm-none-eabi/lib/thumb/v7e-m/fpv4-sp/hard\libc_nano.a(lib_a-mprec.o)
                                                  c:/dev/gcc-arm-none-eabi/bin/../lib/gcc/arm-none-eabi/6.3.1/../../../../arm-none-eabi/lib/thumb/v7e-m/fpv4-sp/hard\libc_nano.a(lib_a-strtod.o)
__ieee754_pow                                     c:/dev/gcc-arm-none-eabi/bin/../lib/gcc/arm-none-eabi/6.3.1/../../../../arm-none-eabi/lib/thumb/v7e-m/fpv4-sp/hard\libm.a(lib_a-e_pow.o)
                                                  c:/dev/gcc-arm-none-eabi/bin/../lib/gcc/arm-none-eabi/6.3.1/../../../../arm-none-eabi/lib/thumb/v7e-m/fpv4-sp/hard\libm.a(lib_a-w_pow.o)
__ieee754_rem_pio2f                               c:/dev/gcc-arm-none-eabi/bin/../lib/gcc/arm-none-eabi/6.3.1/../../../../arm-none-eabi/lib/thumb/v7e-m/fpv4-sp/hard\libm.a(lib_a-ef_rem_pio2.o)
                                                  c:/dev/gcc-arm-none-eabi/bin/../lib/gcc/arm-none-eabi/6.3.1/../../../../arm-none-eabi/lib/thumb/v7e-m/fpv4-sp/hard\libm.a(lib_a-sf_sin.o)
                                                  c:/dev/gcc-arm-none-eabi/bin/../lib/gcc/arm-none-eabi/6.3.1/../../../../arm-none-eabi/lib/thumb/v7e-m/fpv4-sp/hard\libm.a(lib_a-sf_cos.o)
__ieee754_sqrt                                    c:/dev/gcc-arm-none-eabi/bin/../lib/gcc/arm-none-eabi/6.3.1/../../../../arm-none-eabi/lib/thumb/v7e-m/fpv4-sp/hard\libm.a(lib_a-e_sqrt.o)
                                                  c:/dev/gcc-arm-none-eabi/bin/../lib/gcc/arm-none-eabi/6.3.1/../../../../arm-none-eabi/lib/thumb/v7e-m/fpv4-sp/hard\libm.a(lib_a-e_pow.o)
__ieee754_sqrtf                                   c:/dev/gcc-arm-none-eabi/bin/../lib/gcc/arm-none-eabi/6.3.1/../../../../arm-none-eabi/lib/thumb/v7e-m/fpv4-sp/hard\libm.a(lib_a-ef_sqrt.o)
                                                  c:/dev/gcc-arm-none-eabi/bin/../lib/gcc/arm-none-eabi/6.3.1/../../../../arm-none-eabi/lib/thumb/v7e-m/fpv4-sp/hard\libm.a(lib_a-wf_sqrt.o)
__itoa                                            c:/dev/gcc-arm-none-eabi/bin/../lib/gcc/arm-none-eabi/6.3.1/../../../../arm-none-eabi/lib/thumb/v7e-m/fpv4-sp/hard\libc_nano.a(lib_a-itoa.o)
__kernel_cosf                                     c:/dev/gcc-arm-none-eabi/bin/../lib/gcc/arm-none-eabi/6.3.1/../../../../arm-none-eabi/lib/thumb/v7e-m/fpv4-sp/hard\libm.a(lib_a-kf_cos.o)
                                                  c:/dev/gcc-arm-none-eabi/bin/../lib/gcc/arm-none-eabi/6.3.1/../../../../arm-none-eabi/lib/thumb/v7e-m/fpv4-sp/hard\libm.a(lib_a-sf_sin.o)
                                                  c:/dev/gcc-arm-none-eabi/bin/../lib/gcc/arm-none-eabi/6.3.1/../../../../arm-none-eabi/lib/thumb/v7e-m/fpv4-sp/hard\libm.a(lib_a-sf_cos.o)
__kernel_rem_pio2f                                c:/dev/gcc-arm-none-eabi/bin/../lib/gcc/arm-none-eabi/6.3.1/../../../../arm-none-eabi/lib/thumb/v7e-m/fpv4-sp/hard\libm.a(lib_a-kf_rem_pio2.o)
                                                  c:/dev/gcc-arm-none-eabi/bin/../lib/gcc/arm-none-eabi/6.3.1/../../../../arm-none-eabi/lib/thumb/v7e-m/fpv4-sp/hard\libm.a(lib_a-ef_rem_pio2.o)
__kernel_sinf                                     c:/dev/gcc-arm-none-eabi/bin/../lib/gcc/arm-none-eabi/6.3.1/../../../../arm-none-eabi/lib/thumb/v7e-m/fpv4-sp/hard\libm.a(lib_a-kf_sin.o)
                                                  c:/dev/gcc-arm-none-eabi/bin/../lib/gcc/arm-none-eabi/6.3.1/../../../../arm-none-eabi/lib/thumb/v7e-m/fpv4-sp/hard\libm.a(lib_a-sf_sin.o)
                                                  c:/dev/gcc-arm-none-eabi/bin/../lib/gcc/arm-none-eabi/6.3.1/../../../../arm-none-eabi/lib/thumb/v7e-m/fpv4-sp/hard\libm.a(lib_a-sf_cos.o)
__ledf2                                           c:/dev/gcc-arm-none-eabi/bin/../lib/gcc/arm-none-eabi/6.3.1/thumb/v7e-m/fpv4-sp/hard\libgcc.a(_arm_cmpdf2.o)
__lo0bits                                         c:/dev/gcc-arm-none-eabi/bin/../lib/gcc/arm-none-eabi/6.3.1/../../../../arm-none-eabi/lib/thumb/v7e-m/fpv4-sp/hard\libc_nano.a(lib_a-mprec.o)
__locale_ctype_ptr                                c:/dev/gcc-arm-none-eabi/bin/../lib/gcc/arm-none-eabi/6.3.1/../../../../arm-none-eabi/lib/thumb/v7e-m/fpv4-sp/hard\libc_nano.a(lib_a-locale.o)
                                                  c:/dev/gcc-arm-none-eabi/bin/../lib/gcc/arm-none-eabi/6.3.1/../../../../arm-none-eabi/lib/thumb/v7e-m/fpv4-sp/hard\libc_nano.a(lib_a-strncasecmp.o)
                                                  C:\Users\PRESTO~1\AppData\Local\Temp\cc3x6Wri.ltrans7.ltrans.o
                                                  C:\Users\PRESTO~1\AppData\Local\Temp\cc3x6Wri.ltrans1.ltrans.o
                                                  output\REVOLT\wizard.o (symbol from plugin)
                                                  output\REVOLT\config.o (symbol from plugin)
__locale_ctype_ptr_l                              c:/dev/gcc-arm-none-eabi/bin/../lib/gcc/arm-none-eabi/6.3.1/../../../../arm-none-eabi/lib/thumb/v7e-m/fpv4-sp/hard\libc_nano.a(lib_a-locale.o)
                                                  c:/dev/gcc-arm-none-eabi/bin/../lib/gcc/arm-none-eabi/6.3.1/../../../../arm-none-eabi/lib/thumb/v7e-m/fpv4-sp/hard\libc_nano.a(lib_a-strtol.o)
__locale_mb_cur_max                               c:/dev/gcc-arm-none-eabi/bin/../lib/gcc/arm-none-eabi/6.3.1/../../../../arm-none-eabi/lib/thumb/v7e-m/fpv4-sp/hard\libc_nano.a(lib_a-locale.o)
__localeconv_l                                    c:/dev/gcc-arm-none-eabi/bin/../lib/gcc/arm-none-eabi/6.3.1/../../../../arm-none-eabi/lib/thumb/v7e-m/fpv4-sp/hard\libc_nano.a(lib_a-localeconv.o)
                                                  c:/dev/gcc-arm-none-eabi/bin/../lib/gcc/arm-none-eabi/6.3.1/../../../../arm-none-eabi/lib/thumb/v7e-m/fpv4-sp/hard\libc_nano.a(lib_a-gdtoa-gethex.o)
                                                  c:/dev/gcc-arm-none-eabi/bin/../lib/gcc/arm-none-eabi/6.3.1/../../../../arm-none-eabi/lib/thumb/v7e-m/fpv4-sp/hard\libc_nano.a(lib_a-strtod.o)
__lshift                                          c:/dev/gcc-arm-none-eabi/bin/../lib/gcc/arm-none-eabi/6.3.1/../../../../arm-none-eabi/lib/thumb/v7e-m/fpv4-sp/hard\libc_nano.a(lib_a-mprec.o)
                                                  c:/dev/gcc-arm-none-eabi/bin/../lib/gcc/arm-none-eabi/6.3.1/../../../../arm-none-eabi/lib/thumb/v7e-m/fpv4-sp/hard\libc_nano.a(lib_a-gdtoa-gethex.o)
                                                  c:/dev/gcc-arm-none-eabi/bin/../lib/gcc/arm-none-eabi/6.3.1/../../../../arm-none-eabi/lib/thumb/v7e-m/fpv4-sp/hard\libc_nano.a(lib_a-strtod.o)
__ltdf2                                           c:/dev/gcc-arm-none-eabi/bin/../lib/gcc/arm-none-eabi/6.3.1/thumb/v7e-m/fpv4-sp/hard\libgcc.a(_arm_cmpdf2.o)
__malloc_free_list                                c:/dev/gcc-arm-none-eabi/bin/../lib/gcc/arm-none-eabi/6.3.1/../../../../arm-none-eabi/lib/thumb/v7e-m/fpv4-sp/hard\libc_nano.a(lib_a-nano-mallocr.o)
                                                  c:/dev/gcc-arm-none-eabi/bin/../lib/gcc/arm-none-eabi/6.3.1/../../../../arm-none-eabi/lib/thumb/v7e-m/fpv4-sp/hard\libc_nano.a(lib_a-nano-freer.o)
__malloc_lock                                     c:/dev/gcc-arm-none-eabi/bin/../lib/gcc/arm-none-eabi/6.3.1/../../../../arm-none-eabi/lib/thumb/v7e-m/fpv4-sp/hard\libc_nano.a(lib_a-mlock.o)
                                                  c:/dev/gcc-arm-none-eabi/bin/../lib/gcc/arm-none-eabi/6.3.1/../../../../arm-none-eabi/lib/thumb/v7e-m/fpv4-sp/hard\libc_nano.a(lib_a-nano-mallocr.o)
                                                  c:/dev/gcc-arm-none-eabi/bin/../lib/gcc/arm-none-eabi/6.3.1/../../../../arm-none-eabi/lib/thumb/v7e-m/fpv4-sp/hard\libc_nano.a(lib_a-nano-freer.o)
__malloc_sbrk_start                               c:/dev/gcc-arm-none-eabi/bin/../lib/gcc/arm-none-eabi/6.3.1/../../../../arm-none-eabi/lib/thumb/v7e-m/fpv4-sp/hard\libc_nano.a(lib_a-nano-mallocr.o)
__malloc_unlock                                   c:/dev/gcc-arm-none-eabi/bin/../lib/gcc/arm-none-eabi/6.3.1/../../../../arm-none-eabi/lib/thumb/v7e-m/fpv4-sp/hard\libc_nano.a(lib_a-mlock.o)
                                                  c:/dev/gcc-arm-none-eabi/bin/../lib/gcc/arm-none-eabi/6.3.1/../../../../arm-none-eabi/lib/thumb/v7e-m/fpv4-sp/hard\libc_nano.a(lib_a-nano-mallocr.o)
                                                  c:/dev/gcc-arm-none-eabi/bin/../lib/gcc/arm-none-eabi/6.3.1/../../../../arm-none-eabi/lib/thumb/v7e-m/fpv4-sp/hard\libc_nano.a(lib_a-nano-freer.o)
__match                                           c:/dev/gcc-arm-none-eabi/bin/../lib/gcc/arm-none-eabi/6.3.1/../../../../arm-none-eabi/lib/thumb/v7e-m/fpv4-sp/hard\libc_nano.a(lib_a-gdtoa-hexnan.o)
                                                  c:/dev/gcc-arm-none-eabi/bin/../lib/gcc/arm-none-eabi/6.3.1/../../../../arm-none-eabi/lib/thumb/v7e-m/fpv4-sp/hard\libc_nano.a(lib_a-strtod.o)
__mcmp                                            c:/dev/gcc-arm-none-eabi/bin/../lib/gcc/arm-none-eabi/6.3.1/../../../../arm-none-eabi/lib/thumb/v7e-m/fpv4-sp/hard\libc_nano.a(lib_a-mprec.o)
                                                  c:/dev/gcc-arm-none-eabi/bin/../lib/gcc/arm-none-eabi/6.3.1/../../../../arm-none-eabi/lib/thumb/v7e-m/fpv4-sp/hard\libc_nano.a(lib_a-strtod.o)
__mdiff                                           c:/dev/gcc-arm-none-eabi/bin/../lib/gcc/arm-none-eabi/6.3.1/../../../../arm-none-eabi/lib/thumb/v7e-m/fpv4-sp/hard\libc_nano.a(lib_a-mprec.o)
                                                  c:/dev/gcc-arm-none-eabi/bin/../lib/gcc/arm-none-eabi/6.3.1/../../../../arm-none-eabi/lib/thumb/v7e-m/fpv4-sp/hard\libc_nano.a(lib_a-strtod.o)
__mprec_bigtens                                   c:/dev/gcc-arm-none-eabi/bin/../lib/gcc/arm-none-eabi/6.3.1/../../../../arm-none-eabi/lib/thumb/v7e-m/fpv4-sp/hard\libc_nano.a(lib_a-mprec.o)
                                                  c:/dev/gcc-arm-none-eabi/bin/../lib/gcc/arm-none-eabi/6.3.1/../../../../arm-none-eabi/lib/thumb/v7e-m/fpv4-sp/hard\libc_nano.a(lib_a-strtod.o)
__mprec_tens                                      c:/dev/gcc-arm-none-eabi/bin/../lib/gcc/arm-none-eabi/6.3.1/../../../../arm-none-eabi/lib/thumb/v7e-m/fpv4-sp/hard\libc_nano.a(lib_a-mprec.o)
                                                  c:/dev/gcc-arm-none-eabi/bin/../lib/gcc/arm-none-eabi/6.3.1/../../../../arm-none-eabi/lib/thumb/v7e-m/fpv4-sp/hard\libc_nano.a(lib_a-strtod.o)
__mprec_tinytens                                  c:/dev/gcc-arm-none-eabi/bin/../lib/gcc/arm-none-eabi/6.3.1/../../../../arm-none-eabi/lib/thumb/v7e-m/fpv4-sp/hard\libc_nano.a(lib_a-mprec.o)
__muldf3                                          c:/dev/gcc-arm-none-eabi/bin/../lib/gcc/arm-none-eabi/6.3.1/thumb/v7e-m/fpv4-sp/hard\libgcc.a(_arm_muldivdf3.o)
__multadd                                         c:/dev/gcc-arm-none-eabi/bin/../lib/gcc/arm-none-eabi/6.3.1/../../../../arm-none-eabi/lib/thumb/v7e-m/fpv4-sp/hard\libc_nano.a(lib_a-mprec.o)
__multiply                                        c:/dev/gcc-arm-none-eabi/bin/../lib/gcc/arm-none-eabi/6.3.1/../../../../arm-none-eabi/lib/thumb/v7e-m/fpv4-sp/hard\libc_nano.a(lib_a-mprec.o)
                                                  c:/dev/gcc-arm-none-eabi/bin/../lib/gcc/arm-none-eabi/6.3.1/../../../../arm-none-eabi/lib/thumb/v7e-m/fpv4-sp/hard\libc_nano.a(lib_a-strtod.o)
__nedf2                                           c:/dev/gcc-arm-none-eabi/bin/../lib/gcc/arm-none-eabi/6.3.1/thumb/v7e-m/fpv4-sp/hard\libgcc.a(_arm_cmpdf2.o)
__pow5mult                                        c:/dev/gcc-arm-none-eabi/bin/../lib/gcc/arm-none-eabi/6.3.1/../../../../arm-none-eabi/lib/thumb/v7e-m/fpv4-sp/hard\libc_nano.a(lib_a-mprec.o)
                                                  c:/dev/gcc-arm-none-eabi/bin/../lib/gcc/arm-none-eabi/6.3.1/../../../../arm-none-eabi/lib/thumb/v7e-m/fpv4-sp/hard\libc_nano.a(lib_a-strtod.o)
__ratio                                           c:/dev/gcc-arm-none-eabi/bin/../lib/gcc/arm-none-eabi/6.3.1/../../../../arm-none-eabi/lib/thumb/v7e-m/fpv4-sp/hard\libc_nano.a(lib_a-mprec.o)
                                                  c:/dev/gcc-arm-none-eabi/bin/../lib/gcc/arm-none-eabi/6.3.1/../../../../arm-none-eabi/lib/thumb/v7e-m/fpv4-sp/hard\libc_nano.a(lib_a-strtod.o)
__s2b                                             c:/dev/gcc-arm-none-eabi/bin/../lib/gcc/arm-none-eabi/6.3.1/../../../../arm-none-eabi/lib/thumb/v7e-m/fpv4-sp/hard\libc_nano.a(lib_a-mprec.o)
                                                  c:/dev/gcc-arm-none-eabi/bin/../lib/gcc/arm-none-eabi/6.3.1/../../../../arm-none-eabi/lib/thumb/v7e-m/fpv4-sp/hard\libc_nano.a(lib_a-strtod.o)
__sf_fake_stderr                                  c:/dev/gcc-arm-none-eabi/bin/../lib/gcc/arm-none-eabi/6.3.1/../../../../arm-none-eabi/lib/thumb/v7e-m/fpv4-sp/hard\libc_nano.a(lib_a-impure.o)
__sf_fake_stdin                                   c:/dev/gcc-arm-none-eabi/bin/../lib/gcc/arm-none-eabi/6.3.1/../../../../arm-none-eabi/lib/thumb/v7e-m/fpv4-sp/hard\libc_nano.a(lib_a-impure.o)
__sf_fake_stdout                                  c:/dev/gcc-arm-none-eabi/bin/../lib/gcc/arm-none-eabi/6.3.1/../../../../arm-none-eabi/lib/thumb/v7e-m/fpv4-sp/hard\libc_nano.a(lib_a-impure.o)
__ssprint_r                                       c:/dev/gcc-arm-none-eabi/bin/../lib/gcc/arm-none-eabi/6.3.1/../../../../arm-none-eabi/lib/thumb/v7e-m/fpv4-sp/hard\libc_nano.a(lib_a-nano-svfprintf.o)
__ssputs_r                                        c:/dev/gcc-arm-none-eabi/bin/../lib/gcc/arm-none-eabi/6.3.1/../../../../arm-none-eabi/lib/thumb/v7e-m/fpv4-sp/hard\libc_nano.a(lib_a-nano-svfprintf.o)
__subdf3                                          c:/dev/gcc-arm-none-eabi/bin/../lib/gcc/arm-none-eabi/6.3.1/thumb/v7e-m/fpv4-sp/hard\libgcc.a(_arm_addsubdf3.o)
__truncdfsf2                                      c:/dev/gcc-arm-none-eabi/bin/../lib/gcc/arm-none-eabi/6.3.1/thumb/v7e-m/fpv4-sp/hard\libgcc.a(_arm_truncdfsf2.o)
__ulp                                             c:/dev/gcc-arm-none-eabi/bin/../lib/gcc/arm-none-eabi/6.3.1/../../../../arm-none-eabi/lib/thumb/v7e-m/fpv4-sp/hard\libc_nano.a(lib_a-mprec.o)
                                                  c:/dev/gcc-arm-none-eabi/bin/../lib/gcc/arm-none-eabi/6.3.1/../../../../arm-none-eabi/lib/thumb/v7e-m/fpv4-sp/hard\libc_nano.a(lib_a-strtod.o)
__unorddf2                                        c:/dev/gcc-arm-none-eabi/bin/../lib/gcc/arm-none-eabi/6.3.1/thumb/v7e-m/fpv4-sp/hard\libgcc.a(_arm_unorddf2.o)
__utoa                                            c:/dev/gcc-arm-none-eabi/bin/../lib/gcc/arm-none-eabi/6.3.1/../../../../arm-none-eabi/lib/thumb/v7e-m/fpv4-sp/hard\libc_nano.a(lib_a-utoa.o)
                                                  c:/dev/gcc-arm-none-eabi/bin/../lib/gcc/arm-none-eabi/6.3.1/../../../../arm-none-eabi/lib/thumb/v7e-m/fpv4-sp/hard\libc_nano.a(lib_a-itoa.o)
_atoi_r                                           c:/dev/gcc-arm-none-eabi/bin/../lib/gcc/arm-none-eabi/6.3.1/../../../../arm-none-eabi/lib/thumb/v7e-m/fpv4-sp/hard\libc_nano.a(lib_a-atoi.o)
_calloc_r                                         c:/dev/gcc-arm-none-eabi/bin/../lib/gcc/arm-none-eabi/6.3.1/../../../../arm-none-eabi/lib/thumb/v7e-m/fpv4-sp/hard\libc_nano.a(lib_a-nano-callocr.o)
                                                  c:/dev/gcc-arm-none-eabi/bin/../lib/gcc/arm-none-eabi/6.3.1/../../../../arm-none-eabi/lib/thumb/v7e-m/fpv4-sp/hard\libc_nano.a(lib_a-mprec.o)
_ctype_                                           c:/dev/gcc-arm-none-eabi/bin/../lib/gcc/arm-none-eabi/6.3.1/../../../../arm-none-eabi/lib/thumb/v7e-m/fpv4-sp/hard\libc_nano.a(lib_a-ctype_.o)
                                                  c:/dev/gcc-arm-none-eabi/bin/../lib/gcc/arm-none-eabi/6.3.1/../../../../arm-none-eabi/lib/thumb/v7e-m/fpv4-sp/hard\libc_nano.a(lib_a-locale.o)
_ebss                                             output\REVOLT\startup_stm32f405xx.o
_edata                                            output\REVOLT\startup_stm32f405xx.o
_estack                                           output\REVOLT\startup_stm32f405xx.o
_free_r                                           c:/dev/gcc-arm-none-eabi/bin/../lib/gcc/arm-none-eabi/6.3.1/../../../../arm-none-eabi/lib/thumb/v7e-m/fpv4-sp/hard\libc_nano.a(lib_a-nano-freer.o)
                                                  c:/dev/gcc-arm-none-eabi/bin/../lib/gcc/arm-none-eabi/6.3.1/../../../../arm-none-eabi/lib/thumb/v7e-m/fpv4-sp/hard\libc_nano.a(lib_a-nano-reallocr.o)
                                                  c:/dev/gcc-arm-none-eabi/bin/../lib/gcc/arm-none-eabi/6.3.1/../../../../arm-none-eabi/lib/thumb/v7e-m/fpv4-sp/hard\libc_nano.a(lib_a-nano-svfprintf.o)
                                                  c:/dev/gcc-arm-none-eabi/bin/../lib/gcc/arm-none-eabi/6.3.1/../../../../arm-none-eabi/lib/thumb/v7e-m/fpv4-sp/hard\libc_nano.a(lib_a-reent.o)
                                                  c:/dev/gcc-arm-none-eabi/bin/../lib/gcc/arm-none-eabi/6.3.1/../../../../arm-none-eabi/lib/thumb/v7e-m/fpv4-sp/hard\libc_nano.a(lib_a-malloc.o)
_global_impure_ptr                                c:/dev/gcc-arm-none-eabi/bin/../lib/gcc/arm-none-eabi/6.3.1/../../../../arm-none-eabi/lib/thumb/v7e-m/fpv4-sp/hard\libc_nano.a(lib_a-impure.o)
_impure_ptr                                       c:/dev/gcc-arm-none-eabi/bin/../lib/gcc/arm-none-eabi/6.3.1/../../../../arm-none-eabi/lib/thumb/v7e-m/fpv4-sp/hard\libc_nano.a(lib_a-impure.o)
                                                  c:/dev/gcc-arm-none-eabi/bin/../lib/gcc/arm-none-eabi/6.3.1/../../../../arm-none-eabi/lib/thumb/v7e-m/fpv4-sp/hard\libc_nano.a(lib_a-sprintf.o)
                                                  c:/dev/gcc-arm-none-eabi/bin/../lib/gcc/arm-none-eabi/6.3.1/../../../../arm-none-eabi/lib/thumb/v7e-m/fpv4-sp/hard\libc_nano.a(lib_a-snprintf.o)
                                                  c:/dev/gcc-arm-none-eabi/bin/../lib/gcc/arm-none-eabi/6.3.1/../../../../arm-none-eabi/lib/thumb/v7e-m/fpv4-sp/hard\libc_nano.a(lib_a-errno.o)
                                                  c:/dev/gcc-arm-none-eabi/bin/../lib/gcc/arm-none-eabi/6.3.1/../../../../arm-none-eabi/lib/thumb/v7e-m/fpv4-sp/hard\libc_nano.a(lib_a-reent.o)
                                                  c:/dev/gcc-arm-none-eabi/bin/../lib/gcc/arm-none-eabi/6.3.1/../../../../arm-none-eabi/lib/thumb/v7e-m/fpv4-sp/hard\libc_nano.a(lib_a-malloc.o)
                                                  c:/dev/gcc-arm-none-eabi/bin/../lib/gcc/arm-none-eabi/6.3.1/../../../../arm-none-eabi/lib/thumb/v7e-m/fpv4-sp/hard\libc_nano.a(lib_a-localeconv.o)
                                                  c:/dev/gcc-arm-none-eabi/bin/../lib/gcc/arm-none-eabi/6.3.1/../../../../arm-none-eabi/lib/thumb/v7e-m/fpv4-sp/hard\libc_nano.a(lib_a-wctomb_r.o)
                                                  c:/dev/gcc-arm-none-eabi/bin/../lib/gcc/arm-none-eabi/6.3.1/../../../../arm-none-eabi/lib/thumb/v7e-m/fpv4-sp/hard\libc_nano.a(lib_a-strtol.o)
                                                  c:/dev/gcc-arm-none-eabi/bin/../lib/gcc/arm-none-eabi/6.3.1/../../../../arm-none-eabi/lib/thumb/v7e-m/fpv4-sp/hard\libc_nano.a(lib_a-strtod.o)
                                                  c:/dev/gcc-arm-none-eabi/bin/../lib/gcc/arm-none-eabi/6.3.1/../../../../arm-none-eabi/lib/thumb/v7e-m/fpv4-sp/hard\libc_nano.a(lib_a-rand.o)
                                                  c:/dev/gcc-arm-none-eabi/bin/../lib/gcc/arm-none-eabi/6.3.1/../../../../arm-none-eabi/lib/thumb/v7e-m/fpv4-sp/hard\libc_nano.a(lib_a-mbtowc_r.o)
                                                  c:/dev/gcc-arm-none-eabi/bin/../lib/gcc/arm-none-eabi/6.3.1/../../../../arm-none-eabi/lib/thumb/v7e-m/fpv4-sp/hard\libc_nano.a(lib_a-locale.o)
_localeconv_r                                     c:/dev/gcc-arm-none-eabi/bin/../lib/gcc/arm-none-eabi/6.3.1/../../../../arm-none-eabi/lib/thumb/v7e-m/fpv4-sp/hard\libc_nano.a(lib_a-localeconv.o)
_malloc_r                                         c:/dev/gcc-arm-none-eabi/bin/../lib/gcc/arm-none-eabi/6.3.1/../../../../arm-none-eabi/lib/thumb/v7e-m/fpv4-sp/hard\libc_nano.a(lib_a-nano-mallocr.o)
                                                  c:/dev/gcc-arm-none-eabi/bin/../lib/gcc/arm-none-eabi/6.3.1/../../../../arm-none-eabi/lib/thumb/v7e-m/fpv4-sp/hard\libc_nano.a(lib_a-nano-reallocr.o)
                                                  c:/dev/gcc-arm-none-eabi/bin/../lib/gcc/arm-none-eabi/6.3.1/../../../../arm-none-eabi/lib/thumb/v7e-m/fpv4-sp/hard\libc_nano.a(lib_a-nano-svfprintf.o)
                                                  c:/dev/gcc-arm-none-eabi/bin/../lib/gcc/arm-none-eabi/6.3.1/../../../../arm-none-eabi/lib/thumb/v7e-m/fpv4-sp/hard\libc_nano.a(lib_a-nano-callocr.o)
                                                  c:/dev/gcc-arm-none-eabi/bin/../lib/gcc/arm-none-eabi/6.3.1/../../../../arm-none-eabi/lib/thumb/v7e-m/fpv4-sp/hard\libc_nano.a(lib_a-malloc.o)
_malloc_usable_size_r                             c:/dev/gcc-arm-none-eabi/bin/../lib/gcc/arm-none-eabi/6.3.1/../../../../arm-none-eabi/lib/thumb/v7e-m/fpv4-sp/hard\libc_nano.a(lib_a-nano-msizer.o)
                                                  c:/dev/gcc-arm-none-eabi/bin/../lib/gcc/arm-none-eabi/6.3.1/../../../../arm-none-eabi/lib/thumb/v7e-m/fpv4-sp/hard\libc_nano.a(lib_a-nano-reallocr.o)
_mbtowc_r                                         c:/dev/gcc-arm-none-eabi/bin/../lib/gcc/arm-none-eabi/6.3.1/../../../../arm-none-eabi/lib/thumb/v7e-m/fpv4-sp/hard\libc_nano.a(lib_a-mbtowc_r.o)
_mprec_log10                                      c:/dev/gcc-arm-none-eabi/bin/../lib/gcc/arm-none-eabi/6.3.1/../../../../arm-none-eabi/lib/thumb/v7e-m/fpv4-sp/hard\libc_nano.a(lib_a-mprec.o)
_printf_common                                    c:/dev/gcc-arm-none-eabi/bin/../lib/gcc/arm-none-eabi/6.3.1/../../../../arm-none-eabi/lib/thumb/v7e-m/fpv4-sp/hard\libc_nano.a(lib_a-nano-vfprintf_i.o)
_printf_float                                     c:/dev/gcc-arm-none-eabi/bin/../lib/gcc/arm-none-eabi/6.3.1/../../../../arm-none-eabi/lib/thumb/v7e-m/fpv4-sp/hard\libc_nano.a(lib_a-nano-svfprintf.o)
_printf_i                                         c:/dev/gcc-arm-none-eabi/bin/../lib/gcc/arm-none-eabi/6.3.1/../../../../arm-none-eabi/lib/thumb/v7e-m/fpv4-sp/hard\libc_nano.a(lib_a-nano-vfprintf_i.o)
                                                  c:/dev/gcc-arm-none-eabi/bin/../lib/gcc/arm-none-eabi/6.3.1/../../../../arm-none-eabi/lib/thumb/v7e-m/fpv4-sp/hard\libc_nano.a(lib_a-nano-svfprintf.o)
_realloc_r                                        c:/dev/gcc-arm-none-eabi/bin/../lib/gcc/arm-none-eabi/6.3.1/../../../../arm-none-eabi/lib/thumb/v7e-m/fpv4-sp/hard\libc_nano.a(lib_a-nano-reallocr.o)
                                                  c:/dev/gcc-arm-none-eabi/bin/../lib/gcc/arm-none-eabi/6.3.1/../../../../arm-none-eabi/lib/thumb/v7e-m/fpv4-sp/hard\libc_nano.a(lib_a-nano-svfprintf.o)
_reclaim_reent                                    c:/dev/gcc-arm-none-eabi/bin/../lib/gcc/arm-none-eabi/6.3.1/../../../../arm-none-eabi/lib/thumb/v7e-m/fpv4-sp/hard\libc_nano.a(lib_a-reent.o)
_sbrk                                             c:/dev/gcc-arm-none-eabi/bin/../lib/gcc/arm-none-eabi/6.3.1/../../../../arm-none-eabi/lib/thumb/v7e-m/fpv4-sp/hard\libnosys.a(sbrk.o)
                                                  c:/dev/gcc-arm-none-eabi/bin/../lib/gcc/arm-none-eabi/6.3.1/../../../../arm-none-eabi/lib/thumb/v7e-m/fpv4-sp/hard\libc_nano.a(lib_a-sbrkr.o)
_sbrk_r                                           c:/dev/gcc-arm-none-eabi/bin/../lib/gcc/arm-none-eabi/6.3.1/../../../../arm-none-eabi/lib/thumb/v7e-m/fpv4-sp/hard\libc_nano.a(lib_a-sbrkr.o)
                                                  c:/dev/gcc-arm-none-eabi/bin/../lib/gcc/arm-none-eabi/6.3.1/../../../../arm-none-eabi/lib/thumb/v7e-m/fpv4-sp/hard\libc_nano.a(lib_a-nano-mallocr.o)
_sbss                                             output\REVOLT\startup_stm32f405xx.o
_sdata                                            output\REVOLT\startup_stm32f405xx.o
_setlocale_r                                      c:/dev/gcc-arm-none-eabi/bin/../lib/gcc/arm-none-eabi/6.3.1/../../../../arm-none-eabi/lib/thumb/v7e-m/fpv4-sp/hard\libc_nano.a(lib_a-locale.o)
_sidata                                           output\REVOLT\startup_stm32f405xx.o
_siprintf_r                                       c:/dev/gcc-arm-none-eabi/bin/../lib/gcc/arm-none-eabi/6.3.1/../../../../arm-none-eabi/lib/thumb/v7e-m/fpv4-sp/hard\libc_nano.a(lib_a-sprintf.o)
_sniprintf_r                                      c:/dev/gcc-arm-none-eabi/bin/../lib/gcc/arm-none-eabi/6.3.1/../../../../arm-none-eabi/lib/thumb/v7e-m/fpv4-sp/hard\libc_nano.a(lib_a-snprintf.o)
_snprintf_r                                       c:/dev/gcc-arm-none-eabi/bin/../lib/gcc/arm-none-eabi/6.3.1/../../../../arm-none-eabi/lib/thumb/v7e-m/fpv4-sp/hard\libc_nano.a(lib_a-snprintf.o)
_sprintf_r                                        c:/dev/gcc-arm-none-eabi/bin/../lib/gcc/arm-none-eabi/6.3.1/../../../../arm-none-eabi/lib/thumb/v7e-m/fpv4-sp/hard\libc_nano.a(lib_a-sprintf.o)
_strtod_l                                         c:/dev/gcc-arm-none-eabi/bin/../lib/gcc/arm-none-eabi/6.3.1/../../../../arm-none-eabi/lib/thumb/v7e-m/fpv4-sp/hard\libc_nano.a(lib_a-strtod.o)
_strtod_r                                         c:/dev/gcc-arm-none-eabi/bin/../lib/gcc/arm-none-eabi/6.3.1/../../../../arm-none-eabi/lib/thumb/v7e-m/fpv4-sp/hard\libc_nano.a(lib_a-strtod.o)
_strtol_r                                         c:/dev/gcc-arm-none-eabi/bin/../lib/gcc/arm-none-eabi/6.3.1/../../../../arm-none-eabi/lib/thumb/v7e-m/fpv4-sp/hard\libc_nano.a(lib_a-strtol.o)
                                                  c:/dev/gcc-arm-none-eabi/bin/../lib/gcc/arm-none-eabi/6.3.1/../../../../arm-none-eabi/lib/thumb/v7e-m/fpv4-sp/hard\libc_nano.a(lib_a-atoi.o)
_svfiprintf_r                                     c:/dev/gcc-arm-none-eabi/bin/../lib/gcc/arm-none-eabi/6.3.1/../../../../arm-none-eabi/lib/thumb/v7e-m/fpv4-sp/hard\libc_nano.a(lib_a-nano-svfprintf.o)
_svfprintf_r                                      c:/dev/gcc-arm-none-eabi/bin/../lib/gcc/arm-none-eabi/6.3.1/../../../../arm-none-eabi/lib/thumb/v7e-m/fpv4-sp/hard\libc_nano.a(lib_a-nano-svfprintf.o)
                                                  c:/dev/gcc-arm-none-eabi/bin/../lib/gcc/arm-none-eabi/6.3.1/../../../../arm-none-eabi/lib/thumb/v7e-m/fpv4-sp/hard\libc_nano.a(lib_a-sprintf.o)
                                                  c:/dev/gcc-arm-none-eabi/bin/../lib/gcc/arm-none-eabi/6.3.1/../../../../arm-none-eabi/lib/thumb/v7e-m/fpv4-sp/hard\libc_nano.a(lib_a-snprintf.o)
_wctomb_r                                         c:/dev/gcc-arm-none-eabi/bin/../lib/gcc/arm-none-eabi/6.3.1/../../../../arm-none-eabi/lib/thumb/v7e-m/fpv4-sp/hard\libc_nano.a(lib_a-wctomb_r.o)
accBodyQuat                                       output\REVOLT\imu.o (symbol from plugin)
accBodyVector                                     C:\Users\PRESTO~1\AppData\Local\Temp\cc3x6Wri.ltrans19.ltrans.o
                                                  output\REVOLT\imu.o (symbol from plugin)
                                                  C:\Users\PRESTO~1\AppData\Local\Temp\cc3x6Wri.ltrans2.ltrans.o
accNoise                                          output\REVOLT\flight.o (symbol from plugin)
accQuat                                           output\REVOLT\imu.o (symbol from plugin)
accWorldQuat                                      output\REVOLT\imu.o (symbol from plugin)
accWorldVector                                    C:\Users\PRESTO~1\AppData\Local\Temp\cc3x6Wri.ltrans19.ltrans.o
                                                  output\REVOLT\imu.o (symbol from plugin)
                                                  C:\Users\PRESTO~1\AppData\Local\Temp\cc3x6Wri.ltrans2.ltrans.o
accelUpdate.lto_priv.245                          C:\Users\PRESTO~1\AppData\Local\Temp\cc3x6Wri.ltrans23.ltrans.o
                                                  C:\Users\PRESTO~1\AppData\Local\Temp\cc3x6Wri.ltrans26.ltrans.o
accgyroDeviceApplyCalibration                     output\REVOLT\invensense_mpu_icm_device.o (symbol from plugin)
                                                  output\REVOLT\gyro.o (symbol from plugin)
accgyroDeviceCalibrate                            output\REVOLT\invensense_mpu_icm_device.o (symbol from plugin)
                                                  output\REVOLT\gyro.o (symbol from plugin)
accgyroDeviceReadAccGyro                          output\REVOLT\invensense_mpu_icm_device.o (symbol from plugin)
                                                  output\REVOLT\invensense_bus_spi.o (symbol from plugin)
accgyroDeviceReadComplete                         output\REVOLT\invensense_mpu_icm_device.o (symbol from plugin)
                                                  output\REVOLT\invensense_bus_spi.o (symbol from plugin)
accgyroDeviceReadGyro                             output\REVOLT\invensense_mpu_icm_device.o (symbol from plugin)
                                                  output\REVOLT\invensense_bus_spi.o (symbol from plugin)
activeFailsafe                                    C:\Users\PRESTO~1\AppData\Local\Temp\cc3x6Wri.ltrans4.ltrans.o
                                                  output\REVOLT\rx.o (symbol from plugin)
                                                  C:\Users\PRESTO~1\AppData\Local\Temp\cc3x6Wri.ltrans3.ltrans.o
                                                  C:\Users\PRESTO~1\AppData\Local\Temp\cc3x6Wri.ltrans2.ltrans.o
activeModes                                       C:\Users\PRESTO~1\AppData\Local\Temp\cc3x6Wri.ltrans1.ltrans.o
                                                  output\REVOLT\modes.o (symbol from plugin)
                                                  C:\Users\PRESTO~1\AppData\Local\Temp\cc3x6Wri.ltrans25.ltrans.o
                                                  C:\Users\PRESTO~1\AppData\Local\Temp\cc3x6Wri.ltrans15.ltrans.o
                                                  C:\Users\PRESTO~1\AppData\Local\Temp\cc3x6Wri.ltrans9.ltrans.o
                                                  C:\Users\PRESTO~1\AppData\Local\Temp\cc3x6Wri.ltrans4.ltrans.o
                                                  C:\Users\PRESTO~1\AppData\Local\Temp\cc3x6Wri.ltrans3.ltrans.o
                                                  C:\Users\PRESTO~1\AppData\Local\Temp\cc3x6Wri.ltrans2.ltrans.o
                                                  C:\Users\PRESTO~1\AppData\Local\Temp\cc3x6Wri.ltrans0.ltrans.o
                                                  output\REVOLT\flight_logger.o (symbol from plugin)
activeMotorCounter                                C:\Users\PRESTO~1\AppData\Local\Temp\cc3x6Wri.ltrans4.ltrans.o
                                                  output\REVOLT\mixer.o (symbol from plugin)
                                                  C:\Users\PRESTO~1\AppData\Local\Temp\cc3x6Wri.ltrans2.ltrans.o
activeProfile                                     C:\Users\PRESTO~1\AppData\Local\Temp\cc3x6Wri.ltrans29.ltrans.o
                                                  output\REVOLT\config.o (symbol from plugin)
                                                  C:\Users\PRESTO~1\AppData\Local\Temp\cc3x6Wri.ltrans25.ltrans.o
                                                  C:\Users\PRESTO~1\AppData\Local\Temp\cc3x6Wri.ltrans22.ltrans.o
                                                  C:\Users\PRESTO~1\AppData\Local\Temp\cc3x6Wri.ltrans6.ltrans.o
                                                  C:\Users\PRESTO~1\AppData\Local\Temp\cc3x6Wri.ltrans4.ltrans.o
                                                  C:\Users\PRESTO~1\AppData\Local\Temp\cc3x6Wri.ltrans3.ltrans.o
                                                  C:\Users\PRESTO~1\AppData\Local\Temp\cc3x6Wri.ltrans2.ltrans.o
                                                  C:\Users\PRESTO~1\AppData\Local\Temp\cc3x6Wri.ltrans1.ltrans.o
                                                  output\REVOLT\rx.o (symbol from plugin)
                                                  output\REVOLT\actuator_output.o (symbol from plugin)
                                                  output\REVOLT\sPortTelemetry.o (symbol from plugin)
                                                  output\REVOLT\spektrumTelemetry.o (symbol from plugin)
                                                  output\REVOLT\scheduler.o (symbol from plugin)
                                                  output\REVOLT\pid.o (symbol from plugin)
                                                  output\REVOLT\mixer.o (symbol from plugin)
                                                  output\REVOLT\flight.o (symbol from plugin)
                                                  output\REVOLT\filter.o (symbol from plugin)
actuator                                          output\REVOLT\spm_laptimer.o (symbol from plugin)
actuatorRange                                     C:\Users\PRESTO~1\AppData\Local\Temp\cc3x6Wri.ltrans4.ltrans.o
                                                  output\REVOLT\flight.o (symbol from plugin)
                                                  C:\Users\PRESTO~1\AppData\Local\Temp\cc3x6Wri.ltrans2.ltrans.o
adcCurrent                                        C:\Users\PRESTO~1\AppData\Local\Temp\cc3x6Wri.ltrans1.ltrans.o
                                                  output\REVOLT\adc.o (symbol from plugin)
                                                  C:\Users\PRESTO~1\AppData\Local\Temp\cc3x6Wri.ltrans22.ltrans.o
                                                  C:\Users\PRESTO~1\AppData\Local\Temp\cc3x6Wri.ltrans20.ltrans.o
                                                  C:\Users\PRESTO~1\AppData\Local\Temp\cc3x6Wri.ltrans15.ltrans.o
                                                  C:\Users\PRESTO~1\AppData\Local\Temp\cc3x6Wri.ltrans6.ltrans.o
                                                  C:\Users\PRESTO~1\AppData\Local\Temp\cc3x6Wri.ltrans3.ltrans.o
                                                  C:\Users\PRESTO~1\AppData\Local\Temp\cc3x6Wri.ltrans2.ltrans.o
                                                  output\REVOLT\maxOsd.o (symbol from plugin)
                                                  output\REVOLT\sPortTelemetry.o (symbol from plugin)
                                                  output\REVOLT\spektrumTelemetry.o (symbol from plugin)
                                                  output\REVOLT\rfosdTelemetry.o (symbol from plugin)
                                                  output\REVOLT\mspTelemetry.o (symbol from plugin)
                                                  output\REVOLT\crossfire.o (symbol from plugin)
                                                  output\REVOLT\flight_logger.o (symbol from plugin)
                                                  output\REVOLT\config.o (symbol from plugin)
adcDmaBuffer                                      C:\Users\PRESTO~1\AppData\Local\Temp\cc3x6Wri.ltrans3.ltrans.o
                                                  output\REVOLT\adc.o (symbol from plugin)
                                                  C:\Users\PRESTO~1\AppData\Local\Temp\cc3x6Wri.ltrans2.ltrans.o
adcHandle                                         C:\Users\PRESTO~1\AppData\Local\Temp\cc3x6Wri.ltrans2.ltrans.o
                                                  output\REVOLT\boarddef.o (symbol from plugin)
                                                  C:\Users\PRESTO~1\AppData\Local\Temp\cc3x6Wri.ltrans0.ltrans.o
                                                  output\REVOLT\adc.o (symbol from plugin)
                                                  output\REVOLT\stm32f4xx_it.o (symbol from plugin)
adcInstance                                       C:\Users\PRESTO~1\AppData\Local\Temp\cc3x6Wri.ltrans3.ltrans.o
                                                  output\REVOLT\boarddef.o (symbol from plugin)
                                                  C:\Users\PRESTO~1\AppData\Local\Temp\cc3x6Wri.ltrans2.ltrans.o
                                                  output\REVOLT\adc.o (symbol from plugin)
adcMAh                                            C:\Users\PRESTO~1\AppData\Local\Temp\cc3x6Wri.ltrans1.ltrans.o
                                                  output\REVOLT\adc.o (symbol from plugin)
                                                  C:\Users\PRESTO~1\AppData\Local\Temp\cc3x6Wri.ltrans22.ltrans.o
                                                  C:\Users\PRESTO~1\AppData\Local\Temp\cc3x6Wri.ltrans15.ltrans.o
                                                  C:\Users\PRESTO~1\AppData\Local\Temp\cc3x6Wri.ltrans6.ltrans.o
                                                  C:\Users\PRESTO~1\AppData\Local\Temp\cc3x6Wri.ltrans3.ltrans.o
                                                  output\REVOLT\sPortTelemetry.o (symbol from plugin)
                                                  output\REVOLT\spektrumTelemetry.o (symbol from plugin)
                                                  output\REVOLT\mspTelemetry.o (symbol from plugin)
                                                  output\REVOLT\crossfire.o (symbol from plugin)
                                                  output\REVOLT\config.o (symbol from plugin)
adcVoltage                                        C:\Users\PRESTO~1\AppData\Local\Temp\cc3x6Wri.ltrans1.ltrans.o
                                                  output\REVOLT\adc.o (symbol from plugin)
                                                  C:\Users\PRESTO~1\AppData\Local\Temp\cc3x6Wri.ltrans3.ltrans.o
                                                  C:\Users\PRESTO~1\AppData\Local\Temp\cc3x6Wri.ltrans2.ltrans.o
                                                  output\REVOLT\flight_logger.o (symbol from plugin)
                                                  output\REVOLT\config.o (symbol from plugin)
adding                                            output\REVOLT\leds.o (symbol from plugin)
alonePulseWidth                                   C:\Users\PRESTO~1\AppData\Local\Temp\cc3x6Wri.ltrans27.ltrans.o
                                                  output\REVOLT\dmaShenanigans.o (symbol from plugin)
                                                  C:\Users\PRESTO~1\AppData\Local\Temp\cc3x6Wri.ltrans24.ltrans.o
                                                  C:\Users\PRESTO~1\AppData\Local\Temp\cc3x6Wri.ltrans22.ltrans.o
                                                  C:\Users\PRESTO~1\AppData\Local\Temp\cc3x6Wri.ltrans14.ltrans.o
                                                  C:\Users\PRESTO~1\AppData\Local\Temp\cc3x6Wri.ltrans13.ltrans.o
                                                  C:\Users\PRESTO~1\AppData\Local\Temp\cc3x6Wri.ltrans12.ltrans.o
                                                  C:\Users\PRESTO~1\AppData\Local\Temp\cc3x6Wri.ltrans7.ltrans.o
                                                  C:\Users\PRESTO~1\AppData\Local\Temp\cc3x6Wri.ltrans3.ltrans.o
armBitRevIndexTable1024                           output\REVOLT\arm_common_tables.o (symbol from plugin)
armBitRevIndexTable128                            output\REVOLT\arm_common_tables.o (symbol from plugin)
armBitRevIndexTable16                             output\REVOLT\arm_common_tables.o (symbol from plugin)
armBitRevIndexTable2048                           output\REVOLT\arm_common_tables.o (symbol from plugin)
armBitRevIndexTable256                            output\REVOLT\arm_common_tables.o (symbol from plugin)
armBitRevIndexTable32                             output\REVOLT\arm_common_tables.o (symbol from plugin)
armBitRevIndexTable4096                           output\REVOLT\arm_common_tables.o (symbol from plugin)
armBitRevIndexTable512                            output\REVOLT\arm_common_tables.o (symbol from plugin)
armBitRevIndexTable64                             output\REVOLT\arm_common_tables.o (symbol from plugin)
armBitRevIndexTable_fixed_1024                    output\REVOLT\arm_common_tables.o (symbol from plugin)
armBitRevIndexTable_fixed_128                     output\REVOLT\arm_common_tables.o (symbol from plugin)
armBitRevIndexTable_fixed_16                      output\REVOLT\arm_common_tables.o (symbol from plugin)
armBitRevIndexTable_fixed_2048                    output\REVOLT\arm_common_tables.o (symbol from plugin)
armBitRevIndexTable_fixed_256                     output\REVOLT\arm_common_tables.o (symbol from plugin)
armBitRevIndexTable_fixed_32                      output\REVOLT\arm_common_tables.o (symbol from plugin)
armBitRevIndexTable_fixed_4096                    output\REVOLT\arm_common_tables.o (symbol from plugin)
armBitRevIndexTable_fixed_512                     output\REVOLT\arm_common_tables.o (symbol from plugin)
armBitRevIndexTable_fixed_64                      output\REVOLT\arm_common_tables.o (symbol from plugin)
armBitRevTable                                    output\REVOLT\arm_common_tables.o (symbol from plugin)
armBoardAt                                        C:\Users\PRESTO~1\AppData\Local\Temp\cc3x6Wri.ltrans25.ltrans.o
                                                  output\REVOLT\rx.o (symbol from plugin)
                                                  C:\Users\PRESTO~1\AppData\Local\Temp\cc3x6Wri.ltrans3.ltrans.o
                                                  output\REVOLT\scheduler.o (symbol from plugin)
armCheckLatch                                     output\REVOLT\rx.o (symbol from plugin)
armRecipTableQ15                                  output\REVOLT\arm_common_tables.o (symbol from plugin)
armRecipTableQ31                                  output\REVOLT\arm_common_tables.o (symbol from plugin)
arm_cos_f32                                       output\REVOLT\arm_cos_f32.o (symbol from plugin)
arm_fir_f32                                       output\REVOLT\arm_fir_f32.o (symbol from plugin)
arm_fir_init_f32                                  output\REVOLT\arm_fir_init_f32.o (symbol from plugin)
arm_mat_add_f32                                   output\REVOLT\arm_mat_add_f32.o (symbol from plugin)
arm_mat_init_f32                                  output\REVOLT\arm_mat_init_f32.o (symbol from plugin)
arm_mat_inverse_f32                               output\REVOLT\arm_mat_inverse_f32.o (symbol from plugin)
arm_mat_mult_f32                                  output\REVOLT\arm_mat_mult_f32.o (symbol from plugin)
arm_mat_sub_f32                                   output\REVOLT\arm_mat_sub_f32.o (symbol from plugin)
arm_mat_trans_f32                                 output\REVOLT\arm_mat_trans_f32.o (symbol from plugin)
arm_sin_f32                                       output\REVOLT\arm_sin_f32.o (symbol from plugin)
                                                  output\REVOLT\imu.o (symbol from plugin)
armedTime                                         C:\Users\PRESTO~1\AppData\Local\Temp\cc3x6Wri.ltrans4.ltrans.o
                                                  output\REVOLT\flight.o (symbol from plugin)
                                                  C:\Users\PRESTO~1\AppData\Local\Temp\cc3x6Wri.ltrans20.ltrans.o
                                                  C:\Users\PRESTO~1\AppData\Local\Temp\cc3x6Wri.ltrans6.ltrans.o
                                                  C:\Users\PRESTO~1\AppData\Local\Temp\cc3x6Wri.ltrans2.ltrans.o
                                                  output\REVOLT\maxOsd.o (symbol from plugin)
                                                  output\REVOLT\rfosdTelemetry.o (symbol from plugin)
armedTimeSincePower                               C:\Users\PRESTO~1\AppData\Local\Temp\cc3x6Wri.ltrans4.ltrans.o
                                                  output\REVOLT\flight.o (symbol from plugin)
                                                  C:\Users\PRESTO~1\AppData\Local\Temp\cc3x6Wri.ltrans3.ltrans.o
                                                  output\REVOLT\quopa.o (symbol from plugin)
armingBuzzArray                                   output\REVOLT\buzzer.o (symbol from plugin)
armingStructure                                   C:\Users\PRESTO~1\AppData\Local\Temp\cc3x6Wri.ltrans1.ltrans.o
                                                  output\REVOLT\rx.o (symbol from plugin)
                                                  C:\Users\PRESTO~1\AppData\Local\Temp\cc3x6Wri.ltrans3.ltrans.o
                                                  C:\Users\PRESTO~1\AppData\Local\Temp\cc3x6Wri.ltrans2.ltrans.o
                                                  output\REVOLT\config.o (symbol from plugin)
atof                                              c:/dev/gcc-arm-none-eabi/bin/../lib/gcc/arm-none-eabi/6.3.1/../../../../arm-none-eabi/lib/thumb/v7e-m/fpv4-sp/hard\libc_nano.a(lib_a-atof.o)
                                                  C:\Users\PRESTO~1\AppData\Local\Temp\cc3x6Wri.ltrans1.ltrans.o
                                                  output\REVOLT\config.o (symbol from plugin)
atoi                                              c:/dev/gcc-arm-none-eabi/bin/../lib/gcc/arm-none-eabi/6.3.1/../../../../arm-none-eabi/lib/thumb/v7e-m/fpv4-sp/hard\libc_nano.a(lib_a-atoi.o)
                                                  C:\Users\PRESTO~1\AppData\Local\Temp\cc3x6Wri.ltrans31.ltrans.o
                                                  C:\Users\PRESTO~1\AppData\Local\Temp\cc3x6Wri.ltrans7.ltrans.o
                                                  C:\Users\PRESTO~1\AppData\Local\Temp\cc3x6Wri.ltrans1.ltrans.o
                                                  output\REVOLT\wizard.o (symbol from plugin)
                                                  output\REVOLT\modes.o (symbol from plugin)
                                                  output\REVOLT\mixer.o (symbol from plugin)
                                                  output\REVOLT\config.o (symbol from plugin)
attitudeFrameQuat                                 C:\Users\PRESTO~1\AppData\Local\Temp\cc3x6Wri.ltrans1.ltrans.o
                                                  output\REVOLT\imu.o (symbol from plugin)
                                                  C:\Users\PRESTO~1\AppData\Local\Temp\cc3x6Wri.ltrans19.ltrans.o
                                                  C:\Users\PRESTO~1\AppData\Local\Temp\cc3x6Wri.ltrans4.ltrans.o
                                                  C:\Users\PRESTO~1\AppData\Local\Temp\cc3x6Wri.ltrans2.ltrans.o
                                                  output\REVOLT\config.o (symbol from plugin)
averageVoltage                                    C:\Users\PRESTO~1\AppData\Local\Temp\cc3x6Wri.ltrans20.ltrans.o
                                                  output\REVOLT\adc.o (symbol from plugin)
                                                  C:\Users\PRESTO~1\AppData\Local\Temp\cc3x6Wri.ltrans22.ltrans.o
                                                  C:\Users\PRESTO~1\AppData\Local\Temp\cc3x6Wri.ltrans15.ltrans.o
                                                  C:\Users\PRESTO~1\AppData\Local\Temp\cc3x6Wri.ltrans6.ltrans.o
                                                  C:\Users\PRESTO~1\AppData\Local\Temp\cc3x6Wri.ltrans3.ltrans.o
                                                  C:\Users\PRESTO~1\AppData\Local\Temp\cc3x6Wri.ltrans2.ltrans.o
                                                  output\REVOLT\leds.o (symbol from plugin)
                                                  output\REVOLT\maxOsd.o (symbol from plugin)
                                                  output\REVOLT\sPortTelemetry.o (symbol from plugin)
                                                  output\REVOLT\spektrumTelemetry.o (symbol from plugin)
                                                  output\REVOLT\rfosdTelemetry.o (symbol from plugin)
                                                  output\REVOLT\mspTelemetry.o (symbol from plugin)
                                                  output\REVOLT\crossfire.o (symbol from plugin)
                                                  output\REVOLT\flight_logger.o (symbol from plugin)
averagedGyroData                                  C:\Users\PRESTO~1\AppData\Local\Temp\cc3x6Wri.ltrans4.ltrans.o
                                                  output\REVOLT\flight.o (symbol from plugin)
                                                  C:\Users\PRESTO~1\AppData\Local\Temp\cc3x6Wri.ltrans2.ltrans.o
averagedGyroDataPointer                           C:\Users\PRESTO~1\AppData\Local\Temp\cc3x6Wri.ltrans4.ltrans.o
                                                  output\REVOLT\flight.o (symbol from plugin)
                                                  C:\Users\PRESTO~1\AppData\Local\Temp\cc3x6Wri.ltrans2.ltrans.o
averagedGyroDataPointerMultiplier                 C:\Users\PRESTO~1\AppData\Local\Temp\cc3x6Wri.ltrans4.ltrans.o
                                                  output\REVOLT\flight.o (symbol from plugin)
                                                  C:\Users\PRESTO~1\AppData\Local\Temp\cc3x6Wri.ltrans2.ltrans.o
axis                                              output\REVOLT\pid.o (symbol from plugin)
axisTable                                         output\REVOLT\spektrumTelemetry.o (symbol from plugin)
bbValues                                          C:\Users\PRESTO~1\AppData\Local\Temp\cc3x6Wri.ltrans4.ltrans.o
                                                  output\REVOLT\flight_logger.o (symbol from plugin)
                                                  C:\Users\PRESTO~1\AppData\Local\Temp\cc3x6Wri.ltrans2.ltrans.o
bb_data                                           output\REVOLT\flight_logger.o (symbol from plugin)
bind                                              C:\Users\PRESTO~1\AppData\Local\Temp\cc3x6Wri.ltrans1.ltrans.o
                                                  output\REVOLT\spektrumTelemetry.o (symbol from plugin)
                                                  C:\Users\PRESTO~1\AppData\Local\Temp\cc3x6Wri.ltrans2.ltrans.o
bitLookup.lto_priv.199.lto_priv.247               C:\Users\PRESTO~1\AppData\Local\Temp\cc3x6Wri.ltrans13.ltrans.o
                                                  C:\Users\PRESTO~1\AppData\Local\Temp\cc3x6Wri.ltrans9.ltrans.o
blueTemp                                          C:\Users\PRESTO~1\AppData\Local\Temp\cc3x6Wri.ltrans16.ltrans.o
                                                  output\REVOLT\leds.o (symbol from plugin)
                                                  C:\Users\PRESTO~1\AppData\Local\Temp\cc3x6Wri.ltrans3.ltrans.o
board                                             C:\Users\PRESTO~1\AppData\Local\Temp\cc3x6Wri.ltrans27.ltrans.o
                                                  output\REVOLT\boarddef.o (symbol from plugin)
                                                  C:\Users\PRESTO~1\AppData\Local\Temp\cc3x6Wri.ltrans30.ltrans.o
                                                  C:\Users\PRESTO~1\AppData\Local\Temp\cc3x6Wri.ltrans29.ltrans.o
                                                  C:\Users\PRESTO~1\AppData\Local\Temp\cc3x6Wri.ltrans26.ltrans.o
                                                  C:\Users\PRESTO~1\AppData\Local\Temp\cc3x6Wri.ltrans25.ltrans.o
                                                  C:\Users\PRESTO~1\AppData\Local\Temp\cc3x6Wri.ltrans24.ltrans.o
                                                  C:\Users\PRESTO~1\AppData\Local\Temp\cc3x6Wri.ltrans23.ltrans.o
                                                  C:\Users\PRESTO~1\AppData\Local\Temp\cc3x6Wri.ltrans22.ltrans.o
                                                  C:\Users\PRESTO~1\AppData\Local\Temp\cc3x6Wri.ltrans21.ltrans.o
                                                  C:\Users\PRESTO~1\AppData\Local\Temp\cc3x6Wri.ltrans20.ltrans.o
                                                  C:\Users\PRESTO~1\AppData\Local\Temp\cc3x6Wri.ltrans19.ltrans.o
                                                  C:\Users\PRESTO~1\AppData\Local\Temp\cc3x6Wri.ltrans18.ltrans.o
                                                  C:\Users\PRESTO~1\AppData\Local\Temp\cc3x6Wri.ltrans17.ltrans.o
                                                  C:\Users\PRESTO~1\AppData\Local\Temp\cc3x6Wri.ltrans16.ltrans.o
                                                  C:\Users\PRESTO~1\AppData\Local\Temp\cc3x6Wri.ltrans15.ltrans.o
                                                  C:\Users\PRESTO~1\AppData\Local\Temp\cc3x6Wri.ltrans14.ltrans.o
                                                  C:\Users\PRESTO~1\AppData\Local\Temp\cc3x6Wri.ltrans13.ltrans.o
                                                  C:\Users\PRESTO~1\AppData\Local\Temp\cc3x6Wri.ltrans12.ltrans.o
                                                  C:\Users\PRESTO~1\AppData\Local\Temp\cc3x6Wri.ltrans11.ltrans.o
                                                  C:\Users\PRESTO~1\AppData\Local\Temp\cc3x6Wri.ltrans10.ltrans.o
                                                  C:\Users\PRESTO~1\AppData\Local\Temp\cc3x6Wri.ltrans9.ltrans.o
                                                  C:\Users\PRESTO~1\AppData\Local\Temp\cc3x6Wri.ltrans8.ltrans.o
                                                  C:\Users\PRESTO~1\AppData\Local\Temp\cc3x6Wri.ltrans7.ltrans.o
                                                  C:\Users\PRESTO~1\AppData\Local\Temp\cc3x6Wri.ltrans6.ltrans.o
                                                  C:\Users\PRESTO~1\AppData\Local\Temp\cc3x6Wri.ltrans5.ltrans.o
                                                  C:\Users\PRESTO~1\AppData\Local\Temp\cc3x6Wri.ltrans3.ltrans.o
                                                  C:\Users\PRESTO~1\AppData\Local\Temp\cc3x6Wri.ltrans2.ltrans.o
                                                  C:\Users\PRESTO~1\AppData\Local\Temp\cc3x6Wri.ltrans1.ltrans.o
                                                  C:\Users\PRESTO~1\AppData\Local\Temp\cc3x6Wri.ltrans0.ltrans.o
                                                  output\REVOLT\spm_laptimer.o (symbol from plugin)
                                                  output\REVOLT\serial.o (symbol from plugin)
                                                  output\REVOLT\rx.o (symbol from plugin)
                                                  output\REVOLT\invensense_bus_spi.o (symbol from plugin)
                                                  output\REVOLT\flash_chip.o (symbol from plugin)
                                                  output\REVOLT\buzzer.o (symbol from plugin)
                                                  output\REVOLT\actuator_output.o (symbol from plugin)
                                                  output\REVOLT\dmaShenanigans.o (symbol from plugin)
                                                  output\REVOLT\leds.o (symbol from plugin)
                                                  output\REVOLT\esc_1wire.o (symbol from plugin)
                                                  output\REVOLT\maxOsd.o (symbol from plugin)
                                                  output\REVOLT\adc.o (symbol from plugin)
                                                  output\REVOLT\trampTelemetry.o (symbol from plugin)
                                                  output\REVOLT\sPortTelemetry.o (symbol from plugin)
                                                  output\REVOLT\spektrumTelemetry.o (symbol from plugin)
                                                  output\REVOLT\smartAudio.o (symbol from plugin)
                                                  output\REVOLT\rfVtx.o (symbol from plugin)
                                                  output\REVOLT\rfosdTelemetry.o (symbol from plugin)
                                                  output\REVOLT\mspTelemetry.o (symbol from plugin)
                                                  output\REVOLT\dshotTwoWay.o (symbol from plugin)
                                                  output\REVOLT\crossfire.o (symbol from plugin)
                                                  output\REVOLT\wizard.o (symbol from plugin)
                                                  output\REVOLT\scheduler.o (symbol from plugin)
                                                  output\REVOLT\quopa.o (symbol from plugin)
                                                  output\REVOLT\newSoftSerial.o (symbol from plugin)
                                                  output\REVOLT\flight.o (symbol from plugin)
                                                  output\REVOLT\config.o (symbol from plugin)
                                                  output\REVOLT\stm32f4xx_spi_msp.o (symbol from plugin)
                                                  output\REVOLT\stm32f4xx_it.o (symbol from plugin)
boardArmed                                        C:\Users\PRESTO~1\AppData\Local\Temp\cc3x6Wri.ltrans13.ltrans.o
                                                  output\REVOLT\flight.o (symbol from plugin)
                                                  C:\Users\PRESTO~1\AppData\Local\Temp\cc3x6Wri.ltrans29.ltrans.o
                                                  C:\Users\PRESTO~1\AppData\Local\Temp\cc3x6Wri.ltrans26.ltrans.o
                                                  C:\Users\PRESTO~1\AppData\Local\Temp\cc3x6Wri.ltrans25.ltrans.o
                                                  C:\Users\PRESTO~1\AppData\Local\Temp\cc3x6Wri.ltrans19.ltrans.o
                                                  C:\Users\PRESTO~1\AppData\Local\Temp\cc3x6Wri.ltrans18.ltrans.o
                                                  C:\Users\PRESTO~1\AppData\Local\Temp\cc3x6Wri.ltrans15.ltrans.o
                                                  C:\Users\PRESTO~1\AppData\Local\Temp\cc3x6Wri.ltrans14.ltrans.o
                                                  C:\Users\PRESTO~1\AppData\Local\Temp\cc3x6Wri.ltrans6.ltrans.o
                                                  C:\Users\PRESTO~1\AppData\Local\Temp\cc3x6Wri.ltrans4.ltrans.o
                                                  C:\Users\PRESTO~1\AppData\Local\Temp\cc3x6Wri.ltrans3.ltrans.o
                                                  C:\Users\PRESTO~1\AppData\Local\Temp\cc3x6Wri.ltrans2.ltrans.o
                                                  C:\Users\PRESTO~1\AppData\Local\Temp\cc3x6Wri.ltrans1.ltrans.o
                                                  C:\Users\PRESTO~1\AppData\Local\Temp\cc3x6Wri.ltrans0.ltrans.o
                                                  output\REVOLT\rx.o (symbol from plugin)
                                                  output\REVOLT\flash_chip.o (symbol from plugin)
                                                  output\REVOLT\actuator_output.o (symbol from plugin)
                                                  output\REVOLT\adc.o (symbol from plugin)
                                                  output\REVOLT\trampTelemetry.o (symbol from plugin)
                                                  output\REVOLT\sPortTelemetry.o (symbol from plugin)
                                                  output\REVOLT\smartAudio.o (symbol from plugin)
                                                  output\REVOLT\mspTelemetry.o (symbol from plugin)
                                                  output\REVOLT\dshotTwoWay.o (symbol from plugin)
                                                  output\REVOLT\scheduler.o (symbol from plugin)
                                                  output\REVOLT\quopa.o (symbol from plugin)
                                                  output\REVOLT\learning.o (symbol from plugin)
                                                  output\REVOLT\imu.o (symbol from plugin)
                                                  output\REVOLT\flight_logger.o (symbol from plugin)
                                                  output\REVOLT\config.o (symbol from plugin)
boardOrientation1                                 output\REVOLT\flight.o (symbol from plugin)
boardSize                                         output\REVOLT\boarddef.o (symbol from plugin)
boostedIdlePulseValue                             output\REVOLT\actuator_output.o (symbol from plugin)
boostedPulseValueRange                            output\REVOLT\actuator_output.o (symbol from plugin)
bootCycles                                        C:\Users\PRESTO~1\AppData\Local\Temp\cc3x6Wri.ltrans4.ltrans.o
                                                  output\REVOLT\rfbl_functions.o (symbol from plugin)
                                                  C:\Users\PRESTO~1\AppData\Local\Temp\cc3x6Wri.ltrans3.ltrans.o
bootDirection                                     C:\Users\PRESTO~1\AppData\Local\Temp\cc3x6Wri.ltrans4.ltrans.o
                                                  output\REVOLT\rfbl_functions.o (symbol from plugin)
                                                  C:\Users\PRESTO~1\AppData\Local\Temp\cc3x6Wri.ltrans3.ltrans.o
buzzerStatus                                      C:\Users\PRESTO~1\AppData\Local\Temp\cc3x6Wri.ltrans4.ltrans.o
                                                  output\REVOLT\buzzer.o (symbol from plugin)
                                                  C:\Users\PRESTO~1\AppData\Local\Temp\cc3x6Wri.ltrans25.ltrans.o
                                                  C:\Users\PRESTO~1\AppData\Local\Temp\cc3x6Wri.ltrans17.ltrans.o
                                                  C:\Users\PRESTO~1\AppData\Local\Temp\cc3x6Wri.ltrans8.ltrans.o
                                                  C:\Users\PRESTO~1\AppData\Local\Temp\cc3x6Wri.ltrans3.ltrans.o
                                                  output\REVOLT\rx.o (symbol from plugin)
                                                  output\REVOLT\adc.o (symbol from plugin)
                                                  output\REVOLT\main.o (symbol from plugin)
calibrateMotors                                   C:\Users\PRESTO~1\AppData\Local\Temp\cc3x6Wri.ltrans29.ltrans.o
                                                  output\REVOLT\flight.o (symbol from plugin)
                                                  C:\Users\PRESTO~1\AppData\Local\Temp\cc3x6Wri.ltrans2.ltrans.o
                                                  C:\Users\PRESTO~1\AppData\Local\Temp\cc3x6Wri.ltrans1.ltrans.o
                                                  output\REVOLT\actuator_output.o (symbol from plugin)
                                                  output\REVOLT\wizard.o (symbol from plugin)
calibratePulseValue                               C:\Users\PRESTO~1\AppData\Local\Temp\cc3x6Wri.ltrans29.ltrans.o
                                                  output\REVOLT\actuator_output.o (symbol from plugin)
                                                  C:\Users\PRESTO~1\AppData\Local\Temp\cc3x6Wri.ltrans24.ltrans.o
calibrateWalledPulseValue                         C:\Users\PRESTO~1\AppData\Local\Temp\cc3x6Wri.ltrans29.ltrans.o
                                                  output\REVOLT\actuator_output.o (symbol from plugin)
                                                  C:\Users\PRESTO~1\AppData\Local\Temp\cc3x6Wri.ltrans24.ltrans.o
callbackFunctionArray                             C:\Users\PRESTO~1\AppData\Local\Temp\cc3x6Wri.ltrans11.ltrans.o
                                                  output\REVOLT\boarddef.o (symbol from plugin)
                                                  C:\Users\PRESTO~1\AppData\Local\Temp\cc3x6Wri.ltrans21.ltrans.o
                                                  C:\Users\PRESTO~1\AppData\Local\Temp\cc3x6Wri.ltrans14.ltrans.o
                                                  C:\Users\PRESTO~1\AppData\Local\Temp\cc3x6Wri.ltrans12.ltrans.o
                                                  C:\Users\PRESTO~1\AppData\Local\Temp\cc3x6Wri.ltrans6.ltrans.o
                                                  C:\Users\PRESTO~1\AppData\Local\Temp\cc3x6Wri.ltrans3.ltrans.o
                                                  C:\Users\PRESTO~1\AppData\Local\Temp\cc3x6Wri.ltrans2.ltrans.o
                                                  C:\Users\PRESTO~1\AppData\Local\Temp\cc3x6Wri.ltrans0.ltrans.o
                                                  output\REVOLT\spm_laptimer.o (symbol from plugin)
                                                  output\REVOLT\serial.o (symbol from plugin)
                                                  output\REVOLT\softSerial.o (symbol from plugin)
                                                  output\REVOLT\sPortTelemetry.o (symbol from plugin)
                                                  output\REVOLT\scheduler.o (symbol from plugin)
                                                  output\REVOLT\newSoftSerial.o (symbol from plugin)
                                                  output\REVOLT\stm32f4xx_it.o (symbol from plugin)
captureTime                                       output\REVOLT\spm_laptimer.o (symbol from plugin)
ccr                                               C:\Users\PRESTO~1\AppData\Local\Temp\cc3x6Wri.ltrans29.ltrans.o
                                                  output\REVOLT\boarddef.o (symbol from plugin)
                                                  C:\Users\PRESTO~1\AppData\Local\Temp\cc3x6Wri.ltrans26.ltrans.o
                                                  C:\Users\PRESTO~1\AppData\Local\Temp\cc3x6Wri.ltrans24.ltrans.o
                                                  C:\Users\PRESTO~1\AppData\Local\Temp\cc3x6Wri.ltrans3.ltrans.o
                                                  output\REVOLT\actuator_output.o (symbol from plugin)
ceil                                              c:/dev/gcc-arm-none-eabi/bin/../lib/gcc/arm-none-eabi/6.3.1/../../../../arm-none-eabi/lib/thumb/v7e-m/fpv4-sp/hard\libm.a(lib_a-s_ceil.o)
                                                  C:\Users\PRESTO~1\AppData\Local\Temp\cc3x6Wri.ltrans13.ltrans.o
cellCount                                         output\REVOLT\adc.o (symbol from plugin)
cfg1Version                                       C:\Users\PRESTO~1\AppData\Local\Temp\cc3x6Wri.ltrans4.ltrans.o
                                                  output\REVOLT\rfbl_functions.o (symbol from plugin)
                                                  C:\Users\PRESTO~1\AppData\Local\Temp\cc3x6Wri.ltrans3.ltrans.o
charMatrix                                        C:\Users\PRESTO~1\AppData\Local\Temp\cc3x6Wri.ltrans14.ltrans.o
                                                  output\REVOLT\sPortTelemetry.o (symbol from plugin)
                                                  C:\Users\PRESTO~1\AppData\Local\Temp\cc3x6Wri.ltrans22.ltrans.o
charmap                                           output\REVOLT\maxOsd.o (symbol from plugin)
checkRxData                                       output\REVOLT\wizard.o (symbol from plugin)
cleanup_glue                                      c:/dev/gcc-arm-none-eabi/bin/../lib/gcc/arm-none-eabi/6.3.1/../../../../arm-none-eabi/lib/thumb/v7e-m/fpv4-sp/hard\libc_nano.a(lib_a-reent.o)
colorChart                                        output\REVOLT\leds.o (symbol from plugin)
commandQuat                                       C:\Users\PRESTO~1\AppData\Local\Temp\cc3x6Wri.ltrans4.ltrans.o
                                                  output\REVOLT\imu.o (symbol from plugin)
                                                  C:\Users\PRESTO~1\AppData\Local\Temp\cc3x6Wri.ltrans2.ltrans.o
configSize                                        C:\Users\PRESTO~1\AppData\Local\Temp\cc3x6Wri.ltrans1.ltrans.o
                                                  output\REVOLT\config.o (symbol from plugin)
                                                  C:\Users\PRESTO~1\AppData\Local\Temp\cc3x6Wri.ltrans4.ltrans.o
                                                  C:\Users\PRESTO~1\AppData\Local\Temp\cc3x6Wri.ltrans3.ltrans.o
                                                  C:\Users\PRESTO~1\AppData\Local\Temp\cc3x6Wri.ltrans0.ltrans.o
                                                  output\REVOLT\flight_logger.o (symbol from plugin)
copiedBufferData                                  output\REVOLT\rx.o (symbol from plugin)
copysign                                          c:/dev/gcc-arm-none-eabi/bin/../lib/gcc/arm-none-eabi/6.3.1/../../../../arm-none-eabi/lib/thumb/v7e-m/fpv4-sp/hard\libm.a(lib_a-s_copysign.o)
                                                  c:/dev/gcc-arm-none-eabi/bin/../lib/gcc/arm-none-eabi/6.3.1/../../../../arm-none-eabi/lib/thumb/v7e-m/fpv4-sp/hard\libm.a(lib_a-s_scalbn.o)
copysignf                                         c:/dev/gcc-arm-none-eabi/bin/../lib/gcc/arm-none-eabi/6.3.1/../../../../arm-none-eabi/lib/thumb/v7e-m/fpv4-sp/hard\libm.a(lib_a-sf_copysign.o)
                                                  c:/dev/gcc-arm-none-eabi/bin/../lib/gcc/arm-none-eabi/6.3.1/../../../../arm-none-eabi/lib/thumb/v7e-m/fpv4-sp/hard\libm.a(lib_a-sf_scalbn.o)
cosf                                              c:/dev/gcc-arm-none-eabi/bin/../lib/gcc/arm-none-eabi/6.3.1/../../../../arm-none-eabi/lib/thumb/v7e-m/fpv4-sp/hard\libm.a(lib_a-sf_cos.o)
                                                  C:\Users\PRESTO~1\AppData\Local\Temp\cc3x6Wri.ltrans10.ltrans.o
                                                  C:\Users\PRESTO~1\AppData\Local\Temp\cc3x6Wri.ltrans2.ltrans.o
crc8tab                                           C:\Users\PRESTO~1\AppData\Local\Temp\cc3x6Wri.ltrans1.ltrans.o
                                                  output\REVOLT\crossfire.o (symbol from plugin)
                                                  C:\Users\PRESTO~1\AppData\Local\Temp\cc3x6Wri.ltrans15.ltrans.o
crc8tab.lto_priv.204.lto_priv.232                 C:\Users\PRESTO~1\AppData\Local\Temp\cc3x6Wri.ltrans1.ltrans.o
                                                  C:\Users\PRESTO~1\AppData\Local\Temp\cc3x6Wri.ltrans14.ltrans.o
                                                  C:\Users\PRESTO~1\AppData\Local\Temp\cc3x6Wri.ltrans6.ltrans.o
crsfOutBuffer                                     output\REVOLT\crossfire.o (symbol from plugin)
currDpsGyroArray                                  output\REVOLT\flight_logger.o (symbol from plugin)
currFilteredAccData                               C:\Users\PRESTO~1\AppData\Local\Temp\cc3x6Wri.ltrans4.ltrans.o
                                                  output\REVOLT\flight_logger.o (symbol from plugin)
                                                  C:\Users\PRESTO~1\AppData\Local\Temp\cc3x6Wri.ltrans2.ltrans.o
currFilteredGyroData                              C:\Users\PRESTO~1\AppData\Local\Temp\cc3x6Wri.ltrans4.ltrans.o
                                                  output\REVOLT\flight_logger.o (symbol from plugin)
                                                  C:\Users\PRESTO~1\AppData\Local\Temp\cc3x6Wri.ltrans2.ltrans.o
currFlightPids                                    C:\Users\PRESTO~1\AppData\Local\Temp\cc3x6Wri.ltrans4.ltrans.o
                                                  output\REVOLT\flight_logger.o (symbol from plugin)
                                                  C:\Users\PRESTO~1\AppData\Local\Temp\cc3x6Wri.ltrans2.ltrans.o
currFlightSetPoints                               C:\Users\PRESTO~1\AppData\Local\Temp\cc3x6Wri.ltrans4.ltrans.o
                                                  output\REVOLT\flight_logger.o (symbol from plugin)
                                                  C:\Users\PRESTO~1\AppData\Local\Temp\cc3x6Wri.ltrans2.ltrans.o
currIteration                                     output\REVOLT\flight_logger.o (symbol from plugin)
currKiTrim                                        output\REVOLT\flight_logger.o (symbol from plugin)
currMotorOutput                                   C:\Users\PRESTO~1\AppData\Local\Temp\cc3x6Wri.ltrans4.ltrans.o
                                                  output\REVOLT\flight_logger.o (symbol from plugin)
                                                  C:\Users\PRESTO~1\AppData\Local\Temp\cc3x6Wri.ltrans2.ltrans.o
currRcCommandF                                    C:\Users\PRESTO~1\AppData\Local\Temp\cc3x6Wri.ltrans4.ltrans.o
                                                  output\REVOLT\flight_logger.o (symbol from plugin)
                                                  C:\Users\PRESTO~1\AppData\Local\Temp\cc3x6Wri.ltrans2.ltrans.o
currThrottleVelocity                              output\REVOLT\flight_logger.o (symbol from plugin)
currTime                                          output\REVOLT\flight_logger.o (symbol from plugin)
currentSpinRate                                   output\REVOLT\imu.o (symbol from plugin)
currentTime                                       output\REVOLT\spm_laptimer.o (symbol from plugin)
curvedRcCommandF                                  C:\Users\PRESTO~1\AppData\Local\Temp\cc3x6Wri.ltrans4.ltrans.o
                                                  output\REVOLT\rx.o (symbol from plugin)
                                                  C:\Users\PRESTO~1\AppData\Local\Temp\cc3x6Wri.ltrans25.ltrans.o
                                                  C:\Users\PRESTO~1\AppData\Local\Temp\cc3x6Wri.ltrans2.ltrans.o
                                                  output\REVOLT\flight.o (symbol from plugin)
dataInc                                           output\REVOLT\spektrumTelemetry.o (symbol from plugin)
ddshot48To49                                      output\REVOLT\dmaShenanigans.o (symbol from plugin)
deadBatteryBuzzArray                              output\REVOLT\buzzer.o (symbol from plugin)
debugF                                            output\REVOLT\debug.o (symbol from plugin)
debugU32                                          output\REVOLT\debug.o (symbol from plugin)
delayUs                                           output\REVOLT\general_functions.o (symbol from plugin)
                                                  output\REVOLT\dshotTwoWay.o (symbol from plugin)
                                                  output\REVOLT\quopa.o (symbol from plugin)
                                                  output\REVOLT\config.o (symbol from plugin)
deviceWhoAmI                                      C:\Users\PRESTO~1\AppData\Local\Temp\cc3x6Wri.ltrans1.ltrans.o
                                                  output\REVOLT\invensense_mpu_icm_device.o (symbol from plugin)
                                                  C:\Users\PRESTO~1\AppData\Local\Temp\cc3x6Wri.ltrans23.ltrans.o
                                                  C:\Users\PRESTO~1\AppData\Local\Temp\cc3x6Wri.ltrans4.ltrans.o
                                                  C:\Users\PRESTO~1\AppData\Local\Temp\cc3x6Wri.ltrans2.ltrans.o
                                                  output\REVOLT\flight_logger.o (symbol from plugin)
                                                  output\REVOLT\flight.o (symbol from plugin)
                                                  output\REVOLT\config.o (symbol from plugin)
disarmCount                                       output\REVOLT\rx.o (symbol from plugin)
disarmPulseValue                                  C:\Users\PRESTO~1\AppData\Local\Temp\cc3x6Wri.ltrans29.ltrans.o
                                                  output\REVOLT\actuator_output.o (symbol from plugin)
                                                  C:\Users\PRESTO~1\AppData\Local\Temp\cc3x6Wri.ltrans26.ltrans.o
                                                  C:\Users\PRESTO~1\AppData\Local\Temp\cc3x6Wri.ltrans24.ltrans.o
disarmPulseValue3d                                C:\Users\PRESTO~1\AppData\Local\Temp\cc3x6Wri.ltrans29.ltrans.o
                                                  output\REVOLT\actuator_output.o (symbol from plugin)
                                                  C:\Users\PRESTO~1\AppData\Local\Temp\cc3x6Wri.ltrans26.ltrans.o
                                                  C:\Users\PRESTO~1\AppData\Local\Temp\cc3x6Wri.ltrans24.ltrans.o
dmaHandles                                        C:\Users\PRESTO~1\AppData\Local\Temp\cc3x6Wri.ltrans21.ltrans.o
                                                  output\REVOLT\boarddef.o (symbol from plugin)
                                                  C:\Users\PRESTO~1\AppData\Local\Temp\cc3x6Wri.ltrans30.ltrans.o
                                                  C:\Users\PRESTO~1\AppData\Local\Temp\cc3x6Wri.ltrans26.ltrans.o
                                                  C:\Users\PRESTO~1\AppData\Local\Temp\cc3x6Wri.ltrans23.ltrans.o
                                                  C:\Users\PRESTO~1\AppData\Local\Temp\cc3x6Wri.ltrans19.ltrans.o
                                                  C:\Users\PRESTO~1\AppData\Local\Temp\cc3x6Wri.ltrans16.ltrans.o
                                                  C:\Users\PRESTO~1\AppData\Local\Temp\cc3x6Wri.ltrans14.ltrans.o
                                                  C:\Users\PRESTO~1\AppData\Local\Temp\cc3x6Wri.ltrans12.ltrans.o
                                                  C:\Users\PRESTO~1\AppData\Local\Temp\cc3x6Wri.ltrans5.ltrans.o
                                                  C:\Users\PRESTO~1\AppData\Local\Temp\cc3x6Wri.ltrans2.ltrans.o
                                                  C:\Users\PRESTO~1\AppData\Local\Temp\cc3x6Wri.ltrans0.ltrans.o
                                                  output\REVOLT\serial.o (symbol from plugin)
                                                  output\REVOLT\invensense_bus_spi.o (symbol from plugin)
                                                  output\REVOLT\flash_chip.o (symbol from plugin)
                                                  output\REVOLT\dmaShenanigans.o (symbol from plugin)
                                                  output\REVOLT\maxOsd.o (symbol from plugin)
                                                  output\REVOLT\softSerial.o (symbol from plugin)
                                                  output\REVOLT\adc.o (symbol from plugin)
                                                  output\REVOLT\sPortTelemetry.o (symbol from plugin)
                                                  output\REVOLT\stm32f4xx_spi_msp.o (symbol from plugin)
                                                  output\REVOLT\stm32f4xx_it.o (symbol from plugin)
dmaIndex                                          output\REVOLT\serial.o (symbol from plugin)
dmaRxBuffer                                       C:\Users\PRESTO~1\AppData\Local\Temp\cc3x6Wri.ltrans21.ltrans.o
                                                  output\REVOLT\serial.o (symbol from plugin)
                                                  C:\Users\PRESTO~1\AppData\Local\Temp\cc3x6Wri.ltrans8.ltrans.o
dmaStream                                         C:\Users\PRESTO~1\AppData\Local\Temp\cc3x6Wri.ltrans21.ltrans.o
                                                  output\REVOLT\boarddef.o (symbol from plugin)
                                                  C:\Users\PRESTO~1\AppData\Local\Temp\cc3x6Wri.ltrans23.ltrans.o
                                                  C:\Users\PRESTO~1\AppData\Local\Temp\cc3x6Wri.ltrans16.ltrans.o
                                                  C:\Users\PRESTO~1\AppData\Local\Temp\cc3x6Wri.ltrans5.ltrans.o
                                                  C:\Users\PRESTO~1\AppData\Local\Temp\cc3x6Wri.ltrans3.ltrans.o
                                                  C:\Users\PRESTO~1\AppData\Local\Temp\cc3x6Wri.ltrans2.ltrans.o
                                                  output\REVOLT\serial.o (symbol from plugin)
                                                  output\REVOLT\dmaShenanigans.o (symbol from plugin)
                                                  output\REVOLT\adc.o (symbol from plugin)
                                                  output\REVOLT\stm32f4xx_spi_msp.o (symbol from plugin)
dmaTxCallbackToUsartHandle                        output\REVOLT\serial.o (symbol from plugin)
doingAutoA                                        C:\Users\PRESTO~1\AppData\Local\Temp\cc3x6Wri.ltrans20.ltrans.o
                                                  output\REVOLT\esc_1wire.o (symbol from plugin)
                                                  C:\Users\PRESTO~1\AppData\Local\Temp\cc3x6Wri.ltrans7.ltrans.o
                                                  output\REVOLT\wizard.o (symbol from plugin)
dpsGyroArray                                      C:\Users\PRESTO~1\AppData\Local\Temp\cc3x6Wri.ltrans4.ltrans.o
                                                  output\REVOLT\gyro.o (symbol from plugin)
                                                  C:\Users\PRESTO~1\AppData\Local\Temp\cc3x6Wri.ltrans23.ltrans.o
dshotBeepState                                    C:\Users\PRESTO~1\AppData\Local\Temp\cc3x6Wri.ltrans9.ltrans.o
                                                  output\REVOLT\quopa.o (symbol from plugin)
                                                  C:\Users\PRESTO~1\AppData\Local\Temp\cc3x6Wri.ltrans3.ltrans.o
                                                  C:\Users\PRESTO~1\AppData\Local\Temp\cc3x6Wri.ltrans0.ltrans.o
                                                  output\REVOLT\flight.o (symbol from plugin)
dshotCommandHandler                               C:\Users\PRESTO~1\AppData\Local\Temp\cc3x6Wri.ltrans1.ltrans.o
                                                  output\REVOLT\dshotTwoWay.o (symbol from plugin)
                                                  C:\Users\PRESTO~1\AppData\Local\Temp\cc3x6Wri.ltrans3.ltrans.o
                                                  C:\Users\PRESTO~1\AppData\Local\Temp\cc3x6Wri.ltrans0.ltrans.o
                                                  output\REVOLT\scheduler.o (symbol from plugin)
                                                  output\REVOLT\flight.o (symbol from plugin)
                                                  output\REVOLT\config.o (symbol from plugin)
dshotInBuffer                                     output\REVOLT\dshotTwoWay.o (symbol from plugin)
dshotOutBuffer                                    output\REVOLT\dshotTwoWay.o (symbol from plugin)
dshotTimer                                        output\REVOLT\dshotTwoWay.o (symbol from plugin)
end                                               c:/dev/gcc-arm-none-eabi/bin/../lib/gcc/arm-none-eabi/6.3.1/../../../../arm-none-eabi/lib/thumb/v7e-m/fpv4-sp/hard\libnosys.a(sbrk.o)
endPulseWidth                                     C:\Users\PRESTO~1\AppData\Local\Temp\cc3x6Wri.ltrans27.ltrans.o
                                                  output\REVOLT\dmaShenanigans.o (symbol from plugin)
                                                  C:\Users\PRESTO~1\AppData\Local\Temp\cc3x6Wri.ltrans24.ltrans.o
                                                  C:\Users\PRESTO~1\AppData\Local\Temp\cc3x6Wri.ltrans22.ltrans.o
                                                  C:\Users\PRESTO~1\AppData\Local\Temp\cc3x6Wri.ltrans14.ltrans.o
                                                  C:\Users\PRESTO~1\AppData\Local\Temp\cc3x6Wri.ltrans13.ltrans.o
                                                  C:\Users\PRESTO~1\AppData\Local\Temp\cc3x6Wri.ltrans12.ltrans.o
                                                  C:\Users\PRESTO~1\AppData\Local\Temp\cc3x6Wri.ltrans7.ltrans.o
                                                  C:\Users\PRESTO~1\AppData\Local\Temp\cc3x6Wri.ltrans3.ltrans.o
eraseRfbl                                         output\REVOLT\rfbl_functions.o (symbol from plugin)
errno                                             c:/dev/gcc-arm-none-eabi/bin/../lib/gcc/arm-none-eabi/6.3.1/../../../../arm-none-eabi/lib/thumb/v7e-m/fpv4-sp/hard\libc_nano.a(lib_a-reent.o)
                                                  c:/dev/gcc-arm-none-eabi/bin/../lib/gcc/arm-none-eabi/6.3.1/../../../../arm-none-eabi/lib/thumb/v7e-m/fpv4-sp/hard\libc_nano.a(lib_a-sbrkr.o)
errorBodyVector                                   C:\Users\PRESTO~1\AppData\Local\Temp\cc3x6Wri.ltrans19.ltrans.o
                                                  output\REVOLT\imu.o (symbol from plugin)
                                                  C:\Users\PRESTO~1\AppData\Local\Temp\cc3x6Wri.ltrans2.ltrans.o
errorBuzzArray                                    output\REVOLT\buzzer.o (symbol from plugin)
errorMask                                         C:\Users\PRESTO~1\AppData\Local\Temp\cc3x6Wri.ltrans1.ltrans.o
                                                  output\REVOLT\scheduler.o (symbol from plugin)
                                                  C:\Users\PRESTO~1\AppData\Local\Temp\cc3x6Wri.ltrans26.ltrans.o
                                                  C:\Users\PRESTO~1\AppData\Local\Temp\cc3x6Wri.ltrans4.ltrans.o
                                                  output\REVOLT\flight_logger.o (symbol from plugin)
                                                  output\REVOLT\config.o (symbol from plugin)
errorQuat                                         output\REVOLT\imu.o (symbol from plugin)
errorWorldVector                                  C:\Users\PRESTO~1\AppData\Local\Temp\cc3x6Wri.ltrans19.ltrans.o
                                                  output\REVOLT\imu.o (symbol from plugin)
                                                  C:\Users\PRESTO~1\AppData\Local\Temp\cc3x6Wri.ltrans2.ltrans.o
escHexByPosition                                  output\REVOLT\esc_1wire.o (symbol from plugin)
                                                  output\REVOLT\wizard.o (symbol from plugin)
escOneWireStatus                                  C:\Users\PRESTO~1\AppData\Local\Temp\cc3x6Wri.ltrans16.ltrans.o
                                                  output\REVOLT\esc_1wire.o (symbol from plugin)
                                                  C:\Users\PRESTO~1\AppData\Local\Temp\cc3x6Wri.ltrans20.ltrans.o
                                                  C:\Users\PRESTO~1\AppData\Local\Temp\cc3x6Wri.ltrans7.ltrans.o
                                                  output\REVOLT\wizard.o (symbol from plugin)
expectedPacketCount                               output\REVOLT\sPortTelemetry.o (symbol from plugin)
expectedPacketOutCount                            output\REVOLT\sPortTelemetry.o (symbol from plugin)
fabs                                              c:/dev/gcc-arm-none-eabi/bin/../lib/gcc/arm-none-eabi/6.3.1/../../../../arm-none-eabi/lib/thumb/v7e-m/fpv4-sp/hard\libm.a(lib_a-s_fabs.o)
                                                  c:/dev/gcc-arm-none-eabi/bin/../lib/gcc/arm-none-eabi/6.3.1/../../../../arm-none-eabi/lib/thumb/v7e-m/fpv4-sp/hard\libm.a(lib_a-e_pow.o)
fabsf                                             c:/dev/gcc-arm-none-eabi/bin/../lib/gcc/arm-none-eabi/6.3.1/../../../../arm-none-eabi/lib/thumb/v7e-m/fpv4-sp/hard\libm.a(lib_a-sf_fabs.o)
                                                  c:/dev/gcc-arm-none-eabi/bin/../lib/gcc/arm-none-eabi/6.3.1/../../../../arm-none-eabi/lib/thumb/v7e-m/fpv4-sp/hard\libm.a(lib_a-ef_rem_pio2.o)
failsafeBuzzArray                                 output\REVOLT\buzzer.o (symbol from plugin)
failsafeHappend                                   C:\Users\PRESTO~1\AppData\Local\Temp\cc3x6Wri.ltrans1.ltrans.o
                                                  output\REVOLT\rx.o (symbol from plugin)
                                                  C:\Users\PRESTO~1\AppData\Local\Temp\cc3x6Wri.ltrans4.ltrans.o
                                                  C:\Users\PRESTO~1\AppData\Local\Temp\cc3x6Wri.ltrans3.ltrans.o
                                                  C:\Users\PRESTO~1\AppData\Local\Temp\cc3x6Wri.ltrans2.ltrans.o
                                                  output\REVOLT\flight_logger.o (symbol from plugin)
                                                  output\REVOLT\config.o (symbol from plugin)
fallingEdges                                      output\REVOLT\spm_laptimer.o (symbol from plugin)
filteredAccData                                   C:\Users\PRESTO~1\AppData\Local\Temp\cc3x6Wri.ltrans1.ltrans.o
                                                  output\REVOLT\flight.o (symbol from plugin)
                                                  C:\Users\PRESTO~1\AppData\Local\Temp\cc3x6Wri.ltrans23.ltrans.o
                                                  C:\Users\PRESTO~1\AppData\Local\Temp\cc3x6Wri.ltrans4.ltrans.o
                                                  output\REVOLT\config.o (symbol from plugin)
filteredGyroData                                  C:\Users\PRESTO~1\AppData\Local\Temp\cc3x6Wri.ltrans1.ltrans.o
                                                  output\REVOLT\flight.o (symbol from plugin)
                                                  C:\Users\PRESTO~1\AppData\Local\Temp\cc3x6Wri.ltrans4.ltrans.o
                                                  C:\Users\PRESTO~1\AppData\Local\Temp\cc3x6Wri.ltrans3.ltrans.o
                                                  C:\Users\PRESTO~1\AppData\Local\Temp\cc3x6Wri.ltrans2.ltrans.o
                                                  output\REVOLT\leds.o (symbol from plugin)
                                                  output\REVOLT\config.o (symbol from plugin)
finite                                            c:/dev/gcc-arm-none-eabi/bin/../lib/gcc/arm-none-eabi/6.3.1/../../../../arm-none-eabi/lib/thumb/v7e-m/fpv4-sp/hard\libm.a(lib_a-s_finite.o)
                                                  c:/dev/gcc-arm-none-eabi/bin/../lib/gcc/arm-none-eabi/6.3.1/../../../../arm-none-eabi/lib/thumb/v7e-m/fpv4-sp/hard\libm.a(lib_a-w_pow.o)
firstLogging                                      C:\Users\PRESTO~1\AppData\Local\Temp\cc3x6Wri.ltrans4.ltrans.o
                                                  output\REVOLT\flight_logger.o (symbol from plugin)
                                                  C:\Users\PRESTO~1\AppData\Local\Temp\cc3x6Wri.ltrans2.ltrans.o
flagBitshiftOffset.9597.lto_priv.225              C:\Users\PRESTO~1\AppData\Local\Temp\cc3x6Wri.ltrans21.ltrans.o
                                                  C:\Users\PRESTO~1\AppData\Local\Temp\cc3x6Wri.ltrans23.ltrans.o
                                                  C:\Users\PRESTO~1\AppData\Local\Temp\cc3x6Wri.ltrans17.ltrans.o
                                                  C:\Users\PRESTO~1\AppData\Local\Temp\cc3x6Wri.ltrans16.ltrans.o
                                                  C:\Users\PRESTO~1\AppData\Local\Temp\cc3x6Wri.ltrans7.ltrans.o
                                                  C:\Users\PRESTO~1\AppData\Local\Temp\cc3x6Wri.ltrans5.ltrans.o
flashAlign                                        output\REVOLT\flight_logger.o (symbol from plugin)
flashCountdownFake                                C:\Users\PRESTO~1\AppData\Local\Temp\cc3x6Wri.ltrans4.ltrans.o
                                                  output\REVOLT\flight_logger.o (symbol from plugin)
                                                  C:\Users\PRESTO~1\AppData\Local\Temp\cc3x6Wri.ltrans2.ltrans.o
flashInfo                                         C:\Users\PRESTO~1\AppData\Local\Temp\cc3x6Wri.ltrans13.ltrans.o
                                                  output\REVOLT\flash_chip.o (symbol from plugin)
                                                  C:\Users\PRESTO~1\AppData\Local\Temp\cc3x6Wri.ltrans30.ltrans.o
                                                  C:\Users\PRESTO~1\AppData\Local\Temp\cc3x6Wri.ltrans23.ltrans.o
                                                  C:\Users\PRESTO~1\AppData\Local\Temp\cc3x6Wri.ltrans19.ltrans.o
                                                  C:\Users\PRESTO~1\AppData\Local\Temp\cc3x6Wri.ltrans18.ltrans.o
                                                  C:\Users\PRESTO~1\AppData\Local\Temp\cc3x6Wri.ltrans17.ltrans.o
                                                  C:\Users\PRESTO~1\AppData\Local\Temp\cc3x6Wri.ltrans4.ltrans.o
                                                  C:\Users\PRESTO~1\AppData\Local\Temp\cc3x6Wri.ltrans2.ltrans.o
                                                  C:\Users\PRESTO~1\AppData\Local\Temp\cc3x6Wri.ltrans1.ltrans.o
                                                  C:\Users\PRESTO~1\AppData\Local\Temp\cc3x6Wri.ltrans0.ltrans.o
                                                  output\REVOLT\flight_logger.o (symbol from plugin)
                                                  output\REVOLT\config.o (symbol from plugin)
flashRxBuffer                                     output\REVOLT\flash_chip.o (symbol from plugin)
flashTxBuffer                                     output\REVOLT\flash_chip.o (symbol from plugin)
flashWriteAddress                                 output\REVOLT\flash_chip.o (symbol from plugin)
flashWriteInProgress                              output\REVOLT\flash_chip.o (symbol from plugin)
flightLog                                         output\REVOLT\spm_laptimer.o (symbol from plugin)
                                                  output\REVOLT\serial.o (symbol from plugin)
                                                  output\REVOLT\rx.o (symbol from plugin)
                                                  output\REVOLT\invensense_bus_spi.o (symbol from plugin)
                                                  output\REVOLT\invensense_mpu_icm_device.o (symbol from plugin)
                                                  output\REVOLT\flash_chip.o (symbol from plugin)
                                                  output\REVOLT\buzzer.o (symbol from plugin)
                                                  output\REVOLT\actuator_output.o (symbol from plugin)
                                                  output\REVOLT\dmaShenanigans.o (symbol from plugin)
                                                  output\REVOLT\softPwm.o (symbol from plugin)
                                                  output\REVOLT\leds.o (symbol from plugin)
                                                  output\REVOLT\esc_1wire.o (symbol from plugin)
                                                  output\REVOLT\maxOsd.o (symbol from plugin)
                                                  output\REVOLT\softSerial.o (symbol from plugin)
                                                  output\REVOLT\transponder.o (symbol from plugin)
                                                  output\REVOLT\adc.o (symbol from plugin)
                                                  output\REVOLT\usbd_desc.o (symbol from plugin)
                                                  output\REVOLT\gyro.o (symbol from plugin)
                                                  output\REVOLT\trampTelemetry.o (symbol from plugin)
                                                  output\REVOLT\telemetry.o (symbol from plugin)
                                                  output\REVOLT\sPortTelemetry.o (symbol from plugin)
                                                  output\REVOLT\spektrumTelemetry.o (symbol from plugin)
                                                  output\REVOLT\smartAudio.o (symbol from plugin)
                                                  output\REVOLT\rfVtx.o (symbol from plugin)
                                                  output\REVOLT\rfosdTelemetry.o (symbol from plugin)
                                                  output\REVOLT\mspTelemetry.o (symbol from plugin)
                                                  output\REVOLT\dshotTwoWay.o (symbol from plugin)
                                                  output\REVOLT\crossfire.o (symbol from plugin)
                                                  output\REVOLT\wizard.o (symbol from plugin)
                                                  output\REVOLT\watchdog.o (symbol from plugin)
                                                  output\REVOLT\scheduler.o (symbol from plugin)
                                                  output\REVOLT\rf_math.o (symbol from plugin)
                                                  output\REVOLT\rfbl_functions.o (symbol from plugin)
                                                  output\REVOLT\quopa.o (symbol from plugin)
                                                  output\REVOLT\pid.o (symbol from plugin)
                                                  output\REVOLT\newSoftSerial.o (symbol from plugin)
                                                  output\REVOLT\modes.o (symbol from plugin)
                                                  output\REVOLT\mixer.o (symbol from plugin)
                                                  output\REVOLT\main.o (symbol from plugin)
                                                  output\REVOLT\learning.o (symbol from plugin)
                                                  output\REVOLT\imu.o (symbol from plugin)
                                                  output\REVOLT\flight_logger.o (symbol from plugin)
                                                  output\REVOLT\flight.o (symbol from plugin)
                                                  output\REVOLT\filter.o (symbol from plugin)
                                                  output\REVOLT\exti.o (symbol from plugin)
                                                  output\REVOLT\debug.o (symbol from plugin)
                                                  output\REVOLT\config.o (symbol from plugin)
                                                  output\REVOLT\stm32f4xx_spi_msp.o (symbol from plugin)
                                                  output\REVOLT\stm32f4xx_it.o (symbol from plugin)
                                                  output\REVOLT\stm32f4xx_hal_tim_msp.o (symbol from plugin)
                                                  output\REVOLT\stm32f4.o (symbol from plugin)
                                                  output\REVOLT\flash.o (symbol from plugin)
                                                  output\REVOLT\boarddef.o (symbol from plugin)
                                                  output\REVOLT\general_functions.o (symbol from plugin)
flightPids                                        C:\Users\PRESTO~1\AppData\Local\Temp\cc3x6Wri.ltrans4.ltrans.o
                                                  output\REVOLT\flight.o (symbol from plugin)
                                                  C:\Users\PRESTO~1\AppData\Local\Temp\cc3x6Wri.ltrans2.ltrans.o
flightSetPoints                                   output\REVOLT\flight.o (symbol from plugin)
flightcodeTime                                    output\REVOLT\flight.o (symbol from plugin)
floorf                                            c:/dev/gcc-arm-none-eabi/bin/../lib/gcc/arm-none-eabi/6.3.1/../../../../arm-none-eabi/lib/thumb/v7e-m/fpv4-sp/hard\libm.a(lib_a-sf_floor.o)
                                                  c:/dev/gcc-arm-none-eabi/bin/../lib/gcc/arm-none-eabi/6.3.1/../../../../arm-none-eabi/lib/thumb/v7e-m/fpv4-sp/hard\libm.a(lib_a-kf_rem_pio2.o)
free                                              c:/dev/gcc-arm-none-eabi/bin/../lib/gcc/arm-none-eabi/6.3.1/../../../../arm-none-eabi/lib/thumb/v7e-m/fpv4-sp/hard\libc_nano.a(lib_a-malloc.o)
                                                  C:\Users\PRESTO~1\AppData\Local\Temp\cc3x6Wri.ltrans10.ltrans.o
ftoa                                              output\REVOLT\config.o (symbol from plugin)
ftoa6                                             output\REVOLT\config.o (symbol from plugin)
fullKiLatched                                     C:\Users\PRESTO~1\AppData\Local\Temp\cc3x6Wri.ltrans4.ltrans.o
                                                  output\REVOLT\flight.o (symbol from plugin)
                                                  C:\Users\PRESTO~1\AppData\Local\Temp\cc3x6Wri.ltrans2.ltrans.o
                                                  output\REVOLT\pid.o (symbol from plugin)
                                                  output\REVOLT\learning.o (symbol from plugin)
fullVoltage                                       output\REVOLT\adc.o (symbol from plugin)
                                                  output\REVOLT\leds.o (symbol from plugin)
g_pfnVectors                                      output\REVOLT\startup_stm32f405xx.o
geeForceAccArray                                  C:\Users\PRESTO~1\AppData\Local\Temp\cc3x6Wri.ltrans1.ltrans.o
                                                  output\REVOLT\gyro.o (symbol from plugin)
                                                  C:\Users\PRESTO~1\AppData\Local\Temp\cc3x6Wri.ltrans23.ltrans.o
                                                  C:\Users\PRESTO~1\AppData\Local\Temp\cc3x6Wri.ltrans4.ltrans.o
                                                  output\REVOLT\wizard.o (symbol from plugin)
                                                  output\REVOLT\flight.o (symbol from plugin)
                                                  output\REVOLT\config.o (symbol from plugin)
geeForceZ                                         C:\Users\PRESTO~1\AppData\Local\Temp\cc3x6Wri.ltrans4.ltrans.o
                                                  output\REVOLT\flight.o (symbol from plugin)
                                                  C:\Users\PRESTO~1\AppData\Local\Temp\cc3x6Wri.ltrans2.ltrans.o
                                                  output\REVOLT\learning.o (symbol from plugin)
geeForceZFilter                                   C:\Users\PRESTO~1\AppData\Local\Temp\cc3x6Wri.ltrans4.ltrans.o
                                                  output\REVOLT\flight.o (symbol from plugin)
                                                  C:\Users\PRESTO~1\AppData\Local\Temp\cc3x6Wri.ltrans2.ltrans.o
gpioStatus                                        output\REVOLT\spm_laptimer.o (symbol from plugin)
greenTemp                                         C:\Users\PRESTO~1\AppData\Local\Temp\cc3x6Wri.ltrans16.ltrans.o
                                                  output\REVOLT\leds.o (symbol from plugin)
                                                  C:\Users\PRESTO~1\AppData\Local\Temp\cc3x6Wri.ltrans3.ltrans.o
gyroCalibrationCycles                             C:\Users\PRESTO~1\AppData\Local\Temp\cc3x6Wri.ltrans1.ltrans.o
                                                  output\REVOLT\gyro.o (symbol from plugin)
                                                  C:\Users\PRESTO~1\AppData\Local\Temp\cc3x6Wri.ltrans25.ltrans.o
                                                  C:\Users\PRESTO~1\AppData\Local\Temp\cc3x6Wri.ltrans23.ltrans.o
                                                  C:\Users\PRESTO~1\AppData\Local\Temp\cc3x6Wri.ltrans4.ltrans.o
                                                  output\REVOLT\flight.o (symbol from plugin)
gyroConfig                                        C:\Users\PRESTO~1\AppData\Local\Temp\cc3x6Wri.ltrans23.ltrans.o
                                                  output\REVOLT\invensense_mpu_icm_device.o (symbol from plugin)
                                                  C:\Users\PRESTO~1\AppData\Local\Temp\cc3x6Wri.ltrans26.ltrans.o
                                                  C:\Users\PRESTO~1\AppData\Local\Temp\cc3x6Wri.ltrans2.ltrans.o
                                                  output\REVOLT\invensense_bus_spi.o (symbol from plugin)
gyroFiltUsed                                      output\REVOLT\flight.o (symbol from plugin)
gyroFlightLoopCounter                             output\REVOLT\flight.o (symbol from plugin)
gyroInterrupting                                  C:\Users\PRESTO~1\AppData\Local\Temp\cc3x6Wri.ltrans23.ltrans.o
                                                  output\REVOLT\invensense_bus_spi.o (symbol from plugin)
                                                  C:\Users\PRESTO~1\AppData\Local\Temp\cc3x6Wri.ltrans26.ltrans.o
                                                  C:\Users\PRESTO~1\AppData\Local\Temp\cc3x6Wri.ltrans6.ltrans.o
                                                  C:\Users\PRESTO~1\AppData\Local\Temp\cc3x6Wri.ltrans2.ltrans.o
                                                  output\REVOLT\scheduler.o (symbol from plugin)
gyroLoopCounter.16317.lto_priv.243                C:\Users\PRESTO~1\AppData\Local\Temp\cc3x6Wri.ltrans23.ltrans.o
                                                  C:\Users\PRESTO~1\AppData\Local\Temp\cc3x6Wri.ltrans26.ltrans.o
gyroQuat                                          C:\Users\PRESTO~1\AppData\Local\Temp\cc3x6Wri.ltrans19.ltrans.o
                                                  output\REVOLT\imu.o (symbol from plugin)
                                                  C:\Users\PRESTO~1\AppData\Local\Temp\cc3x6Wri.ltrans2.ltrans.o
gyroRxFrame.lto_priv.246                          C:\Users\PRESTO~1\AppData\Local\Temp\cc3x6Wri.ltrans23.ltrans.o
                                                  C:\Users\PRESTO~1\AppData\Local\Temp\cc3x6Wri.ltrans26.ltrans.o
gyroSum.lto_priv.219                              C:\Users\PRESTO~1\AppData\Local\Temp\cc3x6Wri.ltrans1.ltrans.o
                                                  C:\Users\PRESTO~1\AppData\Local\Temp\cc3x6Wri.ltrans25.ltrans.o
                                                  C:\Users\PRESTO~1\AppData\Local\Temp\cc3x6Wri.ltrans23.ltrans.o
gyroTxFrame.lto_priv.244                          C:\Users\PRESTO~1\AppData\Local\Temp\cc3x6Wri.ltrans23.ltrans.o
                                                  C:\Users\PRESTO~1\AppData\Local\Temp\cc3x6Wri.ltrans26.ltrans.o
gyroVector                                        C:\Users\PRESTO~1\AppData\Local\Temp\cc3x6Wri.ltrans19.ltrans.o
                                                  output\REVOLT\imu.o (symbol from plugin)
                                                  C:\Users\PRESTO~1\AppData\Local\Temp\cc3x6Wri.ltrans2.ltrans.o
hUsbDeviceFS                                      C:\Users\PRESTO~1\AppData\Local\Temp\cc3x6Wri.ltrans1.ltrans.o
                                                  output\REVOLT\usb_device.o (symbol from plugin)
                                                  C:\Users\PRESTO~1\AppData\Local\Temp\cc3x6Wri.ltrans3.ltrans.o
                                                  C:\Users\PRESTO~1\AppData\Local\Temp\cc3x6Wri.ltrans0.ltrans.o
                                                  output\REVOLT\config.o (symbol from plugin)
headerToWrite                                     output\REVOLT\config.o (symbol from plugin)
                                                  output\REVOLT\flight_logger.o (symbol from plugin)
headerWritten                                     output\REVOLT\config.o (symbol from plugin)
                                                  output\REVOLT\flight_logger.o (symbol from plugin)
hits                                              output\REVOLT\spm_laptimer.o (symbol from plugin)
hpcd_USB_OTG_FS                                   C:\Users\PRESTO~1\AppData\Local\Temp\cc3x6Wri.ltrans28.ltrans.o
                                                  output\REVOLT\usbd_conf.o (symbol from plugin)
                                                  C:\Users\PRESTO~1\AppData\Local\Temp\cc3x6Wri.ltrans12.ltrans.o
                                                  C:\Users\PRESTO~1\AppData\Local\Temp\cc3x6Wri.ltrans3.ltrans.o
                                                  C:\Users\PRESTO~1\AppData\Local\Temp\cc3x6Wri.ltrans0.ltrans.o
                                                  output\REVOLT\stm32f4xx_it.o (symbol from plugin)
hpfFilterStateAcc                                 output\REVOLT\flight.o (symbol from plugin)
idlePulseValue                                    C:\Users\PRESTO~1\AppData\Local\Temp\cc3x6Wri.ltrans29.ltrans.o
                                                  output\REVOLT\actuator_output.o (symbol from plugin)
                                                  C:\Users\PRESTO~1\AppData\Local\Temp\cc3x6Wri.ltrans24.ltrans.o
ignoreEcho                                        output\REVOLT\rx.o (symbol from plugin)
inertialFrameQuat                                 output\REVOLT\imu.o (symbol from plugin)
inlineDigitalHi                                   output\REVOLT\general_functions.o (symbol from plugin)
                                                  output\REVOLT\rx.o (symbol from plugin)
                                                  output\REVOLT\invensense_bus_spi.o (symbol from plugin)
                                                  output\REVOLT\flash_chip.o (symbol from plugin)
                                                  output\REVOLT\maxOsd.o (symbol from plugin)
                                                  output\REVOLT\newSoftSerial.o (symbol from plugin)
                                                  output\REVOLT\main.o (symbol from plugin)
                                                  output\REVOLT\debug.o (symbol from plugin)
inlineDigitalLo                                   output\REVOLT\general_functions.o (symbol from plugin)
                                                  output\REVOLT\rx.o (symbol from plugin)
                                                  output\REVOLT\invensense_bus_spi.o (symbol from plugin)
                                                  output\REVOLT\flash_chip.o (symbol from plugin)
                                                  output\REVOLT\maxOsd.o (symbol from plugin)
                                                  output\REVOLT\newSoftSerial.o (symbol from plugin)
                                                  output\REVOLT\debug.o (symbol from plugin)
inlineIsPinStatusHi                               output\REVOLT\general_functions.o (symbol from plugin)
                                                  output\REVOLT\flight.o (symbol from plugin)
inputChannelMapped                                output\REVOLT\wizard.o (symbol from plugin)
isRxDataNew                                       C:\Users\PRESTO~1\AppData\Local\Temp\cc3x6Wri.ltrans4.ltrans.o
                                                  output\REVOLT\rx.o (symbol from plugin)
                                                  C:\Users\PRESTO~1\AppData\Local\Temp\cc3x6Wri.ltrans25.ltrans.o
                                                  C:\Users\PRESTO~1\AppData\Local\Temp\cc3x6Wri.ltrans2.ltrans.o
itoa                                              c:/dev/gcc-arm-none-eabi/bin/../lib/gcc/arm-none-eabi/6.3.1/../../../../arm-none-eabi/lib/thumb/v7e-m/fpv4-sp/hard\libc_nano.a(lib_a-itoa.o)
                                                  C:\Users\PRESTO~1\AppData\Local\Temp\cc3x6Wri.ltrans22.ltrans.o
                                                  C:\Users\PRESTO~1\AppData\Local\Temp\cc3x6Wri.ltrans6.ltrans.o
                                                  output\REVOLT\sPortTelemetry.o (symbol from plugin)
                                                  output\REVOLT\spektrumTelemetry.o (symbol from plugin)
julian                                            C:\Users\PRESTO~1\AppData\Local\Temp\cc3x6Wri.ltrans1.ltrans.o
                                                  output\REVOLT\config.o (symbol from plugin)
                                                  C:\Users\PRESTO~1\AppData\Local\Temp\cc3x6Wri.ltrans30.ltrans.o
                                                  C:\Users\PRESTO~1\AppData\Local\Temp\cc3x6Wri.ltrans19.ltrans.o
                                                  output\REVOLT\flash_chip.o (symbol from plugin)
kdBqFilterState                                   C:\Users\PRESTO~1\AppData\Local\Temp\cc3x6Wri.ltrans4.ltrans.o
                                                  output\REVOLT\pid.o (symbol from plugin)
                                                  C:\Users\PRESTO~1\AppData\Local\Temp\cc3x6Wri.ltrans2.ltrans.o
kdDelta                                           C:\Users\PRESTO~1\AppData\Local\Temp\cc3x6Wri.ltrans4.ltrans.o
                                                  output\REVOLT\pid.o (symbol from plugin)
                                                  C:\Users\PRESTO~1\AppData\Local\Temp\cc3x6Wri.ltrans2.ltrans.o
kdFilter                                          output\REVOLT\pid.o (symbol from plugin)
kdRingBuffer                                      C:\Users\PRESTO~1\AppData\Local\Temp\cc3x6Wri.ltrans4.ltrans.o
                                                  output\REVOLT\pid.o (symbol from plugin)
                                                  C:\Users\PRESTO~1\AppData\Local\Temp\cc3x6Wri.ltrans2.ltrans.o
kdRingBufferPoint                                 C:\Users\PRESTO~1\AppData\Local\Temp\cc3x6Wri.ltrans4.ltrans.o
                                                  output\REVOLT\pid.o (symbol from plugin)
                                                  C:\Users\PRESTO~1\AppData\Local\Temp\cc3x6Wri.ltrans2.ltrans.o
kdRingBufferSum                                   C:\Users\PRESTO~1\AppData\Local\Temp\cc3x6Wri.ltrans4.ltrans.o
                                                  output\REVOLT\pid.o (symbol from plugin)
                                                  C:\Users\PRESTO~1\AppData\Local\Temp\cc3x6Wri.ltrans2.ltrans.o
khzLoopCounter                                    output\REVOLT\flight.o (symbol from plugin)
khzLoopCounterPhase                               output\REVOLT\flight.o (symbol from plugin)
kiError                                           output\REVOLT\pid.o (symbol from plugin)
kiErrorLimit                                      C:\Users\PRESTO~1\AppData\Local\Temp\cc3x6Wri.ltrans4.ltrans.o
                                                  output\REVOLT\pid.o (symbol from plugin)
                                                  C:\Users\PRESTO~1\AppData\Local\Temp\cc3x6Wri.ltrans2.ltrans.o
kiTrim                                            C:\Users\PRESTO~1\AppData\Local\Temp\cc3x6Wri.ltrans1.ltrans.o
                                                  output\REVOLT\pid.o (symbol from plugin)
                                                  C:\Users\PRESTO~1\AppData\Local\Temp\cc3x6Wri.ltrans4.ltrans.o
                                                  C:\Users\PRESTO~1\AppData\Local\Temp\cc3x6Wri.ltrans2.ltrans.o
                                                  output\REVOLT\mixer.o (symbol from plugin)
                                                  output\REVOLT\learning.o (symbol from plugin)
                                                  output\REVOLT\flight.o (symbol from plugin)
                                                  output\REVOLT\config.o (symbol from plugin)
kiTrimCounter                                     C:\Users\PRESTO~1\AppData\Local\Temp\cc3x6Wri.ltrans4.ltrans.o
                                                  output\REVOLT\learning.o (symbol from plugin)
                                                  C:\Users\PRESTO~1\AppData\Local\Temp\cc3x6Wri.ltrans2.ltrans.o
lapDelay                                          output\REVOLT\spm_laptimer.o (symbol from plugin)
lapState                                          output\REVOLT\spm_laptimer.o (symbol from plugin)
lap_timer                                         output\REVOLT\spm_laptimer.o (symbol from plugin)
                                                  output\REVOLT\spektrumTelemetry.o (symbol from plugin)
lastBitFound                                      output\REVOLT\scheduler.o (symbol from plugin)
lastDpsGyroArray                                  C:\Users\PRESTO~1\AppData\Local\Temp\cc3x6Wri.ltrans4.ltrans.o
                                                  output\REVOLT\flight_logger.o (symbol from plugin)
                                                  C:\Users\PRESTO~1\AppData\Local\Temp\cc3x6Wri.ltrans2.ltrans.o
lastFilteredAccData                               C:\Users\PRESTO~1\AppData\Local\Temp\cc3x6Wri.ltrans4.ltrans.o
                                                  output\REVOLT\flight_logger.o (symbol from plugin)
                                                  C:\Users\PRESTO~1\AppData\Local\Temp\cc3x6Wri.ltrans2.ltrans.o
lastFilteredGyroData                              C:\Users\PRESTO~1\AppData\Local\Temp\cc3x6Wri.ltrans4.ltrans.o
                                                  output\REVOLT\flight_logger.o (symbol from plugin)
                                                  C:\Users\PRESTO~1\AppData\Local\Temp\cc3x6Wri.ltrans2.ltrans.o
lastFlightPids                                    C:\Users\PRESTO~1\AppData\Local\Temp\cc3x6Wri.ltrans4.ltrans.o
                                                  output\REVOLT\flight_logger.o (symbol from plugin)
                                                  C:\Users\PRESTO~1\AppData\Local\Temp\cc3x6Wri.ltrans2.ltrans.o
lastFlightSetPoints                               C:\Users\PRESTO~1\AppData\Local\Temp\cc3x6Wri.ltrans4.ltrans.o
                                                  output\REVOLT\flight_logger.o (symbol from plugin)
                                                  C:\Users\PRESTO~1\AppData\Local\Temp\cc3x6Wri.ltrans2.ltrans.o
lastLEDMode                                       output\REVOLT\dmaShenanigans.o (symbol from plugin)
lastMotorOutput                                   C:\Users\PRESTO~1\AppData\Local\Temp\cc3x6Wri.ltrans4.ltrans.o
                                                  output\REVOLT\flight_logger.o (symbol from plugin)
                                                  C:\Users\PRESTO~1\AppData\Local\Temp\cc3x6Wri.ltrans2.ltrans.o
lastPitchAttitudeError                            output\REVOLT\flight.o (symbol from plugin)
lastProgramTime                                   output\REVOLT\flight_logger.o (symbol from plugin)
lastRXPacket                                      output\REVOLT\serial.o (symbol from plugin)
lastRollAttitudeError                             output\REVOLT\flight.o (symbol from plugin)
lastTimeLap                                       output\REVOLT\spm_laptimer.o (symbol from plugin)
lastTimeRun.16379.lto_priv.249                    C:\Users\PRESTO~1\AppData\Local\Temp\cc3x6Wri.ltrans20.ltrans.o
                                                  C:\Users\PRESTO~1\AppData\Local\Temp\cc3x6Wri.ltrans3.ltrans.o
lastTimeSent                                      C:\Users\PRESTO~1\AppData\Local\Temp\cc3x6Wri.ltrans22.ltrans.o
                                                  output\REVOLT\sPortTelemetry.o (symbol from plugin)
lastTimegate                                      output\REVOLT\spm_laptimer.o (symbol from plugin)
lastYawAttitudeError                              output\REVOLT\flight.o (symbol from plugin)
latchFirstArm                                     C:\Users\PRESTO~1\AppData\Local\Temp\cc3x6Wri.ltrans25.ltrans.o
                                                  output\REVOLT\rx.o (symbol from plugin)
                                                  C:\Users\PRESTO~1\AppData\Local\Temp\cc3x6Wri.ltrans3.ltrans.o
learnedKiModel                                    C:\Users\PRESTO~1\AppData\Local\Temp\cc3x6Wri.ltrans1.ltrans.o
                                                  output\REVOLT\learning.o (symbol from plugin)
                                                  C:\Users\PRESTO~1\AppData\Local\Temp\cc3x6Wri.ltrans4.ltrans.o
                                                  C:\Users\PRESTO~1\AppData\Local\Temp\cc3x6Wri.ltrans2.ltrans.o
                                                  C:\Users\PRESTO~1\AppData\Local\Temp\cc3x6Wri.ltrans0.ltrans.o
                                                  output\REVOLT\config.o (symbol from plugin)
ledArraySize                                      output\REVOLT\leds.o (symbol from plugin)
ledColor                                          output\REVOLT\dmaShenanigans.o (symbol from plugin)
ledStatus                                         C:\Users\PRESTO~1\AppData\Local\Temp\cc3x6Wri.ltrans4.ltrans.o
                                                  output\REVOLT\leds.o (symbol from plugin)
                                                  C:\Users\PRESTO~1\AppData\Local\Temp\cc3x6Wri.ltrans3.ltrans.o
                                                  output\REVOLT\main.o (symbol from plugin)
                                                  output\REVOLT\flight_logger.o (symbol from plugin)
                                                  output\REVOLT\flight.o (symbol from plugin)
loPulseWidth                                      C:\Users\PRESTO~1\AppData\Local\Temp\cc3x6Wri.ltrans27.ltrans.o
                                                  output\REVOLT\dmaShenanigans.o (symbol from plugin)
                                                  C:\Users\PRESTO~1\AppData\Local\Temp\cc3x6Wri.ltrans24.ltrans.o
                                                  C:\Users\PRESTO~1\AppData\Local\Temp\cc3x6Wri.ltrans22.ltrans.o
                                                  C:\Users\PRESTO~1\AppData\Local\Temp\cc3x6Wri.ltrans14.ltrans.o
                                                  C:\Users\PRESTO~1\AppData\Local\Temp\cc3x6Wri.ltrans13.ltrans.o
                                                  C:\Users\PRESTO~1\AppData\Local\Temp\cc3x6Wri.ltrans12.ltrans.o
                                                  C:\Users\PRESTO~1\AppData\Local\Temp\cc3x6Wri.ltrans7.ltrans.o
                                                  C:\Users\PRESTO~1\AppData\Local\Temp\cc3x6Wri.ltrans3.ltrans.o
localeconv                                        c:/dev/gcc-arm-none-eabi/bin/../lib/gcc/arm-none-eabi/6.3.1/../../../../arm-none-eabi/lib/thumb/v7e-m/fpv4-sp/hard\libc_nano.a(lib_a-localeconv.o)
logItteration                                     C:\Users\PRESTO~1\AppData\Local\Temp\cc3x6Wri.ltrans4.ltrans.o
                                                  output\REVOLT\flight_logger.o (symbol from plugin)
                                                  C:\Users\PRESTO~1\AppData\Local\Temp\cc3x6Wri.ltrans2.ltrans.o
logItterationCounter                              C:\Users\PRESTO~1\AppData\Local\Temp\cc3x6Wri.ltrans4.ltrans.o
                                                  output\REVOLT\flight_logger.o (symbol from plugin)
                                                  C:\Users\PRESTO~1\AppData\Local\Temp\cc3x6Wri.ltrans2.ltrans.o
logMe                                             C:\Users\PRESTO~1\AppData\Local\Temp\cc3x6Wri.ltrans1.ltrans.o
                                                  output\REVOLT\flight_logger.o (symbol from plugin)
                                                  C:\Users\PRESTO~1\AppData\Local\Temp\cc3x6Wri.ltrans4.ltrans.o
                                                  C:\Users\PRESTO~1\AppData\Local\Temp\cc3x6Wri.ltrans2.ltrans.o
                                                  output\REVOLT\config.o (symbol from plugin)
logStartMillis                                    C:\Users\PRESTO~1\AppData\Local\Temp\cc3x6Wri.ltrans4.ltrans.o
                                                  output\REVOLT\flight_logger.o (symbol from plugin)
logTime                                           C:\Users\PRESTO~1\AppData\Local\Temp\cc3x6Wri.ltrans4.ltrans.o
                                                  output\REVOLT\flight_logger.o (symbol from plugin)
                                                  C:\Users\PRESTO~1\AppData\Local\Temp\cc3x6Wri.ltrans2.ltrans.o
longMotorOutputBuffer                             C:\Users\PRESTO~1\AppData\Local\Temp\cc3x6Wri.ltrans27.ltrans.o
                                                  output\REVOLT\dmaShenanigans.o (symbol from plugin)
                                                  C:\Users\PRESTO~1\AppData\Local\Temp\cc3x6Wri.ltrans3.ltrans.o
loopSpeed                                         C:\Users\PRESTO~1\AppData\Local\Temp\cc3x6Wri.ltrans4.ltrans.o
                                                  output\REVOLT\flight.o (symbol from plugin)
                                                  C:\Users\PRESTO~1\AppData\Local\Temp\cc3x6Wri.ltrans19.ltrans.o
                                                  C:\Users\PRESTO~1\AppData\Local\Temp\cc3x6Wri.ltrans2.ltrans.o
                                                  output\REVOLT\rx.o (symbol from plugin)
                                                  output\REVOLT\pid.o (symbol from plugin)
                                                  output\REVOLT\imu.o (symbol from plugin)
                                                  output\REVOLT\filter.o (symbol from plugin)
lostBuzzArray                                     output\REVOLT\buzzer.o (symbol from plugin)
lowVoltage                                        output\REVOLT\adc.o (symbol from plugin)
                                                  output\REVOLT\leds.o (symbol from plugin)
lpfFilterState                                    C:\Users\PRESTO~1\AppData\Local\Temp\cc3x6Wri.ltrans4.ltrans.o
                                                  output\REVOLT\flight.o (symbol from plugin)
                                                  C:\Users\PRESTO~1\AppData\Local\Temp\cc3x6Wri.ltrans2.ltrans.o
lpfFilterStateAcc                                 output\REVOLT\flight.o (symbol from plugin)
lpfFilterStateKd                                  output\REVOLT\flight.o (symbol from plugin)
lrint                                             c:/dev/gcc-arm-none-eabi/bin/../lib/gcc/arm-none-eabi/6.3.1/../../../../arm-none-eabi/lib/thumb/v7e-m/fpv4-sp/hard\libm.a(lib_a-s_lrint.o)
                                                  C:\Users\PRESTO~1\AppData\Local\Temp\cc3x6Wri.ltrans22.ltrans.o
lrintf                                            c:/dev/gcc-arm-none-eabi/bin/../lib/gcc/arm-none-eabi/6.3.1/../../../../arm-none-eabi/lib/thumb/v7e-m/fpv4-sp/hard\libm.a(lib_a-sf_lrint.o)
                                                  C:\Users\PRESTO~1\AppData\Local\Temp\cc3x6Wri.ltrans29.ltrans.o
                                                  C:\Users\PRESTO~1\AppData\Local\Temp\cc3x6Wri.ltrans27.ltrans.o
                                                  C:\Users\PRESTO~1\AppData\Local\Temp\cc3x6Wri.ltrans25.ltrans.o
                                                  C:\Users\PRESTO~1\AppData\Local\Temp\cc3x6Wri.ltrans24.ltrans.o
                                                  C:\Users\PRESTO~1\AppData\Local\Temp\cc3x6Wri.ltrans19.ltrans.o
                                                  C:\Users\PRESTO~1\AppData\Local\Temp\cc3x6Wri.ltrans13.ltrans.o
                                                  C:\Users\PRESTO~1\AppData\Local\Temp\cc3x6Wri.ltrans10.ltrans.o
                                                  C:\Users\PRESTO~1\AppData\Local\Temp\cc3x6Wri.ltrans9.ltrans.o
                                                  C:\Users\PRESTO~1\AppData\Local\Temp\cc3x6Wri.ltrans4.ltrans.o
luaOutPacketOne                                   C:\Users\PRESTO~1\AppData\Local\Temp\cc3x6Wri.ltrans22.ltrans.o
                                                  output\REVOLT\sPortTelemetry.o (symbol from plugin)
                                                  C:\Users\PRESTO~1\AppData\Local\Temp\cc3x6Wri.ltrans3.ltrans.o
luaOutPacketTwo                                   C:\Users\PRESTO~1\AppData\Local\Temp\cc3x6Wri.ltrans22.ltrans.o
                                                  output\REVOLT\sPortTelemetry.o (symbol from plugin)
                                                  C:\Users\PRESTO~1\AppData\Local\Temp\cc3x6Wri.ltrans3.ltrans.o
luaPacketPendingTime                              output\REVOLT\sPortTelemetry.o (symbol from plugin)
main                                              C:\Users\PRESTO~1\AppData\Local\Temp\cc3x6Wri.ltrans3.ltrans.o
                                                  output\REVOLT\main.o (symbol from plugin)
                                                  output\REVOLT\startup_stm32f405xx.o
mainConfig                                        C:\Users\PRESTO~1\AppData\Local\Temp\cc3x6Wri.ltrans27.ltrans.o
                                                  output\REVOLT\config.o (symbol from plugin)
                                                  C:\Users\PRESTO~1\AppData\Local\Temp\cc3x6Wri.ltrans31.ltrans.o
                                                  C:\Users\PRESTO~1\AppData\Local\Temp\cc3x6Wri.ltrans29.ltrans.o
                                                  C:\Users\PRESTO~1\AppData\Local\Temp\cc3x6Wri.ltrans26.ltrans.o
                                                  C:\Users\PRESTO~1\AppData\Local\Temp\cc3x6Wri.ltrans25.ltrans.o
                                                  C:\Users\PRESTO~1\AppData\Local\Temp\cc3x6Wri.ltrans24.ltrans.o
                                                  C:\Users\PRESTO~1\AppData\Local\Temp\cc3x6Wri.ltrans22.ltrans.o
                                                  C:\Users\PRESTO~1\AppData\Local\Temp\cc3x6Wri.ltrans21.ltrans.o
                                                  C:\Users\PRESTO~1\AppData\Local\Temp\cc3x6Wri.ltrans16.ltrans.o
                                                  C:\Users\PRESTO~1\AppData\Local\Temp\cc3x6Wri.ltrans15.ltrans.o
                                                  C:\Users\PRESTO~1\AppData\Local\Temp\cc3x6Wri.ltrans14.ltrans.o
                                                  C:\Users\PRESTO~1\AppData\Local\Temp\cc3x6Wri.ltrans13.ltrans.o
                                                  C:\Users\PRESTO~1\AppData\Local\Temp\cc3x6Wri.ltrans10.ltrans.o
                                                  C:\Users\PRESTO~1\AppData\Local\Temp\cc3x6Wri.ltrans9.ltrans.o
                                                  C:\Users\PRESTO~1\AppData\Local\Temp\cc3x6Wri.ltrans8.ltrans.o
                                                  C:\Users\PRESTO~1\AppData\Local\Temp\cc3x6Wri.ltrans7.ltrans.o
                                                  C:\Users\PRESTO~1\AppData\Local\Temp\cc3x6Wri.ltrans6.ltrans.o
                                                  C:\Users\PRESTO~1\AppData\Local\Temp\cc3x6Wri.ltrans4.ltrans.o
                                                  C:\Users\PRESTO~1\AppData\Local\Temp\cc3x6Wri.ltrans3.ltrans.o
                                                  C:\Users\PRESTO~1\AppData\Local\Temp\cc3x6Wri.ltrans2.ltrans.o
                                                  C:\Users\PRESTO~1\AppData\Local\Temp\cc3x6Wri.ltrans1.ltrans.o
                                                  C:\Users\PRESTO~1\AppData\Local\Temp\cc3x6Wri.ltrans0.ltrans.o
                                                  output\REVOLT\serial.o (symbol from plugin)
                                                  output\REVOLT\rx.o (symbol from plugin)
                                                  output\REVOLT\actuator_output.o (symbol from plugin)
                                                  output\REVOLT\dmaShenanigans.o (symbol from plugin)
                                                  output\REVOLT\leds.o (symbol from plugin)
                                                  output\REVOLT\esc_1wire.o (symbol from plugin)
                                                  output\REVOLT\maxOsd.o (symbol from plugin)
                                                  output\REVOLT\adc.o (symbol from plugin)
                                                  output\REVOLT\gyro.o (symbol from plugin)
                                                  output\REVOLT\trampTelemetry.o (symbol from plugin)
                                                  output\REVOLT\telemetry.o (symbol from plugin)
                                                  output\REVOLT\sPortTelemetry.o (symbol from plugin)
                                                  output\REVOLT\spektrumTelemetry.o (symbol from plugin)
                                                  output\REVOLT\smartAudio.o (symbol from plugin)
                                                  output\REVOLT\rfosdTelemetry.o (symbol from plugin)
                                                  output\REVOLT\mspTelemetry.o (symbol from plugin)
                                                  output\REVOLT\dshotTwoWay.o (symbol from plugin)
                                                  output\REVOLT\crossfire.o (symbol from plugin)
                                                  output\REVOLT\wizard.o (symbol from plugin)
                                                  output\REVOLT\scheduler.o (symbol from plugin)
                                                  output\REVOLT\quopa.o (symbol from plugin)
                                                  output\REVOLT\pid.o (symbol from plugin)
                                                  output\REVOLT\modes.o (symbol from plugin)
                                                  output\REVOLT\mixer.o (symbol from plugin)
                                                  output\REVOLT\main.o (symbol from plugin)
                                                  output\REVOLT\learning.o (symbol from plugin)
                                                  output\REVOLT\flight_logger.o (symbol from plugin)
                                                  output\REVOLT\flight.o (symbol from plugin)
                                                  output\REVOLT\filter.o (symbol from plugin)
malloc                                            c:/dev/gcc-arm-none-eabi/bin/../lib/gcc/arm-none-eabi/6.3.1/../../../../arm-none-eabi/lib/thumb/v7e-m/fpv4-sp/hard\libc_nano.a(lib_a-malloc.o)
                                                  C:\Users\PRESTO~1\AppData\Local\Temp\cc3x6Wri.ltrans10.ltrans.o
                                                  c:/dev/gcc-arm-none-eabi/bin/../lib/gcc/arm-none-eabi/6.3.1/../../../../arm-none-eabi/lib/thumb/v7e-m/fpv4-sp/hard\libc_nano.a(lib_a-mprec.o)
                                                  c:/dev/gcc-arm-none-eabi/bin/../lib/gcc/arm-none-eabi/6.3.1/../../../../arm-none-eabi/lib/thumb/v7e-m/fpv4-sp/hard\libc_nano.a(lib_a-rand.o)
matherr                                           c:/dev/gcc-arm-none-eabi/bin/../lib/gcc/arm-none-eabi/6.3.1/../../../../arm-none-eabi/lib/thumb/v7e-m/fpv4-sp/hard\libm.a(lib_a-s_matherr.o)
                                                  c:/dev/gcc-arm-none-eabi/bin/../lib/gcc/arm-none-eabi/6.3.1/../../../../arm-none-eabi/lib/thumb/v7e-m/fpv4-sp/hard\libm.a(lib_a-wf_sqrt.o)
                                                  c:/dev/gcc-arm-none-eabi/bin/../lib/gcc/arm-none-eabi/6.3.1/../../../../arm-none-eabi/lib/thumb/v7e-m/fpv4-sp/hard\libm.a(lib_a-w_pow.o)
matrixFormed.lto_priv.274                         C:\Users\PRESTO~1\AppData\Local\Temp\cc3x6Wri.ltrans10.ltrans.o
                                                  C:\Users\PRESTO~1\AppData\Local\Temp\cc3x6Wri.ltrans2.ltrans.o
maxFlopRate                                       C:\Users\PRESTO~1\AppData\Local\Temp\cc3x6Wri.ltrans4.ltrans.o
                                                  output\REVOLT\rx.o (symbol from plugin)
                                                  C:\Users\PRESTO~1\AppData\Local\Temp\cc3x6Wri.ltrans25.ltrans.o
                                                  C:\Users\PRESTO~1\AppData\Local\Temp\cc3x6Wri.ltrans2.ltrans.o
                                                  output\REVOLT\flight.o (symbol from plugin)
maxKissRate                                       C:\Users\PRESTO~1\AppData\Local\Temp\cc3x6Wri.ltrans4.ltrans.o
                                                  output\REVOLT\rx.o (symbol from plugin)
                                                  C:\Users\PRESTO~1\AppData\Local\Temp\cc3x6Wri.ltrans25.ltrans.o
                                                  C:\Users\PRESTO~1\AppData\Local\Temp\cc3x6Wri.ltrans2.ltrans.o
                                                  output\REVOLT\flight.o (symbol from plugin)
maxOsdRecord                                      C:\Users\PRESTO~1\AppData\Local\Temp\cc3x6Wri.ltrans13.ltrans.o
                                                  output\REVOLT\maxOsd.o (symbol from plugin)
                                                  C:\Users\PRESTO~1\AppData\Local\Temp\cc3x6Wri.ltrans29.ltrans.o
                                                  C:\Users\PRESTO~1\AppData\Local\Temp\cc3x6Wri.ltrans20.ltrans.o
                                                  C:\Users\PRESTO~1\AppData\Local\Temp\cc3x6Wri.ltrans12.ltrans.o
                                                  C:\Users\PRESTO~1\AppData\Local\Temp\cc3x6Wri.ltrans3.ltrans.o
                                                  C:\Users\PRESTO~1\AppData\Local\Temp\cc3x6Wri.ltrans2.ltrans.o
                                                  C:\Users\PRESTO~1\AppData\Local\Temp\cc3x6Wri.ltrans1.ltrans.o
memchr                                            c:/dev/gcc-arm-none-eabi/bin/../lib/gcc/arm-none-eabi/6.3.1/../../../../arm-none-eabi/lib/thumb/v7e-m/fpv4-sp/hard\libc_nano.a(lib_a-memchr.o)
                                                  c:/dev/gcc-arm-none-eabi/bin/../lib/gcc/arm-none-eabi/6.3.1/../../../../arm-none-eabi/lib/thumb/v7e-m/fpv4-sp/hard\libc_nano.a(lib_a-nano-vfprintf_i.o)
                                                  c:/dev/gcc-arm-none-eabi/bin/../lib/gcc/arm-none-eabi/6.3.1/../../../../arm-none-eabi/lib/thumb/v7e-m/fpv4-sp/hard\libc_nano.a(lib_a-nano-svfprintf.o)
memcpy                                            c:/dev/gcc-arm-none-eabi/bin/../lib/gcc/arm-none-eabi/6.3.1/../../../../arm-none-eabi/lib/thumb/v7e-m/fpv4-sp/hard\libc_nano.a(lib_a-memcpy-stub.o)
                                                  c:/dev/gcc-arm-none-eabi/bin/../lib/gcc/arm-none-eabi/6.3.1/../../../../arm-none-eabi/lib/thumb/v7e-m/fpv4-sp/hard\libc_nano.a(lib_a-nano-reallocr.o)
                                                  c:/dev/gcc-arm-none-eabi/bin/../lib/gcc/arm-none-eabi/6.3.1/../../../../arm-none-eabi/lib/thumb/v7e-m/fpv4-sp/hard\libc_nano.a(lib_a-nano-svfprintf.o)
                                                  C:\Users\PRESTO~1\AppData\Local\Temp\cc3x6Wri.ltrans31.ltrans.o
                                                  C:\Users\PRESTO~1\AppData\Local\Temp\cc3x6Wri.ltrans29.ltrans.o
                                                  C:\Users\PRESTO~1\AppData\Local\Temp\cc3x6Wri.ltrans26.ltrans.o
                                                  C:\Users\PRESTO~1\AppData\Local\Temp\cc3x6Wri.ltrans24.ltrans.o
                                                  C:\Users\PRESTO~1\AppData\Local\Temp\cc3x6Wri.ltrans21.ltrans.o
                                                  C:\Users\PRESTO~1\AppData\Local\Temp\cc3x6Wri.ltrans20.ltrans.o
                                                  C:\Users\PRESTO~1\AppData\Local\Temp\cc3x6Wri.ltrans18.ltrans.o
                                                  C:\Users\PRESTO~1\AppData\Local\Temp\cc3x6Wri.ltrans17.ltrans.o
                                                  C:\Users\PRESTO~1\AppData\Local\Temp\cc3x6Wri.ltrans16.ltrans.o
                                                  C:\Users\PRESTO~1\AppData\Local\Temp\cc3x6Wri.ltrans15.ltrans.o
                                                  C:\Users\PRESTO~1\AppData\Local\Temp\cc3x6Wri.ltrans14.ltrans.o
                                                  C:\Users\PRESTO~1\AppData\Local\Temp\cc3x6Wri.ltrans13.ltrans.o
                                                  C:\Users\PRESTO~1\AppData\Local\Temp\cc3x6Wri.ltrans12.ltrans.o
                                                  C:\Users\PRESTO~1\AppData\Local\Temp\cc3x6Wri.ltrans9.ltrans.o
                                                  C:\Users\PRESTO~1\AppData\Local\Temp\cc3x6Wri.ltrans8.ltrans.o
                                                  C:\Users\PRESTO~1\AppData\Local\Temp\cc3x6Wri.ltrans7.ltrans.o
                                                  C:\Users\PRESTO~1\AppData\Local\Temp\cc3x6Wri.ltrans6.ltrans.o
                                                  C:\Users\PRESTO~1\AppData\Local\Temp\cc3x6Wri.ltrans4.ltrans.o
                                                  C:\Users\PRESTO~1\AppData\Local\Temp\cc3x6Wri.ltrans3.ltrans.o
                                                  C:\Users\PRESTO~1\AppData\Local\Temp\cc3x6Wri.ltrans2.ltrans.o
                                                  C:\Users\PRESTO~1\AppData\Local\Temp\cc3x6Wri.ltrans1.ltrans.o
                                                  C:\Users\PRESTO~1\AppData\Local\Temp\cc3x6Wri.ltrans0.ltrans.o
                                                  c:/dev/gcc-arm-none-eabi/bin/../lib/gcc/arm-none-eabi/6.3.1/../../../../arm-none-eabi/lib/thumb/v7e-m/fpv4-sp/hard\libc_nano.a(lib_a-mprec.o)
                                                  c:/dev/gcc-arm-none-eabi/bin/../lib/gcc/arm-none-eabi/6.3.1/../../../../arm-none-eabi/lib/thumb/v7e-m/fpv4-sp/hard\libc_nano.a(lib_a-gdtoa-gethex.o)
                                                  c:/dev/gcc-arm-none-eabi/bin/../lib/gcc/arm-none-eabi/6.3.1/../../../../arm-none-eabi/lib/thumb/v7e-m/fpv4-sp/hard\libc_nano.a(lib_a-strtod.o)
memmove                                           c:/dev/gcc-arm-none-eabi/bin/../lib/gcc/arm-none-eabi/6.3.1/../../../../arm-none-eabi/lib/thumb/v7e-m/fpv4-sp/hard\libc_nano.a(lib_a-memmove.o)
                                                  c:/dev/gcc-arm-none-eabi/bin/../lib/gcc/arm-none-eabi/6.3.1/../../../../arm-none-eabi/lib/thumb/v7e-m/fpv4-sp/hard\libc_nano.a(lib_a-nano-svfprintf.o)
memset                                            c:/dev/gcc-arm-none-eabi/bin/../lib/gcc/arm-none-eabi/6.3.1/../../../../arm-none-eabi/lib/thumb/v7e-m/fpv4-sp/hard\libc_nano.a(lib_a-memset.o)
                                                  C:\Users\PRESTO~1\AppData\Local\Temp\cc3x6Wri.ltrans31.ltrans.o
                                                  C:\Users\PRESTO~1\AppData\Local\Temp\cc3x6Wri.ltrans29.ltrans.o
                                                  C:\Users\PRESTO~1\AppData\Local\Temp\cc3x6Wri.ltrans26.ltrans.o
                                                  C:\Users\PRESTO~1\AppData\Local\Temp\cc3x6Wri.ltrans23.ltrans.o
                                                  C:\Users\PRESTO~1\AppData\Local\Temp\cc3x6Wri.ltrans22.ltrans.o
                                                  C:\Users\PRESTO~1\AppData\Local\Temp\cc3x6Wri.ltrans21.ltrans.o
                                                  C:\Users\PRESTO~1\AppData\Local\Temp\cc3x6Wri.ltrans20.ltrans.o
                                                  C:\Users\PRESTO~1\AppData\Local\Temp\cc3x6Wri.ltrans18.ltrans.o
                                                  C:\Users\PRESTO~1\AppData\Local\Temp\cc3x6Wri.ltrans17.ltrans.o
                                                  C:\Users\PRESTO~1\AppData\Local\Temp\cc3x6Wri.ltrans15.ltrans.o
                                                  C:\Users\PRESTO~1\AppData\Local\Temp\cc3x6Wri.ltrans14.ltrans.o
                                                  C:\Users\PRESTO~1\AppData\Local\Temp\cc3x6Wri.ltrans13.ltrans.o
                                                  C:\Users\PRESTO~1\AppData\Local\Temp\cc3x6Wri.ltrans12.ltrans.o
                                                  C:\Users\PRESTO~1\AppData\Local\Temp\cc3x6Wri.ltrans6.ltrans.o
                                                  C:\Users\PRESTO~1\AppData\Local\Temp\cc3x6Wri.ltrans3.ltrans.o
                                                  C:\Users\PRESTO~1\AppData\Local\Temp\cc3x6Wri.ltrans2.ltrans.o
                                                  C:\Users\PRESTO~1\AppData\Local\Temp\cc3x6Wri.ltrans1.ltrans.o
                                                  C:\Users\PRESTO~1\AppData\Local\Temp\cc3x6Wri.ltrans0.ltrans.o
                                                  c:/dev/gcc-arm-none-eabi/bin/../lib/gcc/arm-none-eabi/6.3.1/../../../../arm-none-eabi/lib/thumb/v7e-m/fpv4-sp/hard\libc_nano.a(lib_a-nano-callocr.o)
millisClock.lto_priv.201                          C:\Users\PRESTO~1\AppData\Local\Temp\cc3x6Wri.ltrans11.ltrans.o
                                                  C:\Users\PRESTO~1\AppData\Local\Temp\cc3x6Wri.ltrans25.ltrans.o
                                                  C:\Users\PRESTO~1\AppData\Local\Temp\cc3x6Wri.ltrans16.ltrans.o
                                                  C:\Users\PRESTO~1\AppData\Local\Temp\cc3x6Wri.ltrans14.ltrans.o
                                                  C:\Users\PRESTO~1\AppData\Local\Temp\cc3x6Wri.ltrans13.ltrans.o
                                                  C:\Users\PRESTO~1\AppData\Local\Temp\cc3x6Wri.ltrans12.ltrans.o
                                                  C:\Users\PRESTO~1\AppData\Local\Temp\cc3x6Wri.ltrans9.ltrans.o
                                                  C:\Users\PRESTO~1\AppData\Local\Temp\cc3x6Wri.ltrans0.ltrans.o
motorBeaconDelayList                              output\REVOLT\esc_1wire.o (symbol from plugin)
motorBeaconDelayParameter                         output\REVOLT\esc_1wire.o (symbol from plugin)
motorBeaconStrengthParameter                      output\REVOLT\esc_1wire.o (symbol from plugin)
motorBeaconStrengthValues                         output\REVOLT\esc_1wire.o (symbol from plugin)
motorBeepStrengthParameter                        output\REVOLT\esc_1wire.o (symbol from plugin)
motorBeepStrengthValues                           output\REVOLT\esc_1wire.o (symbol from plugin)
motorBrakeOnStopParameter                         output\REVOLT\esc_1wire.o (symbol from plugin)
motorDemagParameter                               output\REVOLT\esc_1wire.o (symbol from plugin)
motorDemagParameterList                           output\REVOLT\esc_1wire.o (symbol from plugin)
motorDirectionParameter                           output\REVOLT\esc_1wire.o (symbol from plugin)
motorDirectionParameterList                       output\REVOLT\esc_1wire.o (symbol from plugin)
motorEnableTxParameter                            output\REVOLT\esc_1wire.o (symbol from plugin)
motorFrequencyParameter                           output\REVOLT\esc_1wire.o (symbol from plugin)
motorFrequencyParameterList                       output\REVOLT\esc_1wire.o (symbol from plugin)
motorMaxThrottleParameter                         output\REVOLT\esc_1wire.o (symbol from plugin)
motorMidThrottleParameter                         output\REVOLT\esc_1wire.o (symbol from plugin)
motorMinThrottleParameter                         output\REVOLT\esc_1wire.o (symbol from plugin)
motorMixer                                        C:\Users\PRESTO~1\AppData\Local\Temp\cc3x6Wri.ltrans4.ltrans.o
                                                  output\REVOLT\mixer.o (symbol from plugin)
                                                  C:\Users\PRESTO~1\AppData\Local\Temp\cc3x6Wri.ltrans2.ltrans.o
motorMixerT                                       C:\Users\PRESTO~1\AppData\Local\Temp\cc3x6Wri.ltrans4.ltrans.o
                                                  output\REVOLT\mixer.o (symbol from plugin)
                                                  C:\Users\PRESTO~1\AppData\Local\Temp\cc3x6Wri.ltrans2.ltrans.o
motorOnOffParameterList                           output\REVOLT\esc_1wire.o (symbol from plugin)
motorOutput                                       C:\Users\PRESTO~1\AppData\Local\Temp\cc3x6Wri.ltrans29.ltrans.o
                                                  output\REVOLT\mixer.o (symbol from plugin)
                                                  C:\Users\PRESTO~1\AppData\Local\Temp\cc3x6Wri.ltrans4.ltrans.o
                                                  C:\Users\PRESTO~1\AppData\Local\Temp\cc3x6Wri.ltrans2.ltrans.o
                                                  C:\Users\PRESTO~1\AppData\Local\Temp\cc3x6Wri.ltrans1.ltrans.o
                                                  output\REVOLT\wizard.o (symbol from plugin)
                                                  output\REVOLT\pid.o (symbol from plugin)
                                                  output\REVOLT\learning.o (symbol from plugin)
                                                  output\REVOLT\flight_logger.o (symbol from plugin)
                                                  output\REVOLT\flight.o (symbol from plugin)
                                                  output\REVOLT\config.o (symbol from plugin)
motorOutputBuffer                                 C:\Users\PRESTO~1\AppData\Local\Temp\cc3x6Wri.ltrans27.ltrans.o
                                                  output\REVOLT\boarddef.o (symbol from plugin)
                                                  C:\Users\PRESTO~1\AppData\Local\Temp\cc3x6Wri.ltrans22.ltrans.o
                                                  C:\Users\PRESTO~1\AppData\Local\Temp\cc3x6Wri.ltrans16.ltrans.o
                                                  C:\Users\PRESTO~1\AppData\Local\Temp\cc3x6Wri.ltrans13.ltrans.o
                                                  C:\Users\PRESTO~1\AppData\Local\Temp\cc3x6Wri.ltrans3.ltrans.o
                                                  output\REVOLT\dmaShenanigans.o (symbol from plugin)
motorStartupPowerParameter                        output\REVOLT\esc_1wire.o (symbol from plugin)
motorStartupPowerParameterList                    output\REVOLT\esc_1wire.o (symbol from plugin)
motorTempProtectionParameter                      output\REVOLT\esc_1wire.o (symbol from plugin)
motorThrottleValues                               output\REVOLT\esc_1wire.o (symbol from plugin)
motorTimingParameter                              output\REVOLT\esc_1wire.o (symbol from plugin)
motorTimingParameterList                          output\REVOLT\esc_1wire.o (symbol from plugin)
motorTrimCounter                                  C:\Users\PRESTO~1\AppData\Local\Temp\cc3x6Wri.ltrans4.ltrans.o
                                                  output\REVOLT\learning.o (symbol from plugin)
                                                  C:\Users\PRESTO~1\AppData\Local\Temp\cc3x6Wri.ltrans2.ltrans.o
motorTrimHasHappened                              C:\Users\PRESTO~1\AppData\Local\Temp\cc3x6Wri.ltrans4.ltrans.o
                                                  output\REVOLT\learning.o (symbol from plugin)
                                                  C:\Users\PRESTO~1\AppData\Local\Temp\cc3x6Wri.ltrans2.ltrans.o
mspRxBuffer                                       output\REVOLT\mspTelemetry.o (symbol from plugin)
mspTxBuffer                                       output\REVOLT\mspTelemetry.o (symbol from plugin)
nan                                               c:/dev/gcc-arm-none-eabi/bin/../lib/gcc/arm-none-eabi/6.3.1/../../../../arm-none-eabi/lib/thumb/v7e-m/fpv4-sp/hard\libm.a(lib_a-s_nan.o)
                                                  c:/dev/gcc-arm-none-eabi/bin/../lib/gcc/arm-none-eabi/6.3.1/../../../../arm-none-eabi/lib/thumb/v7e-m/fpv4-sp/hard\libm.a(lib_a-e_pow.o)
nanf                                              c:/dev/gcc-arm-none-eabi/bin/../lib/gcc/arm-none-eabi/6.3.1/../../../../arm-none-eabi/lib/thumb/v7e-m/fpv4-sp/hard\libc_nano.a(lib_a-sf_nan.o)
                                                  c:/dev/gcc-arm-none-eabi/bin/../lib/gcc/arm-none-eabi/6.3.1/../../../../arm-none-eabi/lib/thumb/v7e-m/fpv4-sp/hard\libc_nano.a(lib_a-strtod.o)
newftoa                                           output\REVOLT\config.o (symbol from plugin)
newftoa.part.1                                    C:\Users\PRESTO~1\AppData\Local\Temp\cc3x6Wri.ltrans0.ltrans.o
                                                  C:\Users\PRESTO~1\AppData\Local\Temp\cc3x6Wri.ltrans4.ltrans.o
                                                  C:\Users\PRESTO~1\AppData\Local\Temp\cc3x6Wri.ltrans1.ltrans.o
noiseCounter                                      C:\Users\PRESTO~1\AppData\Local\Temp\cc3x6Wri.ltrans14.ltrans.o
                                                  output\REVOLT\sPortTelemetry.o (symbol from plugin)
                                                  C:\Users\PRESTO~1\AppData\Local\Temp\cc3x6Wri.ltrans3.ltrans.o
normalPulseWidth                                  C:\Users\PRESTO~1\AppData\Local\Temp\cc3x6Wri.ltrans27.ltrans.o
                                                  output\REVOLT\dmaShenanigans.o (symbol from plugin)
                                                  C:\Users\PRESTO~1\AppData\Local\Temp\cc3x6Wri.ltrans24.ltrans.o
                                                  C:\Users\PRESTO~1\AppData\Local\Temp\cc3x6Wri.ltrans22.ltrans.o
                                                  C:\Users\PRESTO~1\AppData\Local\Temp\cc3x6Wri.ltrans14.ltrans.o
                                                  C:\Users\PRESTO~1\AppData\Local\Temp\cc3x6Wri.ltrans13.ltrans.o
                                                  C:\Users\PRESTO~1\AppData\Local\Temp\cc3x6Wri.ltrans12.ltrans.o
                                                  C:\Users\PRESTO~1\AppData\Local\Temp\cc3x6Wri.ltrans7.ltrans.o
                                                  C:\Users\PRESTO~1\AppData\Local\Temp\cc3x6Wri.ltrans3.ltrans.o
onOffBitArray                                     output\REVOLT\newSoftSerial.o (symbol from plugin)
onOffBitArrayIdx                                  output\REVOLT\newSoftSerial.o (symbol from plugin)
onePulseWidth                                     output\REVOLT\dmaShenanigans.o (symbol from plugin)
oneWireActive                                     C:\Users\PRESTO~1\AppData\Local\Temp\cc3x6Wri.ltrans7.ltrans.o
                                                  output\REVOLT\esc_1wire.o (symbol from plugin)
                                                  C:\Users\PRESTO~1\AppData\Local\Temp\cc3x6Wri.ltrans3.ltrans.o
                                                  output\REVOLT\wizard.o (symbol from plugin)
                                                  output\REVOLT\scheduler.o (symbol from plugin)
oneWireHasRun                                     C:\Users\PRESTO~1\AppData\Local\Temp\cc3x6Wri.ltrans16.ltrans.o
                                                  output\REVOLT\esc_1wire.o (symbol from plugin)
                                                  C:\Users\PRESTO~1\AppData\Local\Temp\cc3x6Wri.ltrans3.ltrans.o
                                                  C:\Users\PRESTO~1\AppData\Local\Temp\cc3x6Wri.ltrans2.ltrans.o
                                                  output\REVOLT\dmaShenanigans.o (symbol from plugin)
                                                  output\REVOLT\main.o (symbol from plugin)
oneWireInBuffer                                   C:\Users\PRESTO~1\AppData\Local\Temp\cc3x6Wri.ltrans13.ltrans.o
                                                  output\REVOLT\esc_1wire.o (symbol from plugin)
                                                  C:\Users\PRESTO~1\AppData\Local\Temp\cc3x6Wri.ltrans20.ltrans.o
                                                  C:\Users\PRESTO~1\AppData\Local\Temp\cc3x6Wri.ltrans7.ltrans.o
oneWireInBufferIdx                                C:\Users\PRESTO~1\AppData\Local\Temp\cc3x6Wri.ltrans20.ltrans.o
                                                  output\REVOLT\esc_1wire.o (symbol from plugin)
                                                  C:\Users\PRESTO~1\AppData\Local\Temp\cc3x6Wri.ltrans7.ltrans.o
oneWireOngoing                                    output\REVOLT\esc_1wire.o (symbol from plugin)
oneWireOutBuffer                                  C:\Users\PRESTO~1\AppData\Local\Temp\cc3x6Wri.ltrans20.ltrans.o
                                                  output\REVOLT\esc_1wire.o (symbol from plugin)
                                                  C:\Users\PRESTO~1\AppData\Local\Temp\cc3x6Wri.ltrans7.ltrans.o
oneWireParameters                                 output\REVOLT\esc_1wire.o (symbol from plugin)
                                                  output\REVOLT\wizard.o (symbol from plugin)
originalKd                                        C:\Users\PRESTO~1\AppData\Local\Temp\cc3x6Wri.ltrans4.ltrans.o
                                                  output\REVOLT\pid.o (symbol from plugin)
                                                  C:\Users\PRESTO~1\AppData\Local\Temp\cc3x6Wri.ltrans2.ltrans.o
pFlash                                            C:\Users\PRESTO~1\AppData\Local\Temp\cc3x6Wri.ltrans28.ltrans.o
                                                  output\REVOLT\stm32f4xx_hal_flash.o (symbol from plugin)
                                                  C:\Users\PRESTO~1\AppData\Local\Temp\cc3x6Wri.ltrans13.ltrans.o
                                                  output\REVOLT\stm32f4xx_hal_flash_ex.o (symbol from plugin)
packetTime.lto_priv.217                           C:\Users\PRESTO~1\AppData\Local\Temp\cc3x6Wri.ltrans4.ltrans.o
                                                  C:\Users\PRESTO~1\AppData\Local\Temp\cc3x6Wri.ltrans25.ltrans.o
                                                  C:\Users\PRESTO~1\AppData\Local\Temp\cc3x6Wri.ltrans8.ltrans.o
packetTimeInv.lto_priv.218                        C:\Users\PRESTO~1\AppData\Local\Temp\cc3x6Wri.ltrans4.ltrans.o
                                                  C:\Users\PRESTO~1\AppData\Local\Temp\cc3x6Wri.ltrans25.ltrans.o
                                                  C:\Users\PRESTO~1\AppData\Local\Temp\cc3x6Wri.ltrans8.ltrans.o
pafAccStates                                      output\REVOLT\flight.o (symbol from plugin)
pafGyroStates                                     C:\Users\PRESTO~1\AppData\Local\Temp\cc3x6Wri.ltrans4.ltrans.o
                                                  output\REVOLT\flight.o (symbol from plugin)
                                                  C:\Users\PRESTO~1\AppData\Local\Temp\cc3x6Wri.ltrans2.ltrans.o
pafKdStates                                       output\REVOLT\flight.o (symbol from plugin)
persistance                                       C:\Users\PRESTO~1\AppData\Local\Temp\cc3x6Wri.ltrans13.ltrans.o
                                                  output\REVOLT\flash_chip.o (symbol from plugin)
                                                  C:\Users\PRESTO~1\AppData\Local\Temp\cc3x6Wri.ltrans30.ltrans.o
                                                  C:\Users\PRESTO~1\AppData\Local\Temp\cc3x6Wri.ltrans23.ltrans.o
                                                  C:\Users\PRESTO~1\AppData\Local\Temp\cc3x6Wri.ltrans19.ltrans.o
                                                  C:\Users\PRESTO~1\AppData\Local\Temp\cc3x6Wri.ltrans18.ltrans.o
                                                  C:\Users\PRESTO~1\AppData\Local\Temp\cc3x6Wri.ltrans17.ltrans.o
                                                  C:\Users\PRESTO~1\AppData\Local\Temp\cc3x6Wri.ltrans4.ltrans.o
                                                  C:\Users\PRESTO~1\AppData\Local\Temp\cc3x6Wri.ltrans2.ltrans.o
                                                  C:\Users\PRESTO~1\AppData\Local\Temp\cc3x6Wri.ltrans1.ltrans.o
                                                  C:\Users\PRESTO~1\AppData\Local\Temp\cc3x6Wri.ltrans0.ltrans.o
                                                  output\REVOLT\learning.o (symbol from plugin)
                                                  output\REVOLT\flight_logger.o (symbol from plugin)
                                                  output\REVOLT\config.o (symbol from plugin)
persistanceWrites                                 C:\Users\PRESTO~1\AppData\Local\Temp\cc3x6Wri.ltrans18.ltrans.o
                                                  output\REVOLT\flash_chip.o (symbol from plugin)
                                                  C:\Users\PRESTO~1\AppData\Local\Temp\cc3x6Wri.ltrans2.ltrans.o
pidSpektrumTelem                                  C:\Users\PRESTO~1\AppData\Local\Temp\cc3x6Wri.ltrans6.ltrans.o
                                                  output\REVOLT\spektrumTelemetry.o (symbol from plugin)
                                                  C:\Users\PRESTO~1\AppData\Local\Temp\cc3x6Wri.ltrans2.ltrans.o
pidsUsed                                          C:\Users\PRESTO~1\AppData\Local\Temp\cc3x6Wri.ltrans4.ltrans.o
                                                  output\REVOLT\pid.o (symbol from plugin)
                                                  C:\Users\PRESTO~1\AppData\Local\Temp\cc3x6Wri.ltrans2.ltrans.o
pidsUsedThisTime                                  output\REVOLT\pid.o (symbol from plugin)
pitchAttitude                                     C:\Users\PRESTO~1\AppData\Local\Temp\cc3x6Wri.ltrans1.ltrans.o
                                                  output\REVOLT\flight.o (symbol from plugin)
                                                  C:\Users\PRESTO~1\AppData\Local\Temp\cc3x6Wri.ltrans19.ltrans.o
                                                  C:\Users\PRESTO~1\AppData\Local\Temp\cc3x6Wri.ltrans15.ltrans.o
                                                  C:\Users\PRESTO~1\AppData\Local\Temp\cc3x6Wri.ltrans4.ltrans.o
                                                  output\REVOLT\mspTelemetry.o (symbol from plugin)
                                                  output\REVOLT\crossfire.o (symbol from plugin)
                                                  output\REVOLT\imu.o (symbol from plugin)
                                                  output\REVOLT\config.o (symbol from plugin)
pitchAttitudeError                                output\REVOLT\flight.o (symbol from plugin)
pitchAttitudeErrorKdelta                          output\REVOLT\flight.o (symbol from plugin)
pitchAttitudeErrorKi                              output\REVOLT\flight.o (symbol from plugin)
pixel                                             output\REVOLT\leds.o (symbol from plugin)
ports                                             C:\Users\PRESTO~1\AppData\Local\Temp\cc3x6Wri.ltrans27.ltrans.o
                                                  output\REVOLT\boarddef.o (symbol from plugin)
                                                  C:\Users\PRESTO~1\AppData\Local\Temp\cc3x6Wri.ltrans30.ltrans.o
                                                  C:\Users\PRESTO~1\AppData\Local\Temp\cc3x6Wri.ltrans29.ltrans.o
                                                  C:\Users\PRESTO~1\AppData\Local\Temp\cc3x6Wri.ltrans26.ltrans.o
                                                  C:\Users\PRESTO~1\AppData\Local\Temp\cc3x6Wri.ltrans25.ltrans.o
                                                  C:\Users\PRESTO~1\AppData\Local\Temp\cc3x6Wri.ltrans24.ltrans.o
                                                  C:\Users\PRESTO~1\AppData\Local\Temp\cc3x6Wri.ltrans23.ltrans.o
                                                  C:\Users\PRESTO~1\AppData\Local\Temp\cc3x6Wri.ltrans21.ltrans.o
                                                  C:\Users\PRESTO~1\AppData\Local\Temp\cc3x6Wri.ltrans20.ltrans.o
                                                  C:\Users\PRESTO~1\AppData\Local\Temp\cc3x6Wri.ltrans19.ltrans.o
                                                  C:\Users\PRESTO~1\AppData\Local\Temp\cc3x6Wri.ltrans18.ltrans.o
                                                  C:\Users\PRESTO~1\AppData\Local\Temp\cc3x6Wri.ltrans17.ltrans.o
                                                  C:\Users\PRESTO~1\AppData\Local\Temp\cc3x6Wri.ltrans16.ltrans.o
                                                  C:\Users\PRESTO~1\AppData\Local\Temp\cc3x6Wri.ltrans14.ltrans.o
                                                  C:\Users\PRESTO~1\AppData\Local\Temp\cc3x6Wri.ltrans13.ltrans.o
                                                  C:\Users\PRESTO~1\AppData\Local\Temp\cc3x6Wri.ltrans12.ltrans.o
                                                  C:\Users\PRESTO~1\AppData\Local\Temp\cc3x6Wri.ltrans11.ltrans.o
                                                  C:\Users\PRESTO~1\AppData\Local\Temp\cc3x6Wri.ltrans9.ltrans.o
                                                  C:\Users\PRESTO~1\AppData\Local\Temp\cc3x6Wri.ltrans7.ltrans.o
                                                  C:\Users\PRESTO~1\AppData\Local\Temp\cc3x6Wri.ltrans6.ltrans.o
                                                  C:\Users\PRESTO~1\AppData\Local\Temp\cc3x6Wri.ltrans5.ltrans.o
                                                  C:\Users\PRESTO~1\AppData\Local\Temp\cc3x6Wri.ltrans3.ltrans.o
                                                  C:\Users\PRESTO~1\AppData\Local\Temp\cc3x6Wri.ltrans2.ltrans.o
                                                  C:\Users\PRESTO~1\AppData\Local\Temp\cc3x6Wri.ltrans1.ltrans.o
                                                  output\REVOLT\spm_laptimer.o (symbol from plugin)
                                                  output\REVOLT\serial.o (symbol from plugin)
                                                  output\REVOLT\rx.o (symbol from plugin)
                                                  output\REVOLT\invensense_bus_spi.o (symbol from plugin)
                                                  output\REVOLT\flash_chip.o (symbol from plugin)
                                                  output\REVOLT\buzzer.o (symbol from plugin)
                                                  output\REVOLT\actuator_output.o (symbol from plugin)
                                                  output\REVOLT\dmaShenanigans.o (symbol from plugin)
                                                  output\REVOLT\leds.o (symbol from plugin)
                                                  output\REVOLT\maxOsd.o (symbol from plugin)
                                                  output\REVOLT\softSerial.o (symbol from plugin)
                                                  output\REVOLT\transponder.o (symbol from plugin)
                                                  output\REVOLT\adc.o (symbol from plugin)
                                                  output\REVOLT\sPortTelemetry.o (symbol from plugin)
                                                  output\REVOLT\newSoftSerial.o (symbol from plugin)
                                                  output\REVOLT\main.o (symbol from plugin)
                                                  output\REVOLT\flight.o (symbol from plugin)
                                                  output\REVOLT\debug.o (symbol from plugin)
                                                  output\REVOLT\stm32f4xx_spi_msp.o (symbol from plugin)
pow                                               c:/dev/gcc-arm-none-eabi/bin/../lib/gcc/arm-none-eabi/6.3.1/../../../../arm-none-eabi/lib/thumb/v7e-m/fpv4-sp/hard\libm.a(lib_a-w_pow.o)
                                                  c:/dev/gcc-arm-none-eabi/bin/../lib/gcc/arm-none-eabi/6.3.1/../../../../arm-none-eabi/lib/thumb/v7e-m/fpv4-sp/hard\libm.a(lib_a-powl.o)
powl                                              c:/dev/gcc-arm-none-eabi/bin/../lib/gcc/arm-none-eabi/6.3.1/../../../../arm-none-eabi/lib/thumb/v7e-m/fpv4-sp/hard\libm.a(lib_a-powl.o)
                                                  C:\Users\PRESTO~1\AppData\Local\Temp\cc3x6Wri.ltrans0.ltrans.o
ppmBuffer                                         C:\Users\PRESTO~1\AppData\Local\Temp\cc3x6Wri.ltrans25.ltrans.o
                                                  output\REVOLT\rx.o (symbol from plugin)
                                                  C:\Users\PRESTO~1\AppData\Local\Temp\cc3x6Wri.ltrans2.ltrans.o
ppmBufferIdx                                      C:\Users\PRESTO~1\AppData\Local\Temp\cc3x6Wri.ltrans25.ltrans.o
                                                  output\REVOLT\rx.o (symbol from plugin)
                                                  C:\Users\PRESTO~1\AppData\Local\Temp\cc3x6Wri.ltrans2.ltrans.o
ppmData                                           output\REVOLT\rx.o (symbol from plugin)
ppmPin                                            C:\Users\PRESTO~1\AppData\Local\Temp\cc3x6Wri.ltrans21.ltrans.o
                                                  output\REVOLT\rx.o (symbol from plugin)
                                                  C:\Users\PRESTO~1\AppData\Local\Temp\cc3x6Wri.ltrans25.ltrans.o
                                                  C:\Users\PRESTO~1\AppData\Local\Temp\cc3x6Wri.ltrans2.ltrans.o
                                                  output\REVOLT\serial.o (symbol from plugin)
previousMotorOutput                               C:\Users\PRESTO~1\AppData\Local\Temp\cc3x6Wri.ltrans29.ltrans.o
                                                  output\REVOLT\actuator_output.o (symbol from plugin)
                                                  C:\Users\PRESTO~1\AppData\Local\Temp\cc3x6Wri.ltrans24.ltrans.o
proccesedSoftSerial                               output\REVOLT\scheduler.o (symbol from plugin)
proccesedSoftSerialIdx                            output\REVOLT\scheduler.o (symbol from plugin)
processRxCodeNow                                  output\REVOLT\serial.o (symbol from plugin)
progMode                                          C:\Users\PRESTO~1\AppData\Local\Temp\cc3x6Wri.ltrans1.ltrans.o
                                                  output\REVOLT\rx.o (symbol from plugin)
                                                  C:\Users\PRESTO~1\AppData\Local\Temp\cc3x6Wri.ltrans25.ltrans.o
                                                  C:\Users\PRESTO~1\AppData\Local\Temp\cc3x6Wri.ltrans22.ltrans.o
                                                  C:\Users\PRESTO~1\AppData\Local\Temp\cc3x6Wri.ltrans6.ltrans.o
                                                  C:\Users\PRESTO~1\AppData\Local\Temp\cc3x6Wri.ltrans3.ltrans.o
                                                  output\REVOLT\sPortTelemetry.o (symbol from plugin)
                                                  output\REVOLT\spektrumTelemetry.o (symbol from plugin)
                                                  output\REVOLT\scheduler.o (symbol from plugin)
                                                  output\REVOLT\config.o (symbol from plugin)
progTimer                                         output\REVOLT\rx.o (symbol from plugin)
programStatus                                     C:\Users\PRESTO~1\AppData\Local\Temp\cc3x6Wri.ltrans14.ltrans.o
                                                  output\REVOLT\sPortTelemetry.o (symbol from plugin)
                                                  C:\Users\PRESTO~1\AppData\Local\Temp\cc3x6Wri.ltrans22.ltrans.o
pulseCode                                         output\REVOLT\spm_laptimer.o (symbol from plugin)
pulseCodeDebug                                    output\REVOLT\spm_laptimer.o (symbol from plugin)
pulseDuration                                     output\REVOLT\spm_laptimer.o (symbol from plugin)
pulseIndex                                        output\REVOLT\spm_laptimer.o (symbol from plugin)
pulseValueRange                                   C:\Users\PRESTO~1\AppData\Local\Temp\cc3x6Wri.ltrans29.ltrans.o
                                                  output\REVOLT\actuator_output.o (symbol from plugin)
                                                  C:\Users\PRESTO~1\AppData\Local\Temp\cc3x6Wri.ltrans24.ltrans.o
pwmTimerBase                                      output\REVOLT\dmaShenanigans.o (symbol from plugin)
pwmTimers                                         C:\Users\PRESTO~1\AppData\Local\Temp\cc3x6Wri.ltrans27.ltrans.o
                                                  output\REVOLT\boarddef.o (symbol from plugin)
                                                  C:\Users\PRESTO~1\AppData\Local\Temp\cc3x6Wri.ltrans24.ltrans.o
                                                  C:\Users\PRESTO~1\AppData\Local\Temp\cc3x6Wri.ltrans22.ltrans.o
                                                  C:\Users\PRESTO~1\AppData\Local\Temp\cc3x6Wri.ltrans16.ltrans.o
                                                  C:\Users\PRESTO~1\AppData\Local\Temp\cc3x6Wri.ltrans13.ltrans.o
                                                  C:\Users\PRESTO~1\AppData\Local\Temp\cc3x6Wri.ltrans7.ltrans.o
                                                  C:\Users\PRESTO~1\AppData\Local\Temp\cc3x6Wri.ltrans3.ltrans.o
                                                  output\REVOLT\spm_laptimer.o (symbol from plugin)
                                                  output\REVOLT\actuator_output.o (symbol from plugin)
                                                  output\REVOLT\dmaShenanigans.o (symbol from plugin)
                                                  output\REVOLT\transponder.o (symbol from plugin)
quadInverted                                      output\REVOLT\imu.o (symbol from plugin)
quopaState                                        C:\Users\PRESTO~1\AppData\Local\Temp\cc3x6Wri.ltrans27.ltrans.o
                                                  output\REVOLT\quopa.o (symbol from plugin)
                                                  C:\Users\PRESTO~1\AppData\Local\Temp\cc3x6Wri.ltrans29.ltrans.o
                                                  C:\Users\PRESTO~1\AppData\Local\Temp\cc3x6Wri.ltrans26.ltrans.o
                                                  C:\Users\PRESTO~1\AppData\Local\Temp\cc3x6Wri.ltrans24.ltrans.o
                                                  C:\Users\PRESTO~1\AppData\Local\Temp\cc3x6Wri.ltrans19.ltrans.o
                                                  C:\Users\PRESTO~1\AppData\Local\Temp\cc3x6Wri.ltrans4.ltrans.o
                                                  C:\Users\PRESTO~1\AppData\Local\Temp\cc3x6Wri.ltrans3.ltrans.o
                                                  C:\Users\PRESTO~1\AppData\Local\Temp\cc3x6Wri.ltrans1.ltrans.o
                                                  output\REVOLT\dshotTwoWay.o (symbol from plugin)
                                                  output\REVOLT\mixer.o (symbol from plugin)
                                                  output\REVOLT\imu.o (symbol from plugin)
                                                  output\REVOLT\flight.o (symbol from plugin)
quopa_style                                       output\REVOLT\spm_laptimer.o (symbol from plugin)
                                                  output\REVOLT\serial.o (symbol from plugin)
                                                  output\REVOLT\rx.o (symbol from plugin)
                                                  output\REVOLT\invensense_bus_spi.o (symbol from plugin)
                                                  output\REVOLT\invensense_mpu_icm_device.o (symbol from plugin)
                                                  output\REVOLT\flash_chip.o (symbol from plugin)
                                                  output\REVOLT\buzzer.o (symbol from plugin)
                                                  output\REVOLT\actuator_output.o (symbol from plugin)
                                                  output\REVOLT\dmaShenanigans.o (symbol from plugin)
                                                  output\REVOLT\softPwm.o (symbol from plugin)
                                                  output\REVOLT\leds.o (symbol from plugin)
                                                  output\REVOLT\esc_1wire.o (symbol from plugin)
                                                  output\REVOLT\maxOsd.o (symbol from plugin)
                                                  output\REVOLT\softSerial.o (symbol from plugin)
                                                  output\REVOLT\transponder.o (symbol from plugin)
                                                  output\REVOLT\adc.o (symbol from plugin)
                                                  output\REVOLT\usbd_desc.o (symbol from plugin)
                                                  output\REVOLT\gyro.o (symbol from plugin)
                                                  output\REVOLT\trampTelemetry.o (symbol from plugin)
                                                  output\REVOLT\telemetry.o (symbol from plugin)
                                                  output\REVOLT\sPortTelemetry.o (symbol from plugin)
                                                  output\REVOLT\spektrumTelemetry.o (symbol from plugin)
                                                  output\REVOLT\smartAudio.o (symbol from plugin)
                                                  output\REVOLT\rfVtx.o (symbol from plugin)
                                                  output\REVOLT\rfosdTelemetry.o (symbol from plugin)
                                                  output\REVOLT\mspTelemetry.o (symbol from plugin)
                                                  output\REVOLT\dshotTwoWay.o (symbol from plugin)
                                                  output\REVOLT\crossfire.o (symbol from plugin)
                                                  output\REVOLT\wizard.o (symbol from plugin)
                                                  output\REVOLT\watchdog.o (symbol from plugin)
                                                  output\REVOLT\scheduler.o (symbol from plugin)
                                                  output\REVOLT\rf_math.o (symbol from plugin)
                                                  output\REVOLT\rfbl_functions.o (symbol from plugin)
                                                  output\REVOLT\quopa.o (symbol from plugin)
                                                  output\REVOLT\pid.o (symbol from plugin)
                                                  output\REVOLT\newSoftSerial.o (symbol from plugin)
                                                  output\REVOLT\modes.o (symbol from plugin)
                                                  output\REVOLT\mixer.o (symbol from plugin)
                                                  output\REVOLT\main.o (symbol from plugin)
                                                  output\REVOLT\learning.o (symbol from plugin)
                                                  output\REVOLT\imu.o (symbol from plugin)
                                                  output\REVOLT\flight_logger.o (symbol from plugin)
                                                  output\REVOLT\flight.o (symbol from plugin)
                                                  output\REVOLT\filter.o (symbol from plugin)
                                                  output\REVOLT\exti.o (symbol from plugin)
                                                  output\REVOLT\debug.o (symbol from plugin)
                                                  output\REVOLT\config.o (symbol from plugin)
                                                  output\REVOLT\stm32f4xx_spi_msp.o (symbol from plugin)
                                                  output\REVOLT\stm32f4xx_it.o (symbol from plugin)
                                                  output\REVOLT\stm32f4xx_hal_tim_msp.o (symbol from plugin)
                                                  output\REVOLT\stm32f4.o (symbol from plugin)
                                                  output\REVOLT\flash.o (symbol from plugin)
                                                  output\REVOLT\boarddef.o (symbol from plugin)
                                                  output\REVOLT\general_functions.o (symbol from plugin)
rand                                              c:/dev/gcc-arm-none-eabi/bin/../lib/gcc/arm-none-eabi/6.3.1/../../../../arm-none-eabi/lib/thumb/v7e-m/fpv4-sp/hard\libc_nano.a(lib_a-rand.o)
                                                  C:\Users\PRESTO~1\AppData\Local\Temp\cc3x6Wri.ltrans16.ltrans.o
                                                  C:\Users\PRESTO~1\AppData\Local\Temp\cc3x6Wri.ltrans0.ltrans.o
                                                  output\REVOLT\leds.o (symbol from plugin)
                                                  output\REVOLT\config.o (symbol from plugin)
rebootAddress                                     C:\Users\PRESTO~1\AppData\Local\Temp\cc3x6Wri.ltrans4.ltrans.o
                                                  output\REVOLT\rfbl_functions.o (symbol from plugin)
                                                  C:\Users\PRESTO~1\AppData\Local\Temp\cc3x6Wri.ltrans3.ltrans.o
receivedDataBuffer                                output\REVOLT\sPortTelemetry.o (symbol from plugin)
receivedDataBufferIdx                             output\REVOLT\sPortTelemetry.o (symbol from plugin)
redTemp                                           C:\Users\PRESTO~1\AppData\Local\Temp\cc3x6Wri.ltrans16.ltrans.o
                                                  output\REVOLT\leds.o (symbol from plugin)
                                                  C:\Users\PRESTO~1\AppData\Local\Temp\cc3x6Wri.ltrans3.ltrans.o
requestedDegrees                                  output\REVOLT\imu.o (symbol from plugin)
resetBoard                                        C:\Users\PRESTO~1\AppData\Local\Temp\cc3x6Wri.ltrans13.ltrans.o
                                                  output\REVOLT\config.o (symbol from plugin)
                                                  C:\Users\PRESTO~1\AppData\Local\Temp\cc3x6Wri.ltrans6.ltrans.o
                                                  C:\Users\PRESTO~1\AppData\Local\Temp\cc3x6Wri.ltrans1.ltrans.o
                                                  output\REVOLT\spektrumTelemetry.o (symbol from plugin)
                                                  output\REVOLT\wizard.o (symbol from plugin)
                                                  output\REVOLT\modes.o (symbol from plugin)
retValChk                                         output\REVOLT\main.o (symbol from plugin)
rfCustomReplyBufferPointer                        C:\Users\PRESTO~1\AppData\Local\Temp\cc3x6Wri.ltrans13.ltrans.o
                                                  output\REVOLT\config.o (symbol from plugin)
                                                  C:\Users\PRESTO~1\AppData\Local\Temp\cc3x6Wri.ltrans31.ltrans.o
                                                  C:\Users\PRESTO~1\AppData\Local\Temp\cc3x6Wri.ltrans20.ltrans.o
                                                  C:\Users\PRESTO~1\AppData\Local\Temp\cc3x6Wri.ltrans9.ltrans.o
                                                  C:\Users\PRESTO~1\AppData\Local\Temp\cc3x6Wri.ltrans7.ltrans.o
                                                  C:\Users\PRESTO~1\AppData\Local\Temp\cc3x6Wri.ltrans4.ltrans.o
                                                  C:\Users\PRESTO~1\AppData\Local\Temp\cc3x6Wri.ltrans1.ltrans.o
                                                  C:\Users\PRESTO~1\AppData\Local\Temp\cc3x6Wri.ltrans0.ltrans.o
                                                  output\REVOLT\flight_logger.o (symbol from plugin)
rfCustomReplyBufferPointerSent                    C:\Users\PRESTO~1\AppData\Local\Temp\cc3x6Wri.ltrans1.ltrans.o
                                                  output\REVOLT\config.o (symbol from plugin)
                                                  C:\Users\PRESTO~1\AppData\Local\Temp\cc3x6Wri.ltrans4.ltrans.o
                                                  C:\Users\PRESTO~1\AppData\Local\Temp\cc3x6Wri.ltrans0.ltrans.o
                                                  output\REVOLT\flight_logger.o (symbol from plugin)
rfCustomSendBuffer                                C:\Users\PRESTO~1\AppData\Local\Temp\cc3x6Wri.ltrans13.ltrans.o
                                                  output\REVOLT\config.o (symbol from plugin)
                                                  C:\Users\PRESTO~1\AppData\Local\Temp\cc3x6Wri.ltrans31.ltrans.o
                                                  C:\Users\PRESTO~1\AppData\Local\Temp\cc3x6Wri.ltrans20.ltrans.o
                                                  C:\Users\PRESTO~1\AppData\Local\Temp\cc3x6Wri.ltrans9.ltrans.o
                                                  C:\Users\PRESTO~1\AppData\Local\Temp\cc3x6Wri.ltrans7.ltrans.o
                                                  C:\Users\PRESTO~1\AppData\Local\Temp\cc3x6Wri.ltrans4.ltrans.o
                                                  C:\Users\PRESTO~1\AppData\Local\Temp\cc3x6Wri.ltrans0.ltrans.o
                                                  output\REVOLT\flight_logger.o (symbol from plugin)
rfCustomSendBufferAdder                           output\REVOLT\config.o (symbol from plugin)
rfOsdLineBuffer                                   output\REVOLT\rfosdTelemetry.o (symbol from plugin)
rfOsdTxBuffer                                     output\REVOLT\rfosdTelemetry.o (symbol from plugin)
rfReplyBuffer                                     output\REVOLT\config.o (symbol from plugin)
rfVtxRxBuffer                                     output\REVOLT\rfVtx.o (symbol from plugin)
                                                  output\REVOLT\mspTelemetry.o (symbol from plugin)
rf_custom_out_buffer                              C:\Users\PRESTO~1\AppData\Local\Temp\cc3x6Wri.ltrans13.ltrans.o
                                                  output\REVOLT\config.o (symbol from plugin)
                                                  C:\Users\PRESTO~1\AppData\Local\Temp\cc3x6Wri.ltrans31.ltrans.o
                                                  C:\Users\PRESTO~1\AppData\Local\Temp\cc3x6Wri.ltrans20.ltrans.o
                                                  C:\Users\PRESTO~1\AppData\Local\Temp\cc3x6Wri.ltrans9.ltrans.o
                                                  C:\Users\PRESTO~1\AppData\Local\Temp\cc3x6Wri.ltrans7.ltrans.o
                                                  C:\Users\PRESTO~1\AppData\Local\Temp\cc3x6Wri.ltrans4.ltrans.o
                                                  C:\Users\PRESTO~1\AppData\Local\Temp\cc3x6Wri.ltrans1.ltrans.o
                                                  C:\Users\PRESTO~1\AppData\Local\Temp\cc3x6Wri.ltrans0.ltrans.o
                                                  output\REVOLT\wizard.o (symbol from plugin)
                                                  output\REVOLT\modes.o (symbol from plugin)
                                                  output\REVOLT\mixer.o (symbol from plugin)
                                                  output\REVOLT\flight_logger.o (symbol from plugin)
rfblVersion                                       C:\Users\PRESTO~1\AppData\Local\Temp\cc3x6Wri.ltrans4.ltrans.o
                                                  output\REVOLT\rfbl_functions.o (symbol from plugin)
                                                  C:\Users\PRESTO~1\AppData\Local\Temp\cc3x6Wri.ltrans3.ltrans.o
rgbArray                                          C:\Users\PRESTO~1\AppData\Local\Temp\cc3x6Wri.ltrans16.ltrans.o
                                                  output\REVOLT\leds.o (symbol from plugin)
                                                  C:\Users\PRESTO~1\AppData\Local\Temp\cc3x6Wri.ltrans3.ltrans.o
rint                                              c:/dev/gcc-arm-none-eabi/bin/../lib/gcc/arm-none-eabi/6.3.1/../../../../arm-none-eabi/lib/thumb/v7e-m/fpv4-sp/hard\libm.a(lib_a-s_rint.o)
                                                  c:/dev/gcc-arm-none-eabi/bin/../lib/gcc/arm-none-eabi/6.3.1/../../../../arm-none-eabi/lib/thumb/v7e-m/fpv4-sp/hard\libm.a(lib_a-w_pow.o)
risingEdges                                       output\REVOLT\spm_laptimer.o (symbol from plugin)
rollAttitude                                      C:\Users\PRESTO~1\AppData\Local\Temp\cc3x6Wri.ltrans1.ltrans.o
                                                  output\REVOLT\flight.o (symbol from plugin)
                                                  C:\Users\PRESTO~1\AppData\Local\Temp\cc3x6Wri.ltrans19.ltrans.o
                                                  C:\Users\PRESTO~1\AppData\Local\Temp\cc3x6Wri.ltrans15.ltrans.o
                                                  C:\Users\PRESTO~1\AppData\Local\Temp\cc3x6Wri.ltrans4.ltrans.o
                                                  output\REVOLT\mspTelemetry.o (symbol from plugin)
                                                  output\REVOLT\crossfire.o (symbol from plugin)
                                                  output\REVOLT\imu.o (symbol from plugin)
                                                  output\REVOLT\config.o (symbol from plugin)
rollAttitudeError                                 output\REVOLT\flight.o (symbol from plugin)
rollAttitudeErrorKdelta                           output\REVOLT\flight.o (symbol from plugin)
rollAttitudeErrorKi                               output\REVOLT\flight.o (symbol from plugin)
rotationQuat                                      output\REVOLT\imu.o (symbol from plugin)
rotationalMatrix                                  output\REVOLT\imu.o (symbol from plugin)
round                                             c:/dev/gcc-arm-none-eabi/bin/../lib/gcc/arm-none-eabi/6.3.1/../../../../arm-none-eabi/lib/thumb/v7e-m/fpv4-sp/hard\libm.a(lib_a-s_round.o)
                                                  C:\Users\PRESTO~1\AppData\Local\Temp\cc3x6Wri.ltrans13.ltrans.o
                                                  C:\Users\PRESTO~1\AppData\Local\Temp\cc3x6Wri.ltrans9.ltrans.o
row1                                              output\REVOLT\spektrumTelemetry.o (symbol from plugin)
row2                                              output\REVOLT\spektrumTelemetry.o (symbol from plugin)
row3                                              output\REVOLT\spektrumTelemetry.o (symbol from plugin)
row4                                              output\REVOLT\spektrumTelemetry.o (symbol from plugin)
row5                                              output\REVOLT\spektrumTelemetry.o (symbol from plugin)
row6                                              output\REVOLT\spektrumTelemetry.o (symbol from plugin)
row7                                              output\REVOLT\spektrumTelemetry.o (symbol from plugin)
row8                                              output\REVOLT\spektrumTelemetry.o (symbol from plugin)
row9                                              output\REVOLT\spektrumTelemetry.o (symbol from plugin)
runningVoltage                                    output\REVOLT\adc.o (symbol from plugin)
                                                  output\REVOLT\leds.o (symbol from plugin)
rxBuffer                                          C:\Users\PRESTO~1\AppData\Local\Temp\cc3x6Wri.ltrans13.ltrans.o
                                                  output\REVOLT\maxOsd.o (symbol from plugin)
                                                  C:\Users\PRESTO~1\AppData\Local\Temp\cc3x6Wri.ltrans29.ltrans.o
                                                  C:\Users\PRESTO~1\AppData\Local\Temp\cc3x6Wri.ltrans20.ltrans.o
                                                  C:\Users\PRESTO~1\AppData\Local\Temp\cc3x6Wri.ltrans12.ltrans.o
rxCalibrationRecords.lto_priv.271                 C:\Users\PRESTO~1\AppData\Local\Temp\cc3x6Wri.ltrans25.ltrans.o
                                                  C:\Users\PRESTO~1\AppData\Local\Temp\cc3x6Wri.ltrans2.ltrans.o
rxData                                            C:\Users\PRESTO~1\AppData\Local\Temp\cc3x6Wri.ltrans1.ltrans.o
                                                  output\REVOLT\rx.o (symbol from plugin)
                                                  C:\Users\PRESTO~1\AppData\Local\Temp\cc3x6Wri.ltrans26.ltrans.o
                                                  C:\Users\PRESTO~1\AppData\Local\Temp\cc3x6Wri.ltrans25.ltrans.o
                                                  C:\Users\PRESTO~1\AppData\Local\Temp\cc3x6Wri.ltrans8.ltrans.o
                                                  output\REVOLT\wizard.o (symbol from plugin)
                                                  output\REVOLT\config.o (symbol from plugin)
rxDataRaw                                         C:\Users\PRESTO~1\AppData\Local\Temp\cc3x6Wri.ltrans1.ltrans.o
                                                  output\REVOLT\rx.o (symbol from plugin)
                                                  C:\Users\PRESTO~1\AppData\Local\Temp\cc3x6Wri.ltrans26.ltrans.o
                                                  C:\Users\PRESTO~1\AppData\Local\Temp\cc3x6Wri.ltrans25.ltrans.o
                                                  C:\Users\PRESTO~1\AppData\Local\Temp\cc3x6Wri.ltrans8.ltrans.o
                                                  output\REVOLT\wizard.o (symbol from plugin)
                                                  output\REVOLT\config.o (symbol from plugin)
rxUpdateCount                                     C:\Users\PRESTO~1\AppData\Local\Temp\cc3x6Wri.ltrans25.ltrans.o
                                                  output\REVOLT\rx.o (symbol from plugin)
                                                  C:\Users\PRESTO~1\AppData\Local\Temp\cc3x6Wri.ltrans2.ltrans.o
rx_timeout                                        C:\Users\PRESTO~1\AppData\Local\Temp\cc3x6Wri.ltrans4.ltrans.o
                                                  output\REVOLT\rx.o (symbol from plugin)
                                                  C:\Users\PRESTO~1\AppData\Local\Temp\cc3x6Wri.ltrans25.ltrans.o
                                                  C:\Users\PRESTO~1\AppData\Local\Temp\cc3x6Wri.ltrans8.ltrans.o
                                                  C:\Users\PRESTO~1\AppData\Local\Temp\cc3x6Wri.ltrans3.ltrans.o
                                                  output\REVOLT\flight_logger.o (symbol from plugin)
sConfigOCHandles                                  output\REVOLT\boarddef.o (symbol from plugin)
                                                  output\REVOLT\dmaShenanigans.o (symbol from plugin)
sPortPacket                                       output\REVOLT\sPortTelemetry.o (symbol from plugin)
sPortTelemCount.lto_priv.234                      C:\Users\PRESTO~1\AppData\Local\Temp\cc3x6Wri.ltrans14.ltrans.o
                                                  C:\Users\PRESTO~1\AppData\Local\Temp\cc3x6Wri.ltrans22.ltrans.o
safeLoopCounter                                   C:\Users\PRESTO~1\AppData\Local\Temp\cc3x6Wri.ltrans3.ltrans.o
                                                  output\REVOLT\scheduler.o (symbol from plugin)
                                                  C:\Users\PRESTO~1\AppData\Local\Temp\cc3x6Wri.ltrans2.ltrans.o
sbusActuator                                      C:\Users\PRESTO~1\AppData\Local\Temp\cc3x6Wri.ltrans14.ltrans.o
                                                  output\REVOLT\sPortTelemetry.o (symbol from plugin)
                                                  C:\Users\PRESTO~1\AppData\Local\Temp\cc3x6Wri.ltrans22.ltrans.o
                                                  C:\Users\PRESTO~1\AppData\Local\Temp\cc3x6Wri.ltrans6.ltrans.o
                                                  C:\Users\PRESTO~1\AppData\Local\Temp\cc3x6Wri.ltrans3.ltrans.o
scalbn                                            c:/dev/gcc-arm-none-eabi/bin/../lib/gcc/arm-none-eabi/6.3.1/../../../../arm-none-eabi/lib/thumb/v7e-m/fpv4-sp/hard\libm.a(lib_a-s_scalbn.o)
                                                  c:/dev/gcc-arm-none-eabi/bin/../lib/gcc/arm-none-eabi/6.3.1/../../../../arm-none-eabi/lib/thumb/v7e-m/fpv4-sp/hard\libm.a(lib_a-e_pow.o)
scalbnf                                           c:/dev/gcc-arm-none-eabi/bin/../lib/gcc/arm-none-eabi/6.3.1/../../../../arm-none-eabi/lib/thumb/v7e-m/fpv4-sp/hard\libm.a(lib_a-sf_scalbn.o)
                                                  c:/dev/gcc-arm-none-eabi/bin/../lib/gcc/arm-none-eabi/6.3.1/../../../../arm-none-eabi/lib/thumb/v7e-m/fpv4-sp/hard\libm.a(lib_a-kf_rem_pio2.o)
schedulerTimer                                    C:\Users\PRESTO~1\AppData\Local\Temp\cc3x6Wri.ltrans11.ltrans.o
                                                  output\REVOLT\scheduler.o (symbol from plugin)
                                                  C:\Users\PRESTO~1\AppData\Local\Temp\cc3x6Wri.ltrans26.ltrans.o
                                                  C:\Users\PRESTO~1\AppData\Local\Temp\cc3x6Wri.ltrans6.ltrans.o
sendCrsfTelemtryAt                                C:\Users\PRESTO~1\AppData\Local\Temp\cc3x6Wri.ltrans8.ltrans.o
                                                  output\REVOLT\telemetry.o (symbol from plugin)
                                                  C:\Users\PRESTO~1\AppData\Local\Temp\cc3x6Wri.ltrans3.ltrans.o
                                                  output\REVOLT\rx.o (symbol from plugin)
sendMspAt                                         output\REVOLT\telemetry.o (symbol from plugin)
sendRfOsdAt                                       output\REVOLT\telemetry.o (symbol from plugin)
sendSmartPortAt                                   output\REVOLT\telemetry.o (symbol from plugin)
                                                  output\REVOLT\sPortTelemetry.o (symbol from plugin)
sendSmartPortLuaAt                                output\REVOLT\telemetry.o (symbol from plugin)
                                                  output\REVOLT\sPortTelemetry.o (symbol from plugin)
sendSpektrumBind                                  output\REVOLT\spektrumTelemetry.o (symbol from plugin)
                                                  output\REVOLT\config.o (symbol from plugin)
sendSpektrumSRXL                                  output\REVOLT\spektrumTelemetry.o (symbol from plugin)
sendSpektrumTelem                                 C:\Users\PRESTO~1\AppData\Local\Temp\cc3x6Wri.ltrans6.ltrans.o
                                                  output\REVOLT\spektrumTelemetry.o (symbol from plugin)
                                                  C:\Users\PRESTO~1\AppData\Local\Temp\cc3x6Wri.ltrans3.ltrans.o
                                                  output\REVOLT\telemetry.o (symbol from plugin)
sendSpektrumTelemtryAt                            C:\Users\PRESTO~1\AppData\Local\Temp\cc3x6Wri.ltrans8.ltrans.o
                                                  output\REVOLT\telemetry.o (symbol from plugin)
                                                  C:\Users\PRESTO~1\AppData\Local\Temp\cc3x6Wri.ltrans3.ltrans.o
                                                  output\REVOLT\rx.o (symbol from plugin)
sendingData                                       C:\Users\PRESTO~1\AppData\Local\Temp\cc3x6Wri.ltrans11.ltrans.o
                                                  output\REVOLT\newSoftSerial.o (symbol from plugin)
                                                  C:\Users\PRESTO~1\AppData\Local\Temp\cc3x6Wri.ltrans9.ltrans.o
                                                  C:\Users\PRESTO~1\AppData\Local\Temp\cc3x6Wri.ltrans6.ltrans.o
sensorData                                        C:\Users\PRESTO~1\AppData\Local\Temp\cc3x6Wri.ltrans6.ltrans.o
                                                  output\REVOLT\spektrumTelemetry.o (symbol from plugin)
                                                  C:\Users\PRESTO~1\AppData\Local\Temp\cc3x6Wri.ltrans2.ltrans.o
serialInBuffer                                    C:\Users\PRESTO~1\AppData\Local\Temp\cc3x6Wri.ltrans13.ltrans.o
                                                  output\REVOLT\softSerial.o (symbol from plugin)
                                                  C:\Users\PRESTO~1\AppData\Local\Temp\cc3x6Wri.ltrans12.ltrans.o
serialInBufferIdx                                 C:\Users\PRESTO~1\AppData\Local\Temp\cc3x6Wri.ltrans13.ltrans.o
                                                  output\REVOLT\softSerial.o (symbol from plugin)
                                                  C:\Users\PRESTO~1\AppData\Local\Temp\cc3x6Wri.ltrans12.ltrans.o
serialOutBuffer                                   output\REVOLT\softSerial.o (symbol from plugin)
serialRxBuffer                                    C:\Users\PRESTO~1\AppData\Local\Temp\cc3x6Wri.ltrans21.ltrans.o
                                                  output\REVOLT\boarddef.o (symbol from plugin)
                                                  C:\Users\PRESTO~1\AppData\Local\Temp\cc3x6Wri.ltrans8.ltrans.o
                                                  output\REVOLT\serial.o (symbol from plugin)
                                                  output\REVOLT\rx.o (symbol from plugin)
serialTxBuffer                                    output\REVOLT\boarddef.o (symbol from plugin)
                                                  output\REVOLT\serial.o (symbol from plugin)
servoMixer                                        output\REVOLT\mixer.o (symbol from plugin)
servoOutput                                       C:\Users\PRESTO~1\AppData\Local\Temp\cc3x6Wri.ltrans29.ltrans.o
                                                  output\REVOLT\mixer.o (symbol from plugin)
                                                  C:\Users\PRESTO~1\AppData\Local\Temp\cc3x6Wri.ltrans2.ltrans.o
                                                  output\REVOLT\wizard.o (symbol from plugin)
                                                  output\REVOLT\flight.o (symbol from plugin)
setModes                                          C:\Users\PRESTO~1\AppData\Local\Temp\cc3x6Wri.ltrans4.ltrans.o
                                                  output\REVOLT\modes.o (symbol from plugin)
                                                  C:\Users\PRESTO~1\AppData\Local\Temp\cc3x6Wri.ltrans25.ltrans.o
                                                  C:\Users\PRESTO~1\AppData\Local\Temp\cc3x6Wri.ltrans9.ltrans.o
                                                  C:\Users\PRESTO~1\AppData\Local\Temp\cc3x6Wri.ltrans3.ltrans.o
                                                  C:\Users\PRESTO~1\AppData\Local\Temp\cc3x6Wri.ltrans2.ltrans.o
setlocale                                         c:/dev/gcc-arm-none-eabi/bin/../lib/gcc/arm-none-eabi/6.3.1/../../../../arm-none-eabi/lib/thumb/v7e-m/fpv4-sp/hard\libc_nano.a(lib_a-locale.o)
sinTable_f32                                      output\REVOLT\arm_common_tables.o (symbol from plugin)
                                                  output\REVOLT\arm_sin_f32.o (symbol from plugin)
                                                  output\REVOLT\arm_cos_f32.o (symbol from plugin)
sinTable_q15                                      output\REVOLT\arm_common_tables.o (symbol from plugin)
sinTable_q31                                      output\REVOLT\arm_common_tables.o (symbol from plugin)
sinf                                              c:/dev/gcc-arm-none-eabi/bin/../lib/gcc/arm-none-eabi/6.3.1/../../../../arm-none-eabi/lib/thumb/v7e-m/fpv4-sp/hard\libm.a(lib_a-sf_sin.o)
                                                  C:\Users\PRESTO~1\AppData\Local\Temp\cc3x6Wri.ltrans10.ltrans.o
                                                  C:\Users\PRESTO~1\AppData\Local\Temp\cc3x6Wri.ltrans2.ltrans.o
siprintf                                          c:/dev/gcc-arm-none-eabi/bin/../lib/gcc/arm-none-eabi/6.3.1/../../../../arm-none-eabi/lib/thumb/v7e-m/fpv4-sp/hard\libc_nano.a(lib_a-sprintf.o)
skipGyro                                          C:\Users\PRESTO~1\AppData\Local\Temp\cc3x6Wri.ltrans23.ltrans.o
                                                  output\REVOLT\invensense_bus_spi.o (symbol from plugin)
                                                  C:\Users\PRESTO~1\AppData\Local\Temp\cc3x6Wri.ltrans26.ltrans.o
                                                  C:\Users\PRESTO~1\AppData\Local\Temp\cc3x6Wri.ltrans2.ltrans.o
skipRxMap                                         C:\Users\PRESTO~1\AppData\Local\Temp\cc3x6Wri.ltrans25.ltrans.o
                                                  output\REVOLT\rx.o (symbol from plugin)
skipTaskHandlePcComm                              C:\Users\PRESTO~1\AppData\Local\Temp\cc3x6Wri.ltrans25.ltrans.o
                                                  output\REVOLT\scheduler.o (symbol from plugin)
sldUsed                                           C:\Users\PRESTO~1\AppData\Local\Temp\cc3x6Wri.ltrans4.ltrans.o
                                                  output\REVOLT\flight.o (symbol from plugin)
                                                  C:\Users\PRESTO~1\AppData\Local\Temp\cc3x6Wri.ltrans2.ltrans.o
sliUsed                                           C:\Users\PRESTO~1\AppData\Local\Temp\cc3x6Wri.ltrans4.ltrans.o
                                                  output\REVOLT\flight.o (symbol from plugin)
                                                  C:\Users\PRESTO~1\AppData\Local\Temp\cc3x6Wri.ltrans2.ltrans.o
slpUsed                                           C:\Users\PRESTO~1\AppData\Local\Temp\cc3x6Wri.ltrans4.ltrans.o
                                                  output\REVOLT\flight.o (symbol from plugin)
                                                  C:\Users\PRESTO~1\AppData\Local\Temp\cc3x6Wri.ltrans2.ltrans.o
smartAudioTxRxBuffer                              C:\Users\PRESTO~1\AppData\Local\Temp\cc3x6Wri.ltrans11.ltrans.o
                                                  output\REVOLT\smartAudio.o (symbol from plugin)
                                                  C:\Users\PRESTO~1\AppData\Local\Temp\cc3x6Wri.ltrans14.ltrans.o
                                                  C:\Users\PRESTO~1\AppData\Local\Temp\cc3x6Wri.ltrans6.ltrans.o
                                                  C:\Users\PRESTO~1\AppData\Local\Temp\cc3x6Wri.ltrans1.ltrans.o
smartAudioUsartSerialNumber                       output\REVOLT\smartAudio.o (symbol from plugin)
smartPortExti                                     output\REVOLT\sPortTelemetry.o (symbol from plugin)
smoothCurvedThrottle0_1                           output\REVOLT\rx.o (symbol from plugin)
                                                  output\REVOLT\pid.o (symbol from plugin)
                                                  output\REVOLT\learning.o (symbol from plugin)
                                                  output\REVOLT\flight.o (symbol from plugin)
smoothedRcCommandF                                C:\Users\PRESTO~1\AppData\Local\Temp\cc3x6Wri.ltrans4.ltrans.o
                                                  output\REVOLT\rx.o (symbol from plugin)
                                                  C:\Users\PRESTO~1\AppData\Local\Temp\cc3x6Wri.ltrans2.ltrans.o
                                                  output\REVOLT\pid.o (symbol from plugin)
                                                  output\REVOLT\learning.o (symbol from plugin)
                                                  output\REVOLT\flight_logger.o (symbol from plugin)
                                                  output\REVOLT\flight.o (symbol from plugin)
smoothingInterval                                 output\REVOLT\rx.o (symbol from plugin)
smoothingIntervalThrottle                         output\REVOLT\rx.o (symbol from plugin)
sniprintf                                         c:/dev/gcc-arm-none-eabi/bin/../lib/gcc/arm-none-eabi/6.3.1/../../../../arm-none-eabi/lib/thumb/v7e-m/fpv4-sp/hard\libc_nano.a(lib_a-snprintf.o)
snprintf                                          c:/dev/gcc-arm-none-eabi/bin/../lib/gcc/arm-none-eabi/6.3.1/../../../../arm-none-eabi/lib/thumb/v7e-m/fpv4-sp/hard\libc_nano.a(lib_a-snprintf.o)
                                                  C:\Users\PRESTO~1\AppData\Local\Temp\cc3x6Wri.ltrans20.ltrans.o
                                                  C:\Users\PRESTO~1\AppData\Local\Temp\cc3x6Wri.ltrans13.ltrans.o
                                                  C:\Users\PRESTO~1\AppData\Local\Temp\cc3x6Wri.ltrans9.ltrans.o
                                                  C:\Users\PRESTO~1\AppData\Local\Temp\cc3x6Wri.ltrans7.ltrans.o
                                                  C:\Users\PRESTO~1\AppData\Local\Temp\cc3x6Wri.ltrans6.ltrans.o
                                                  C:\Users\PRESTO~1\AppData\Local\Temp\cc3x6Wri.ltrans4.ltrans.o
                                                  C:\Users\PRESTO~1\AppData\Local\Temp\cc3x6Wri.ltrans1.ltrans.o
                                                  C:\Users\PRESTO~1\AppData\Local\Temp\cc3x6Wri.ltrans0.ltrans.o
softPwmRecord                                     output\REVOLT\softPwm.o (symbol from plugin)
softPwmTimer                                      output\REVOLT\softPwm.o (symbol from plugin)
softSerialBuf                                     output\REVOLT\scheduler.o (symbol from plugin)
softSerialCurBuf                                  output\REVOLT\scheduler.o (symbol from plugin)
softSerialEnabled                                 output\REVOLT\scheduler.o (symbol from plugin)
softSerialInd                                     output\REVOLT\scheduler.o (symbol from plugin)
softSerialLastByteProcessedLocation               output\REVOLT\scheduler.o (symbol from plugin)
softSerialLineIdleSensed                          output\REVOLT\scheduler.o (symbol from plugin)
softSerialRecord                                  C:\Users\PRESTO~1\AppData\Local\Temp\cc3x6Wri.ltrans11.ltrans.o
                                                  output\REVOLT\newSoftSerial.o (symbol from plugin)
                                                  C:\Users\PRESTO~1\AppData\Local\Temp\cc3x6Wri.ltrans9.ltrans.o
                                                  C:\Users\PRESTO~1\AppData\Local\Temp\cc3x6Wri.ltrans6.ltrans.o
softSerialRxTimeBuffer                            output\REVOLT\newSoftSerial.o (symbol from plugin)
softSerialRxTimerBuffer                           C:\Users\PRESTO~1\AppData\Local\Temp\cc3x6Wri.ltrans11.ltrans.o
                                                  output\REVOLT\newSoftSerial.o (symbol from plugin)
                                                  C:\Users\PRESTO~1\AppData\Local\Temp\cc3x6Wri.ltrans9.ltrans.o
softSerialRxTimerBufferIdx                        C:\Users\PRESTO~1\AppData\Local\Temp\cc3x6Wri.ltrans11.ltrans.o
                                                  output\REVOLT\newSoftSerial.o (symbol from plugin)
                                                  C:\Users\PRESTO~1\AppData\Local\Temp\cc3x6Wri.ltrans9.ltrans.o
softSerialStatus                                  C:\Users\PRESTO~1\AppData\Local\Temp\cc3x6Wri.ltrans13.ltrans.o
                                                  output\REVOLT\softSerial.o (symbol from plugin)
                                                  C:\Users\PRESTO~1\AppData\Local\Temp\cc3x6Wri.ltrans12.ltrans.o
softSerialSwitchBuffer                            output\REVOLT\scheduler.o (symbol from plugin)
softSerialTimer                                   C:\Users\PRESTO~1\AppData\Local\Temp\cc3x6Wri.ltrans11.ltrans.o
                                                  output\REVOLT\newSoftSerial.o (symbol from plugin)
                                                  C:\Users\PRESTO~1\AppData\Local\Temp\cc3x6Wri.ltrans9.ltrans.o
                                                  C:\Users\PRESTO~1\AppData\Local\Temp\cc3x6Wri.ltrans6.ltrans.o
softserialCallbackFunctionArray                   output\REVOLT\softSerial.o (symbol from plugin)
spekPhase                                         output\REVOLT\rx.o (symbol from plugin)
spektrumChannelMask                               output\REVOLT\rx.o (symbol from plugin)
spektrumChannelShift                              output\REVOLT\rx.o (symbol from plugin)
spektrumTxBuffer                                  C:\Users\PRESTO~1\AppData\Local\Temp\cc3x6Wri.ltrans1.ltrans.o
                                                  output\REVOLT\spektrumTelemetry.o (symbol from plugin)
                                                  C:\Users\PRESTO~1\AppData\Local\Temp\cc3x6Wri.ltrans6.ltrans.o
spiHandles                                        C:\Users\PRESTO~1\AppData\Local\Temp\cc3x6Wri.ltrans13.ltrans.o
                                                  output\REVOLT\boarddef.o (symbol from plugin)
                                                  C:\Users\PRESTO~1\AppData\Local\Temp\cc3x6Wri.ltrans30.ltrans.o
                                                  C:\Users\PRESTO~1\AppData\Local\Temp\cc3x6Wri.ltrans29.ltrans.o
                                                  C:\Users\PRESTO~1\AppData\Local\Temp\cc3x6Wri.ltrans26.ltrans.o
                                                  C:\Users\PRESTO~1\AppData\Local\Temp\cc3x6Wri.ltrans25.ltrans.o
                                                  C:\Users\PRESTO~1\AppData\Local\Temp\cc3x6Wri.ltrans23.ltrans.o
                                                  C:\Users\PRESTO~1\AppData\Local\Temp\cc3x6Wri.ltrans20.ltrans.o
                                                  C:\Users\PRESTO~1\AppData\Local\Temp\cc3x6Wri.ltrans19.ltrans.o
                                                  C:\Users\PRESTO~1\AppData\Local\Temp\cc3x6Wri.ltrans18.ltrans.o
                                                  C:\Users\PRESTO~1\AppData\Local\Temp\cc3x6Wri.ltrans17.ltrans.o
                                                  C:\Users\PRESTO~1\AppData\Local\Temp\cc3x6Wri.ltrans12.ltrans.o
                                                  C:\Users\PRESTO~1\AppData\Local\Temp\cc3x6Wri.ltrans2.ltrans.o
                                                  C:\Users\PRESTO~1\AppData\Local\Temp\cc3x6Wri.ltrans1.ltrans.o
                                                  C:\Users\PRESTO~1\AppData\Local\Temp\cc3x6Wri.ltrans0.ltrans.o
                                                  output\REVOLT\invensense_bus_spi.o (symbol from plugin)
                                                  output\REVOLT\flash_chip.o (symbol from plugin)
                                                  output\REVOLT\maxOsd.o (symbol from plugin)
                                                  output\REVOLT\stm32f4xx_it.o (symbol from plugin)
spiInstance                                       C:\Users\PRESTO~1\AppData\Local\Temp\cc3x6Wri.ltrans23.ltrans.o
                                                  output\REVOLT\boarddef.o (symbol from plugin)
                                                  C:\Users\PRESTO~1\AppData\Local\Temp\cc3x6Wri.ltrans17.ltrans.o
                                                  C:\Users\PRESTO~1\AppData\Local\Temp\cc3x6Wri.ltrans3.ltrans.o
                                                  C:\Users\PRESTO~1\AppData\Local\Temp\cc3x6Wri.ltrans2.ltrans.o
                                                  output\REVOLT\invensense_bus_spi.o (symbol from plugin)
                                                  output\REVOLT\flash_chip.o (symbol from plugin)
                                                  output\REVOLT\maxOsd.o (symbol from plugin)
spis                                              output\REVOLT\boarddef.o (symbol from plugin)
sprintf                                           c:/dev/gcc-arm-none-eabi/bin/../lib/gcc/arm-none-eabi/6.3.1/../../../../arm-none-eabi/lib/thumb/v7e-m/fpv4-sp/hard\libc_nano.a(lib_a-sprintf.o)
                                                  C:\Users\PRESTO~1\AppData\Local\Temp\cc3x6Wri.ltrans31.ltrans.o
                                                  C:\Users\PRESTO~1\AppData\Local\Temp\cc3x6Wri.ltrans0.ltrans.o
sqrtf                                             c:/dev/gcc-arm-none-eabi/bin/../lib/gcc/arm-none-eabi/6.3.1/../../../../arm-none-eabi/lib/thumb/v7e-m/fpv4-sp/hard\libm.a(lib_a-wf_sqrt.o)
                                                  C:\Users\PRESTO~1\AppData\Local\Temp\cc3x6Wri.ltrans29.ltrans.o
                                                  C:\Users\PRESTO~1\AppData\Local\Temp\cc3x6Wri.ltrans1.ltrans.o
srand                                             c:/dev/gcc-arm-none-eabi/bin/../lib/gcc/arm-none-eabi/6.3.1/../../../../arm-none-eabi/lib/thumb/v7e-m/fpv4-sp/hard\libc_nano.a(lib_a-rand.o)
srxlCrc16                                         output\REVOLT\spektrumTelemetry.o (symbol from plugin)
stabilizerAttenuation                             output\REVOLT\mixer.o (symbol from plugin)
startBuzzArray                                    output\REVOLT\buzzer.o (symbol from plugin)
strcat                                            c:/dev/gcc-arm-none-eabi/bin/../lib/gcc/arm-none-eabi/6.3.1/../../../../arm-none-eabi/lib/thumb/v7e-m/fpv4-sp/hard\libc_nano.a(lib_a-strcat.o)
                                                  C:\Users\PRESTO~1\AppData\Local\Temp\cc3x6Wri.ltrans0.ltrans.o
strchr                                            c:/dev/gcc-arm-none-eabi/bin/../lib/gcc/arm-none-eabi/6.3.1/../../../../arm-none-eabi/lib/thumb/v7e-m/fpv4-sp/hard\libc_nano.a(lib_a-strchr.o)
                                                  C:\Users\PRESTO~1\AppData\Local\Temp\cc3x6Wri.ltrans31.ltrans.o
strcmp                                            c:/dev/gcc-arm-none-eabi/bin/../lib/gcc/arm-none-eabi/6.3.1/../../../../arm-none-eabi/lib/thumb/v7e-m/fpv4-sp/hard\libc_nano.a(lib_a-strcmp.o)
                                                  C:\Users\PRESTO~1\AppData\Local\Temp\cc3x6Wri.ltrans26.ltrans.o
                                                  C:\Users\PRESTO~1\AppData\Local\Temp\cc3x6Wri.ltrans22.ltrans.o
                                                  C:\Users\PRESTO~1\AppData\Local\Temp\cc3x6Wri.ltrans7.ltrans.o
                                                  C:\Users\PRESTO~1\AppData\Local\Temp\cc3x6Wri.ltrans1.ltrans.o
                                                  C:\Users\PRESTO~1\AppData\Local\Temp\cc3x6Wri.ltrans0.ltrans.o
                                                  c:/dev/gcc-arm-none-eabi/bin/../lib/gcc/arm-none-eabi/6.3.1/../../../../arm-none-eabi/lib/thumb/v7e-m/fpv4-sp/hard\libc_nano.a(lib_a-locale.o)
strcpy                                            c:/dev/gcc-arm-none-eabi/bin/../lib/gcc/arm-none-eabi/6.3.1/../../../../arm-none-eabi/lib/thumb/v7e-m/fpv4-sp/hard\libc_nano.a(lib_a-strcpy.o)
                                                  C:\Users\PRESTO~1\AppData\Local\Temp\cc3x6Wri.ltrans31.ltrans.o
                                                  C:\Users\PRESTO~1\AppData\Local\Temp\cc3x6Wri.ltrans22.ltrans.o
                                                  C:\Users\PRESTO~1\AppData\Local\Temp\cc3x6Wri.ltrans6.ltrans.o
                                                  C:\Users\PRESTO~1\AppData\Local\Temp\cc3x6Wri.ltrans0.ltrans.o
stringArray                                       output\REVOLT\spektrumTelemetry.o (symbol from plugin)
stringCompTable                                   output\REVOLT\config.o (symbol from plugin)
stringModes                                       C:\Users\PRESTO~1\AppData\Local\Temp\cc3x6Wri.ltrans13.ltrans.o
                                                  output\REVOLT\modes.o (symbol from plugin)
                                                  C:\Users\PRESTO~1\AppData\Local\Temp\cc3x6Wri.ltrans9.ltrans.o
                                                  C:\Users\PRESTO~1\AppData\Local\Temp\cc3x6Wri.ltrans1.ltrans.o
strlen                                            c:/dev/gcc-arm-none-eabi/bin/../lib/gcc/arm-none-eabi/6.3.1/../../../../arm-none-eabi/lib/thumb/v7e-m/fpv4-sp/hard\libc_nano.a(lib_a-strlen.o)
                                                  C:\Users\PRESTO~1\AppData\Local\Temp\cc3x6Wri.ltrans31.ltrans.o
                                                  C:\Users\PRESTO~1\AppData\Local\Temp\cc3x6Wri.ltrans20.ltrans.o
                                                  C:\Users\PRESTO~1\AppData\Local\Temp\cc3x6Wri.ltrans13.ltrans.o
                                                  C:\Users\PRESTO~1\AppData\Local\Temp\cc3x6Wri.ltrans9.ltrans.o
                                                  C:\Users\PRESTO~1\AppData\Local\Temp\cc3x6Wri.ltrans7.ltrans.o
                                                  C:\Users\PRESTO~1\AppData\Local\Temp\cc3x6Wri.ltrans4.ltrans.o
                                                  C:\Users\PRESTO~1\AppData\Local\Temp\cc3x6Wri.ltrans1.ltrans.o
                                                  C:\Users\PRESTO~1\AppData\Local\Temp\cc3x6Wri.ltrans0.ltrans.o
                                                  c:/dev/gcc-arm-none-eabi/bin/../lib/gcc/arm-none-eabi/6.3.1/../../../../arm-none-eabi/lib/thumb/v7e-m/fpv4-sp/hard\libc_nano.a(lib_a-gdtoa-gethex.o)
                                                  c:/dev/gcc-arm-none-eabi/bin/../lib/gcc/arm-none-eabi/6.3.1/../../../../arm-none-eabi/lib/thumb/v7e-m/fpv4-sp/hard\libc_nano.a(lib_a-strtod.o)
strncasecmp                                       c:/dev/gcc-arm-none-eabi/bin/../lib/gcc/arm-none-eabi/6.3.1/../../../../arm-none-eabi/lib/thumb/v7e-m/fpv4-sp/hard\libc_nano.a(lib_a-strncasecmp.o)
                                                  C:\Users\PRESTO~1\AppData\Local\Temp\cc3x6Wri.ltrans7.ltrans.o
strncmp                                           c:/dev/gcc-arm-none-eabi/bin/../lib/gcc/arm-none-eabi/6.3.1/../../../../arm-none-eabi/lib/thumb/v7e-m/fpv4-sp/hard\libc_nano.a(lib_a-strncmp.o)
                                                  C:\Users\PRESTO~1\AppData\Local\Temp\cc3x6Wri.ltrans16.ltrans.o
                                                  C:\Users\PRESTO~1\AppData\Local\Temp\cc3x6Wri.ltrans7.ltrans.o
                                                  C:\Users\PRESTO~1\AppData\Local\Temp\cc3x6Wri.ltrans1.ltrans.o
                                                  c:/dev/gcc-arm-none-eabi/bin/../lib/gcc/arm-none-eabi/6.3.1/../../../../arm-none-eabi/lib/thumb/v7e-m/fpv4-sp/hard\libc_nano.a(lib_a-gdtoa-gethex.o)
                                                  c:/dev/gcc-arm-none-eabi/bin/../lib/gcc/arm-none-eabi/6.3.1/../../../../arm-none-eabi/lib/thumb/v7e-m/fpv4-sp/hard\libc_nano.a(lib_a-strtod.o)
strncpy                                           c:/dev/gcc-arm-none-eabi/bin/../lib/gcc/arm-none-eabi/6.3.1/../../../../arm-none-eabi/lib/thumb/v7e-m/fpv4-sp/hard\libc_nano.a(lib_a-strncpy.o)
                                                  C:\Users\PRESTO~1\AppData\Local\Temp\cc3x6Wri.ltrans1.ltrans.o
                                                  C:\Users\PRESTO~1\AppData\Local\Temp\cc3x6Wri.ltrans0.ltrans.o
strtod                                            c:/dev/gcc-arm-none-eabi/bin/../lib/gcc/arm-none-eabi/6.3.1/../../../../arm-none-eabi/lib/thumb/v7e-m/fpv4-sp/hard\libc_nano.a(lib_a-strtod.o)
                                                  c:/dev/gcc-arm-none-eabi/bin/../lib/gcc/arm-none-eabi/6.3.1/../../../../arm-none-eabi/lib/thumb/v7e-m/fpv4-sp/hard\libc_nano.a(lib_a-atof.o)
strtod_l                                          c:/dev/gcc-arm-none-eabi/bin/../lib/gcc/arm-none-eabi/6.3.1/../../../../arm-none-eabi/lib/thumb/v7e-m/fpv4-sp/hard\libc_nano.a(lib_a-strtod.o)
strtof                                            c:/dev/gcc-arm-none-eabi/bin/../lib/gcc/arm-none-eabi/6.3.1/../../../../arm-none-eabi/lib/thumb/v7e-m/fpv4-sp/hard\libc_nano.a(lib_a-strtod.o)
strtof_l                                          c:/dev/gcc-arm-none-eabi/bin/../lib/gcc/arm-none-eabi/6.3.1/../../../../arm-none-eabi/lib/thumb/v7e-m/fpv4-sp/hard\libc_nano.a(lib_a-strtod.o)
strtol                                            c:/dev/gcc-arm-none-eabi/bin/../lib/gcc/arm-none-eabi/6.3.1/../../../../arm-none-eabi/lib/thumb/v7e-m/fpv4-sp/hard\libc_nano.a(lib_a-strtol.o)
                                                  c:/dev/gcc-arm-none-eabi/bin/../lib/gcc/arm-none-eabi/6.3.1/../../../../arm-none-eabi/lib/thumb/v7e-m/fpv4-sp/hard\libc_nano.a(lib_a-atoi.o)
strtol_l                                          c:/dev/gcc-arm-none-eabi/bin/../lib/gcc/arm-none-eabi/6.3.1/../../../../arm-none-eabi/lib/thumb/v7e-m/fpv4-sp/hard\libc_nano.a(lib_a-strtol.o)
switchBuzzArray                                   output\REVOLT\buzzer.o (symbol from plugin)
systemUsTicks                                     C:\Users\PRESTO~1\AppData\Local\Temp\cc3x6Wri.ltrans11.ltrans.o
                                                  output\REVOLT\general_functions.o (symbol from plugin)
                                                  C:\Users\PRESTO~1\AppData\Local\Temp\cc3x6Wri.ltrans25.ltrans.o
                                                  C:\Users\PRESTO~1\AppData\Local\Temp\cc3x6Wri.ltrans16.ltrans.o
                                                  C:\Users\PRESTO~1\AppData\Local\Temp\cc3x6Wri.ltrans14.ltrans.o
                                                  C:\Users\PRESTO~1\AppData\Local\Temp\cc3x6Wri.ltrans13.ltrans.o
                                                  C:\Users\PRESTO~1\AppData\Local\Temp\cc3x6Wri.ltrans12.ltrans.o
                                                  C:\Users\PRESTO~1\AppData\Local\Temp\cc3x6Wri.ltrans9.ltrans.o
                                                  C:\Users\PRESTO~1\AppData\Local\Temp\cc3x6Wri.ltrans3.ltrans.o
                                                  C:\Users\PRESTO~1\AppData\Local\Temp\cc3x6Wri.ltrans1.ltrans.o
                                                  C:\Users\PRESTO~1\AppData\Local\Temp\cc3x6Wri.ltrans0.ltrans.o
                                                  output\REVOLT\stm32f4.o (symbol from plugin)
tInBuffer                                         output\REVOLT\scheduler.o (symbol from plugin)
tOutBuffer                                        C:\Users\PRESTO~1\AppData\Local\Temp\cc3x6Wri.ltrans1.ltrans.o
                                                  output\REVOLT\scheduler.o (symbol from plugin)
                                                  C:\Users\PRESTO~1\AppData\Local\Temp\cc3x6Wri.ltrans12.ltrans.o
                                                  C:\Users\PRESTO~1\AppData\Local\Temp\cc3x6Wri.ltrans3.ltrans.o
                                                  output\REVOLT\usbd_hid.o (symbol from plugin)
taskDdsActuators                                  C:\Users\PRESTO~1\AppData\Local\Temp\cc3x6Wri.ltrans1.ltrans.o
                                                  output\REVOLT\scheduler.o (symbol from plugin)
                                                  C:\Users\PRESTO~1\AppData\Local\Temp\cc3x6Wri.ltrans3.ltrans.o
                                                  C:\Users\PRESTO~1\AppData\Local\Temp\cc3x6Wri.ltrans2.ltrans.o
                                                  output\REVOLT\config.o (symbol from plugin)
taskDshotActuators                                C:\Users\PRESTO~1\AppData\Local\Temp\cc3x6Wri.ltrans1.ltrans.o
                                                  output\REVOLT\scheduler.o (symbol from plugin)
                                                  C:\Users\PRESTO~1\AppData\Local\Temp\cc3x6Wri.ltrans3.ltrans.o
                                                  C:\Users\PRESTO~1\AppData\Local\Temp\cc3x6Wri.ltrans2.ltrans.o
                                                  C:\Users\PRESTO~1\AppData\Local\Temp\cc3x6Wri.ltrans0.ltrans.o
                                                  output\REVOLT\config.o (symbol from plugin)
taskIdleActuators                                 C:\Users\PRESTO~1\AppData\Local\Temp\cc3x6Wri.ltrans1.ltrans.o
                                                  output\REVOLT\scheduler.o (symbol from plugin)
                                                  C:\Users\PRESTO~1\AppData\Local\Temp\cc3x6Wri.ltrans3.ltrans.o
                                                  C:\Users\PRESTO~1\AppData\Local\Temp\cc3x6Wri.ltrans2.ltrans.o
                                                  C:\Users\PRESTO~1\AppData\Local\Temp\cc3x6Wri.ltrans0.ltrans.o
                                                  output\REVOLT\config.o (symbol from plugin)
telemEnabled                                      C:\Users\PRESTO~1\AppData\Local\Temp\cc3x6Wri.ltrans1.ltrans.o
                                                  output\REVOLT\telemetry.o (symbol from plugin)
                                                  C:\Users\PRESTO~1\AppData\Local\Temp\cc3x6Wri.ltrans26.ltrans.o
                                                  C:\Users\PRESTO~1\AppData\Local\Temp\cc3x6Wri.ltrans15.ltrans.o
                                                  C:\Users\PRESTO~1\AppData\Local\Temp\cc3x6Wri.ltrans6.ltrans.o
                                                  C:\Users\PRESTO~1\AppData\Local\Temp\cc3x6Wri.ltrans3.ltrans.o
                                                  output\REVOLT\spektrumTelemetry.o (symbol from plugin)
                                                  output\REVOLT\rfosdTelemetry.o (symbol from plugin)
                                                  output\REVOLT\mspTelemetry.o (symbol from plugin)
                                                  output\REVOLT\crossfire.o (symbol from plugin)
                                                  output\REVOLT\wizard.o (symbol from plugin)
telemetry                                         C:\Users\PRESTO~1\AppData\Local\Temp\cc3x6Wri.ltrans6.ltrans.o
                                                  output\REVOLT\spektrumTelemetry.o (symbol from plugin)
                                                  C:\Users\PRESTO~1\AppData\Local\Temp\cc3x6Wri.ltrans2.ltrans.o
telemetryState                                    output\REVOLT\spektrumTelemetry.o (symbol from plugin)
telemtryRxBuffer                                  C:\Users\PRESTO~1\AppData\Local\Temp\cc3x6Wri.ltrans8.ltrans.o
                                                  output\REVOLT\sPortTelemetry.o (symbol from plugin)
                                                  C:\Users\PRESTO~1\AppData\Local\Temp\cc3x6Wri.ltrans3.ltrans.o
                                                  output\REVOLT\serial.o (symbol from plugin)
telemtryRxBufferIdx                               output\REVOLT\sPortTelemetry.o (symbol from plugin)
telemtryRxTimerBuffer                             C:\Users\PRESTO~1\AppData\Local\Temp\cc3x6Wri.ltrans14.ltrans.o
                                                  output\REVOLT\sPortTelemetry.o (symbol from plugin)
                                                  C:\Users\PRESTO~1\AppData\Local\Temp\cc3x6Wri.ltrans3.ltrans.o
telemtryRxTimerBufferIdx                          C:\Users\PRESTO~1\AppData\Local\Temp\cc3x6Wri.ltrans14.ltrans.o
                                                  output\REVOLT\sPortTelemetry.o (symbol from plugin)
                                                  C:\Users\PRESTO~1\AppData\Local\Temp\cc3x6Wri.ltrans3.ltrans.o
tempBuffer                                        C:\Users\PRESTO~1\AppData\Local\Temp\cc3x6Wri.ltrans27.ltrans.o
                                                  output\REVOLT\dmaShenanigans.o (symbol from plugin)
                                                  C:\Users\PRESTO~1\AppData\Local\Temp\cc3x6Wri.ltrans22.ltrans.o
                                                  C:\Users\PRESTO~1\AppData\Local\Temp\cc3x6Wri.ltrans13.ltrans.o
                                                  C:\Users\PRESTO~1\AppData\Local\Temp\cc3x6Wri.ltrans3.ltrans.o
tempRc                                            output\REVOLT\wizard.o (symbol from plugin)
textMenuUpdate                                    output\REVOLT\spektrumTelemetry.o (symbol from plugin)
threeDeeMode                                      C:\Users\PRESTO~1\AppData\Local\Temp\cc3x6Wri.ltrans29.ltrans.o
                                                  output\REVOLT\mixer.o (symbol from plugin)
                                                  C:\Users\PRESTO~1\AppData\Local\Temp\cc3x6Wri.ltrans26.ltrans.o
                                                  C:\Users\PRESTO~1\AppData\Local\Temp\cc3x6Wri.ltrans25.ltrans.o
                                                  C:\Users\PRESTO~1\AppData\Local\Temp\cc3x6Wri.ltrans24.ltrans.o
                                                  C:\Users\PRESTO~1\AppData\Local\Temp\cc3x6Wri.ltrans2.ltrans.o
                                                  output\REVOLT\rx.o (symbol from plugin)
                                                  output\REVOLT\actuator_output.o (symbol from plugin)
throttleIsSafe                                    C:\Users\PRESTO~1\AppData\Local\Temp\cc3x6Wri.ltrans25.ltrans.o
                                                  output\REVOLT\rx.o (symbol from plugin)
                                                  C:\Users\PRESTO~1\AppData\Local\Temp\cc3x6Wri.ltrans3.ltrans.o
throttleLookup                                    C:\Users\PRESTO~1\AppData\Local\Temp\cc3x6Wri.ltrans1.ltrans.o
                                                  output\REVOLT\mixer.o (symbol from plugin)
                                                  C:\Users\PRESTO~1\AppData\Local\Temp\cc3x6Wri.ltrans25.ltrans.o
                                                  C:\Users\PRESTO~1\AppData\Local\Temp\cc3x6Wri.ltrans2.ltrans.o
                                                  output\REVOLT\rx.o (symbol from plugin)
                                                  output\REVOLT\config.o (symbol from plugin)
throttleLookupKd                                  C:\Users\PRESTO~1\AppData\Local\Temp\cc3x6Wri.ltrans4.ltrans.o
                                                  output\REVOLT\mixer.o (symbol from plugin)
                                                  C:\Users\PRESTO~1\AppData\Local\Temp\cc3x6Wri.ltrans2.ltrans.o
throttleLookupKi                                  C:\Users\PRESTO~1\AppData\Local\Temp\cc3x6Wri.ltrans4.ltrans.o
                                                  output\REVOLT\mixer.o (symbol from plugin)
                                                  C:\Users\PRESTO~1\AppData\Local\Temp\cc3x6Wri.ltrans2.ltrans.o
throttleLookupKp                                  C:\Users\PRESTO~1\AppData\Local\Temp\cc3x6Wri.ltrans1.ltrans.o
                                                  output\REVOLT\mixer.o (symbol from plugin)
                                                  C:\Users\PRESTO~1\AppData\Local\Temp\cc3x6Wri.ltrans4.ltrans.o
                                                  C:\Users\PRESTO~1\AppData\Local\Temp\cc3x6Wri.ltrans2.ltrans.o
                                                  output\REVOLT\config.o (symbol from plugin)
throttleVelocity                                  C:\Users\PRESTO~1\AppData\Local\Temp\cc3x6Wri.ltrans4.ltrans.o
                                                  output\REVOLT\rx.o (symbol from plugin)
                                                  C:\Users\PRESTO~1\AppData\Local\Temp\cc3x6Wri.ltrans2.ltrans.o
                                                  output\REVOLT\pid.o (symbol from plugin)
timeInBuffer                                      C:\Users\PRESTO~1\AppData\Local\Temp\cc3x6Wri.ltrans13.ltrans.o
                                                  output\REVOLT\softSerial.o (symbol from plugin)
                                                  C:\Users\PRESTO~1\AppData\Local\Temp\cc3x6Wri.ltrans12.ltrans.o
timeInBufferIdx                                   C:\Users\PRESTO~1\AppData\Local\Temp\cc3x6Wri.ltrans13.ltrans.o
                                                  output\REVOLT\softSerial.o (symbol from plugin)
                                                  C:\Users\PRESTO~1\AppData\Local\Temp\cc3x6Wri.ltrans12.ltrans.o
timeSinceSelfLevelActivated                       C:\Users\PRESTO~1\AppData\Local\Temp\cc3x6Wri.ltrans4.ltrans.o
                                                  output\REVOLT\flight.o (symbol from plugin)
                                                  C:\Users\PRESTO~1\AppData\Local\Temp\cc3x6Wri.ltrans2.ltrans.o
                                                  C:\Users\PRESTO~1\AppData\Local\Temp\cc3x6Wri.ltrans0.ltrans.o
timers                                            C:\Users\PRESTO~1\AppData\Local\Temp\cc3x6Wri.ltrans11.ltrans.o
                                                  output\REVOLT\boarddef.o (symbol from plugin)
                                                  C:\Users\PRESTO~1\AppData\Local\Temp\cc3x6Wri.ltrans24.ltrans.o
                                                  C:\Users\PRESTO~1\AppData\Local\Temp\cc3x6Wri.ltrans16.ltrans.o
                                                  C:\Users\PRESTO~1\AppData\Local\Temp\cc3x6Wri.ltrans3.ltrans.o
                                                  output\REVOLT\spm_laptimer.o (symbol from plugin)
                                                  output\REVOLT\actuator_output.o (symbol from plugin)
                                                  output\REVOLT\dmaShenanigans.o (symbol from plugin)
                                                  output\REVOLT\transponder.o (symbol from plugin)
                                                  output\REVOLT\scheduler.o (symbol from plugin)
                                                  output\REVOLT\newSoftSerial.o (symbol from plugin)
trampInfo                                         C:\Users\PRESTO~1\AppData\Local\Temp\cc3x6Wri.ltrans10.ltrans.o
                                                  output\REVOLT\trampTelemetry.o (symbol from plugin)
                                                  C:\Users\PRESTO~1\AppData\Local\Temp\cc3x6Wri.ltrans14.ltrans.o
trampIoBuffer.lto_priv.231                        C:\Users\PRESTO~1\AppData\Local\Temp\cc3x6Wri.ltrans10.ltrans.o
                                                  C:\Users\PRESTO~1\AppData\Local\Temp\cc3x6Wri.ltrans14.ltrans.o
transmitDataBuffer                                output\REVOLT\sPortTelemetry.o (symbol from plugin)
transmitDataBufferIdx                             output\REVOLT\sPortTelemetry.o (symbol from plugin)
transmitDataBufferSent                            output\REVOLT\sPortTelemetry.o (symbol from plugin)
trueCurvedThrottle0_1                             C:\Users\PRESTO~1\AppData\Local\Temp\cc3x6Wri.ltrans4.ltrans.o
                                                  output\REVOLT\rx.o (symbol from plugin)
                                                  C:\Users\PRESTO~1\AppData\Local\Temp\cc3x6Wri.ltrans25.ltrans.o
trueRcCommandF                                    C:\Users\PRESTO~1\AppData\Local\Temp\cc3x6Wri.ltrans1.ltrans.o
                                                  output\REVOLT\rx.o (symbol from plugin)
                                                  C:\Users\PRESTO~1\AppData\Local\Temp\cc3x6Wri.ltrans26.ltrans.o
                                                  C:\Users\PRESTO~1\AppData\Local\Temp\cc3x6Wri.ltrans25.ltrans.o
                                                  C:\Users\PRESTO~1\AppData\Local\Temp\cc3x6Wri.ltrans22.ltrans.o
                                                  C:\Users\PRESTO~1\AppData\Local\Temp\cc3x6Wri.ltrans9.ltrans.o
                                                  C:\Users\PRESTO~1\AppData\Local\Temp\cc3x6Wri.ltrans6.ltrans.o
                                                  C:\Users\PRESTO~1\AppData\Local\Temp\cc3x6Wri.ltrans4.ltrans.o
                                                  C:\Users\PRESTO~1\AppData\Local\Temp\cc3x6Wri.ltrans2.ltrans.o
                                                  output\REVOLT\sPortTelemetry.o (symbol from plugin)
                                                  output\REVOLT\spektrumTelemetry.o (symbol from plugin)
                                                  output\REVOLT\wizard.o (symbol from plugin)
                                                  output\REVOLT\modes.o (symbol from plugin)
                                                  output\REVOLT\flight.o (symbol from plugin)
                                                  output\REVOLT\config.o (symbol from plugin)
turnOnVtxNow                                      C:\Users\PRESTO~1\AppData\Local\Temp\cc3x6Wri.ltrans25.ltrans.o
                                                  output\REVOLT\scheduler.o (symbol from plugin)
                                                  C:\Users\PRESTO~1\AppData\Local\Temp\cc3x6Wri.ltrans3.ltrans.o
                                                  C:\Users\PRESTO~1\AppData\Local\Temp\cc3x6Wri.ltrans2.ltrans.o
                                                  output\REVOLT\rx.o (symbol from plugin)
twiddleCoef_1024                                  output\REVOLT\arm_common_tables.o (symbol from plugin)
twiddleCoef_1024_q15                              output\REVOLT\arm_common_tables.o (symbol from plugin)
twiddleCoef_1024_q31                              output\REVOLT\arm_common_tables.o (symbol from plugin)
twiddleCoef_128                                   output\REVOLT\arm_common_tables.o (symbol from plugin)
twiddleCoef_128_q15                               output\REVOLT\arm_common_tables.o (symbol from plugin)
twiddleCoef_128_q31                               output\REVOLT\arm_common_tables.o (symbol from plugin)
twiddleCoef_16                                    output\REVOLT\arm_common_tables.o (symbol from plugin)
twiddleCoef_16_q15                                output\REVOLT\arm_common_tables.o (symbol from plugin)
twiddleCoef_16_q31                                output\REVOLT\arm_common_tables.o (symbol from plugin)
twiddleCoef_2048                                  output\REVOLT\arm_common_tables.o (symbol from plugin)
twiddleCoef_2048_q15                              output\REVOLT\arm_common_tables.o (symbol from plugin)
twiddleCoef_2048_q31                              output\REVOLT\arm_common_tables.o (symbol from plugin)
twiddleCoef_256                                   output\REVOLT\arm_common_tables.o (symbol from plugin)
twiddleCoef_256_q15                               output\REVOLT\arm_common_tables.o (symbol from plugin)
twiddleCoef_256_q31                               output\REVOLT\arm_common_tables.o (symbol from plugin)
twiddleCoef_32                                    output\REVOLT\arm_common_tables.o (symbol from plugin)
twiddleCoef_32_q15                                output\REVOLT\arm_common_tables.o (symbol from plugin)
twiddleCoef_32_q31                                output\REVOLT\arm_common_tables.o (symbol from plugin)
twiddleCoef_4096                                  output\REVOLT\arm_common_tables.o (symbol from plugin)
twiddleCoef_4096_q15                              output\REVOLT\arm_common_tables.o (symbol from plugin)
twiddleCoef_4096_q31                              output\REVOLT\arm_common_tables.o (symbol from plugin)
twiddleCoef_512                                   output\REVOLT\arm_common_tables.o (symbol from plugin)
twiddleCoef_512_q15                               output\REVOLT\arm_common_tables.o (symbol from plugin)
twiddleCoef_512_q31                               output\REVOLT\arm_common_tables.o (symbol from plugin)
twiddleCoef_64                                    output\REVOLT\arm_common_tables.o (symbol from plugin)
twiddleCoef_64_q15                                output\REVOLT\arm_common_tables.o (symbol from plugin)
twiddleCoef_64_q31                                output\REVOLT\arm_common_tables.o (symbol from plugin)
twiddleCoef_rfft_1024                             output\REVOLT\arm_common_tables.o (symbol from plugin)
twiddleCoef_rfft_128                              output\REVOLT\arm_common_tables.o (symbol from plugin)
twiddleCoef_rfft_2048                             output\REVOLT\arm_common_tables.o (symbol from plugin)
twiddleCoef_rfft_256                              output\REVOLT\arm_common_tables.o (symbol from plugin)
twiddleCoef_rfft_32                               output\REVOLT\arm_common_tables.o (symbol from plugin)
twiddleCoef_rfft_4096                             output\REVOLT\arm_common_tables.o (symbol from plugin)
twiddleCoef_rfft_512                              output\REVOLT\arm_common_tables.o (symbol from plugin)
twiddleCoef_rfft_64                               output\REVOLT\arm_common_tables.o (symbol from plugin)
txBuffer                                          C:\Users\PRESTO~1\AppData\Local\Temp\cc3x6Wri.ltrans13.ltrans.o
                                                  output\REVOLT\maxOsd.o (symbol from plugin)
                                                  C:\Users\PRESTO~1\AppData\Local\Temp\cc3x6Wri.ltrans29.ltrans.o
                                                  C:\Users\PRESTO~1\AppData\Local\Temp\cc3x6Wri.ltrans20.ltrans.o
                                                  C:\Users\PRESTO~1\AppData\Local\Temp\cc3x6Wri.ltrans12.ltrans.o
txTransimissionReady                              output\REVOLT\spm_laptimer.o (symbol from plugin)
                                                  output\REVOLT\serial.o (symbol from plugin)
                                                  output\REVOLT\rx.o (symbol from plugin)
                                                  output\REVOLT\invensense_bus_spi.o (symbol from plugin)
                                                  output\REVOLT\invensense_mpu_icm_device.o (symbol from plugin)
                                                  output\REVOLT\flash_chip.o (symbol from plugin)
                                                  output\REVOLT\buzzer.o (symbol from plugin)
                                                  output\REVOLT\actuator_output.o (symbol from plugin)
                                                  output\REVOLT\dmaShenanigans.o (symbol from plugin)
                                                  output\REVOLT\softPwm.o (symbol from plugin)
                                                  output\REVOLT\leds.o (symbol from plugin)
                                                  output\REVOLT\esc_1wire.o (symbol from plugin)
                                                  output\REVOLT\maxOsd.o (symbol from plugin)
                                                  output\REVOLT\softSerial.o (symbol from plugin)
                                                  output\REVOLT\transponder.o (symbol from plugin)
                                                  output\REVOLT\adc.o (symbol from plugin)
                                                  output\REVOLT\usbd_desc.o (symbol from plugin)
                                                  output\REVOLT\gyro.o (symbol from plugin)
                                                  output\REVOLT\trampTelemetry.o (symbol from plugin)
                                                  output\REVOLT\telemetry.o (symbol from plugin)
                                                  output\REVOLT\sPortTelemetry.o (symbol from plugin)
                                                  output\REVOLT\spektrumTelemetry.o (symbol from plugin)
                                                  output\REVOLT\smartAudio.o (symbol from plugin)
                                                  output\REVOLT\rfVtx.o (symbol from plugin)
                                                  output\REVOLT\rfosdTelemetry.o (symbol from plugin)
                                                  output\REVOLT\mspTelemetry.o (symbol from plugin)
                                                  output\REVOLT\dshotTwoWay.o (symbol from plugin)
                                                  output\REVOLT\crossfire.o (symbol from plugin)
                                                  output\REVOLT\wizard.o (symbol from plugin)
                                                  output\REVOLT\watchdog.o (symbol from plugin)
                                                  output\REVOLT\scheduler.o (symbol from plugin)
                                                  output\REVOLT\rf_math.o (symbol from plugin)
                                                  output\REVOLT\rfbl_functions.o (symbol from plugin)
                                                  output\REVOLT\quopa.o (symbol from plugin)
                                                  output\REVOLT\pid.o (symbol from plugin)
                                                  output\REVOLT\newSoftSerial.o (symbol from plugin)
                                                  output\REVOLT\modes.o (symbol from plugin)
                                                  output\REVOLT\mixer.o (symbol from plugin)
                                                  output\REVOLT\main.o (symbol from plugin)
                                                  output\REVOLT\learning.o (symbol from plugin)
                                                  output\REVOLT\imu.o (symbol from plugin)
                                                  output\REVOLT\flight_logger.o (symbol from plugin)
                                                  output\REVOLT\flight.o (symbol from plugin)
                                                  output\REVOLT\filter.o (symbol from plugin)
                                                  output\REVOLT\exti.o (symbol from plugin)
                                                  output\REVOLT\debug.o (symbol from plugin)
                                                  output\REVOLT\config.o (symbol from plugin)
                                                  output\REVOLT\stm32f4xx_spi_msp.o (symbol from plugin)
                                                  output\REVOLT\stm32f4xx_it.o (symbol from plugin)
                                                  output\REVOLT\stm32f4xx_hal_tim_msp.o (symbol from plugin)
                                                  output\REVOLT\stm32f4.o (symbol from plugin)
                                                  output\REVOLT\flash.o (symbol from plugin)
                                                  output\REVOLT\boarddef.o (symbol from plugin)
                                                  output\REVOLT\general_functions.o (symbol from plugin)
uartHandles                                       C:\Users\PRESTO~1\AppData\Local\Temp\cc3x6Wri.ltrans1.ltrans.o
                                                  output\REVOLT\boarddef.o (symbol from plugin)
                                                  C:\Users\PRESTO~1\AppData\Local\Temp\cc3x6Wri.ltrans22.ltrans.o
                                                  C:\Users\PRESTO~1\AppData\Local\Temp\cc3x6Wri.ltrans21.ltrans.o
                                                  C:\Users\PRESTO~1\AppData\Local\Temp\cc3x6Wri.ltrans15.ltrans.o
                                                  C:\Users\PRESTO~1\AppData\Local\Temp\cc3x6Wri.ltrans10.ltrans.o
                                                  C:\Users\PRESTO~1\AppData\Local\Temp\cc3x6Wri.ltrans8.ltrans.o
                                                  C:\Users\PRESTO~1\AppData\Local\Temp\cc3x6Wri.ltrans6.ltrans.o
                                                  C:\Users\PRESTO~1\AppData\Local\Temp\cc3x6Wri.ltrans3.ltrans.o
                                                  output\REVOLT\serial.o (symbol from plugin)
                                                  output\REVOLT\trampTelemetry.o (symbol from plugin)
                                                  output\REVOLT\sPortTelemetry.o (symbol from plugin)
                                                  output\REVOLT\spektrumTelemetry.o (symbol from plugin)
                                                  output\REVOLT\rfVtx.o (symbol from plugin)
                                                  output\REVOLT\rfosdTelemetry.o (symbol from plugin)
                                                  output\REVOLT\mspTelemetry.o (symbol from plugin)
                                                  output\REVOLT\crossfire.o (symbol from plugin)
uhOhRecover                                       C:\Users\PRESTO~1\AppData\Local\Temp\cc3x6Wri.ltrans4.ltrans.o
                                                  output\REVOLT\pid.o (symbol from plugin)
                                                  C:\Users\PRESTO~1\AppData\Local\Temp\cc3x6Wri.ltrans2.ltrans.o
updateInterval.lto_priv.250                       C:\Users\PRESTO~1\AppData\Local\Temp\cc3x6Wri.ltrans16.ltrans.o
                                                  C:\Users\PRESTO~1\AppData\Local\Temp\cc3x6Wri.ltrans3.ltrans.o
upgradeRfbl                                       output\REVOLT\rfbl_functions.o (symbol from plugin)
usarts                                            C:\Users\PRESTO~1\AppData\Local\Temp\cc3x6Wri.ltrans21.ltrans.o
                                                  output\REVOLT\boarddef.o (symbol from plugin)
                                                  C:\Users\PRESTO~1\AppData\Local\Temp\cc3x6Wri.ltrans3.ltrans.o
                                                  output\REVOLT\serial.o (symbol from plugin)
usbStarted                                        C:\Users\PRESTO~1\AppData\Local\Temp\cc3x6Wri.ltrans1.ltrans.o
                                                  output\REVOLT\general_functions.o (symbol from plugin)
                                                  C:\Users\PRESTO~1\AppData\Local\Temp\cc3x6Wri.ltrans3.ltrans.o
usedEscProtocol                                   C:\Users\PRESTO~1\AppData\Local\Temp\cc3x6Wri.ltrans29.ltrans.o
                                                  output\REVOLT\actuator_output.o (symbol from plugin)
                                                  C:\Users\PRESTO~1\AppData\Local\Temp\cc3x6Wri.ltrans26.ltrans.o
                                                  C:\Users\PRESTO~1\AppData\Local\Temp\cc3x6Wri.ltrans24.ltrans.o
usedGa                                            C:\Users\PRESTO~1\AppData\Local\Temp\cc3x6Wri.ltrans4.ltrans.o
                                                  output\REVOLT\flight.o (symbol from plugin)
                                                  C:\Users\PRESTO~1\AppData\Local\Temp\cc3x6Wri.ltrans2.ltrans.o
usedSkunk                                         C:\Users\PRESTO~1\AppData\Local\Temp\cc3x6Wri.ltrans4.ltrans.o
                                                  output\REVOLT\flight.o (symbol from plugin)
                                                  C:\Users\PRESTO~1\AppData\Local\Temp\cc3x6Wri.ltrans2.ltrans.o
                                                  output\REVOLT\flight_logger.o (symbol from plugin)
utoa                                              c:/dev/gcc-arm-none-eabi/bin/../lib/gcc/arm-none-eabi/6.3.1/../../../../arm-none-eabi/lib/thumb/v7e-m/fpv4-sp/hard\libc_nano.a(lib_a-utoa.o)
uwTick                                            C:\Users\PRESTO~1\AppData\Local\Temp\cc3x6Wri.ltrans28.ltrans.o
                                                  output\REVOLT\stm32f4xx_hal.o (symbol from plugin)
                                                  C:\Users\PRESTO~1\AppData\Local\Temp\cc3x6Wri.ltrans29.ltrans.o
                                                  C:\Users\PRESTO~1\AppData\Local\Temp\cc3x6Wri.ltrans27.ltrans.o
                                                  C:\Users\PRESTO~1\AppData\Local\Temp\cc3x6Wri.ltrans25.ltrans.o
                                                  C:\Users\PRESTO~1\AppData\Local\Temp\cc3x6Wri.ltrans24.ltrans.o
                                                  C:\Users\PRESTO~1\AppData\Local\Temp\cc3x6Wri.ltrans23.ltrans.o
                                                  C:\Users\PRESTO~1\AppData\Local\Temp\cc3x6Wri.ltrans22.ltrans.o
                                                  C:\Users\PRESTO~1\AppData\Local\Temp\cc3x6Wri.ltrans20.ltrans.o
                                                  C:\Users\PRESTO~1\AppData\Local\Temp\cc3x6Wri.ltrans18.ltrans.o
                                                  C:\Users\PRESTO~1\AppData\Local\Temp\cc3x6Wri.ltrans16.ltrans.o
                                                  C:\Users\PRESTO~1\AppData\Local\Temp\cc3x6Wri.ltrans14.ltrans.o
                                                  C:\Users\PRESTO~1\AppData\Local\Temp\cc3x6Wri.ltrans13.ltrans.o
                                                  C:\Users\PRESTO~1\AppData\Local\Temp\cc3x6Wri.ltrans12.ltrans.o
                                                  C:\Users\PRESTO~1\AppData\Local\Temp\cc3x6Wri.ltrans11.ltrans.o
                                                  C:\Users\PRESTO~1\AppData\Local\Temp\cc3x6Wri.ltrans10.ltrans.o
                                                  C:\Users\PRESTO~1\AppData\Local\Temp\cc3x6Wri.ltrans9.ltrans.o
                                                  C:\Users\PRESTO~1\AppData\Local\Temp\cc3x6Wri.ltrans8.ltrans.o
                                                  C:\Users\PRESTO~1\AppData\Local\Temp\cc3x6Wri.ltrans7.ltrans.o
                                                  C:\Users\PRESTO~1\AppData\Local\Temp\cc3x6Wri.ltrans6.ltrans.o
                                                  C:\Users\PRESTO~1\AppData\Local\Temp\cc3x6Wri.ltrans5.ltrans.o
                                                  C:\Users\PRESTO~1\AppData\Local\Temp\cc3x6Wri.ltrans4.ltrans.o
                                                  C:\Users\PRESTO~1\AppData\Local\Temp\cc3x6Wri.ltrans3.ltrans.o
                                                  C:\Users\PRESTO~1\AppData\Local\Temp\cc3x6Wri.ltrans2.ltrans.o
                                                  C:\Users\PRESTO~1\AppData\Local\Temp\cc3x6Wri.ltrans1.ltrans.o
                                                  C:\Users\PRESTO~1\AppData\Local\Temp\cc3x6Wri.ltrans0.ltrans.o
valueTable                                        C:\Users\PRESTO~1\AppData\Local\Temp\cc3x6Wri.ltrans1.ltrans.o
                                                  output\REVOLT\config.o (symbol from plugin)
                                                  C:\Users\PRESTO~1\AppData\Local\Temp\cc3x6Wri.ltrans4.ltrans.o
                                                  C:\Users\PRESTO~1\AppData\Local\Temp\cc3x6Wri.ltrans3.ltrans.o
                                                  C:\Users\PRESTO~1\AppData\Local\Temp\cc3x6Wri.ltrans0.ltrans.o
verticalVector                                    C:\Users\PRESTO~1\AppData\Local\Temp\cc3x6Wri.ltrans19.ltrans.o
                                                  output\REVOLT\imu.o (symbol from plugin)
                                                  C:\Users\PRESTO~1\AppData\Local\Temp\cc3x6Wri.ltrans2.ltrans.o
veryFirstArm                                      C:\Users\PRESTO~1\AppData\Local\Temp\cc3x6Wri.ltrans25.ltrans.o
                                                  output\REVOLT\rx.o (symbol from plugin)
                                                  C:\Users\PRESTO~1\AppData\Local\Temp\cc3x6Wri.ltrans2.ltrans.o
voltageStorage                                    output\REVOLT\adc.o (symbol from plugin)
vtxBandChannelToFrequencyLookup.lto_priv.233      C:\Users\PRESTO~1\AppData\Local\Temp\cc3x6Wri.ltrans10.ltrans.o
                                                  C:\Users\PRESTO~1\AppData\Local\Temp\cc3x6Wri.ltrans22.ltrans.o
                                                  C:\Users\PRESTO~1\AppData\Local\Temp\cc3x6Wri.ltrans14.ltrans.o
                                                  C:\Users\PRESTO~1\AppData\Local\Temp\cc3x6Wri.ltrans8.ltrans.o
                                                  C:\Users\PRESTO~1\AppData\Local\Temp\cc3x6Wri.ltrans6.ltrans.o
vtxData                                           output\REVOLT\rx.o (symbol from plugin)
vtxOutPacket                                      output\REVOLT\rfVtx.o (symbol from plugin)
vtxRecord                                         C:\Users\PRESTO~1\AppData\Local\Temp\cc3x6Wri.ltrans1.ltrans.o
                                                  output\REVOLT\telemetry.o (symbol from plugin)
                                                  C:\Users\PRESTO~1\AppData\Local\Temp\cc3x6Wri.ltrans25.ltrans.o
                                                  C:\Users\PRESTO~1\AppData\Local\Temp\cc3x6Wri.ltrans22.ltrans.o
                                                  C:\Users\PRESTO~1\AppData\Local\Temp\cc3x6Wri.ltrans14.ltrans.o
                                                  C:\Users\PRESTO~1\AppData\Local\Temp\cc3x6Wri.ltrans10.ltrans.o
                                                  C:\Users\PRESTO~1\AppData\Local\Temp\cc3x6Wri.ltrans6.ltrans.o
                                                  C:\Users\PRESTO~1\AppData\Local\Temp\cc3x6Wri.ltrans3.ltrans.o
                                                  C:\Users\PRESTO~1\AppData\Local\Temp\cc3x6Wri.ltrans2.ltrans.o
                                                  C:\Users\PRESTO~1\AppData\Local\Temp\cc3x6Wri.ltrans0.ltrans.o
                                                  output\REVOLT\rx.o (symbol from plugin)
                                                  output\REVOLT\trampTelemetry.o (symbol from plugin)
                                                  output\REVOLT\sPortTelemetry.o (symbol from plugin)
                                                  output\REVOLT\smartAudio.o (symbol from plugin)
                                                  output\REVOLT\scheduler.o (symbol from plugin)
                                                  output\REVOLT\config.o (symbol from plugin)
vtxRequested                                      C:\Users\PRESTO~1\AppData\Local\Temp\cc3x6Wri.ltrans1.ltrans.o
                                                  output\REVOLT\telemetry.o (symbol from plugin)
                                                  C:\Users\PRESTO~1\AppData\Local\Temp\cc3x6Wri.ltrans22.ltrans.o
                                                  C:\Users\PRESTO~1\AppData\Local\Temp\cc3x6Wri.ltrans10.ltrans.o
                                                  C:\Users\PRESTO~1\AppData\Local\Temp\cc3x6Wri.ltrans8.ltrans.o
                                                  C:\Users\PRESTO~1\AppData\Local\Temp\cc3x6Wri.ltrans6.ltrans.o
                                                  C:\Users\PRESTO~1\AppData\Local\Temp\cc3x6Wri.ltrans3.ltrans.o
                                                  C:\Users\PRESTO~1\AppData\Local\Temp\cc3x6Wri.ltrans2.ltrans.o
                                                  output\REVOLT\rx.o (symbol from plugin)
                                                  output\REVOLT\trampTelemetry.o (symbol from plugin)
                                                  output\REVOLT\sPortTelemetry.o (symbol from plugin)
                                                  output\REVOLT\smartAudio.o (symbol from plugin)
                                                  output\REVOLT\scheduler.o (symbol from plugin)
                                                  output\REVOLT\config.o (symbol from plugin)
vtxStringCompTable                                C:\Users\PRESTO~1\AppData\Local\Temp\cc3x6Wri.ltrans1.ltrans.o
                                                  output\REVOLT\config.o (symbol from plugin)
                                                  C:\Users\PRESTO~1\AppData\Local\Temp\cc3x6Wri.ltrans0.ltrans.o
wizardStatus                                      C:\Users\PRESTO~1\AppData\Local\Temp\cc3x6Wri.ltrans1.ltrans.o
                                                  output\REVOLT\wizard.o (symbol from plugin)
                                                  C:\Users\PRESTO~1\AppData\Local\Temp\cc3x6Wri.ltrans26.ltrans.o
                                                  C:\Users\PRESTO~1\AppData\Local\Temp\cc3x6Wri.ltrans3.ltrans.o
                                                  output\REVOLT\scheduler.o (symbol from plugin)
ws2812LedRecord                                   C:\Users\PRESTO~1\AppData\Local\Temp\cc3x6Wri.ltrans24.ltrans.o
                                                  output\REVOLT\dmaShenanigans.o (symbol from plugin)
                                                  C:\Users\PRESTO~1\AppData\Local\Temp\cc3x6Wri.ltrans3.ltrans.o
                                                  output\REVOLT\leds.o (symbol from plugin)
ws2812_led                                        output\REVOLT\dmaShenanigans.o (symbol from plugin)
xbus                                              output\REVOLT\spm_laptimer.o (symbol from plugin)
                                                  output\REVOLT\serial.o (symbol from plugin)
                                                  output\REVOLT\rx.o (symbol from plugin)
                                                  output\REVOLT\invensense_bus_spi.o (symbol from plugin)
                                                  output\REVOLT\invensense_mpu_icm_device.o (symbol from plugin)
                                                  output\REVOLT\flash_chip.o (symbol from plugin)
                                                  output\REVOLT\buzzer.o (symbol from plugin)
                                                  output\REVOLT\actuator_output.o (symbol from plugin)
                                                  output\REVOLT\dmaShenanigans.o (symbol from plugin)
                                                  output\REVOLT\softPwm.o (symbol from plugin)
                                                  output\REVOLT\leds.o (symbol from plugin)
                                                  output\REVOLT\esc_1wire.o (symbol from plugin)
                                                  output\REVOLT\maxOsd.o (symbol from plugin)
                                                  output\REVOLT\softSerial.o (symbol from plugin)
                                                  output\REVOLT\transponder.o (symbol from plugin)
                                                  output\REVOLT\adc.o (symbol from plugin)
                                                  output\REVOLT\usbd_desc.o (symbol from plugin)
                                                  output\REVOLT\gyro.o (symbol from plugin)
                                                  output\REVOLT\trampTelemetry.o (symbol from plugin)
                                                  output\REVOLT\telemetry.o (symbol from plugin)
                                                  output\REVOLT\sPortTelemetry.o (symbol from plugin)
                                                  output\REVOLT\spektrumTelemetry.o (symbol from plugin)
                                                  output\REVOLT\smartAudio.o (symbol from plugin)
                                                  output\REVOLT\rfVtx.o (symbol from plugin)
                                                  output\REVOLT\rfosdTelemetry.o (symbol from plugin)
                                                  output\REVOLT\mspTelemetry.o (symbol from plugin)
                                                  output\REVOLT\dshotTwoWay.o (symbol from plugin)
                                                  output\REVOLT\crossfire.o (symbol from plugin)
                                                  output\REVOLT\wizard.o (symbol from plugin)
                                                  output\REVOLT\watchdog.o (symbol from plugin)
                                                  output\REVOLT\scheduler.o (symbol from plugin)
                                                  output\REVOLT\rf_math.o (symbol from plugin)
                                                  output\REVOLT\rfbl_functions.o (symbol from plugin)
                                                  output\REVOLT\quopa.o (symbol from plugin)
                                                  output\REVOLT\pid.o (symbol from plugin)
                                                  output\REVOLT\newSoftSerial.o (symbol from plugin)
                                                  output\REVOLT\modes.o (symbol from plugin)
                                                  output\REVOLT\mixer.o (symbol from plugin)
                                                  output\REVOLT\main.o (symbol from plugin)
                                                  output\REVOLT\learning.o (symbol from plugin)
                                                  output\REVOLT\imu.o (symbol from plugin)
                                                  output\REVOLT\flight_logger.o (symbol from plugin)
                                                  output\REVOLT\flight.o (symbol from plugin)
                                                  output\REVOLT\filter.o (symbol from plugin)
                                                  output\REVOLT\exti.o (symbol from plugin)
                                                  output\REVOLT\debug.o (symbol from plugin)
                                                  output\REVOLT\config.o (symbol from plugin)
                                                  output\REVOLT\stm32f4xx_spi_msp.o (symbol from plugin)
                                                  output\REVOLT\stm32f4xx_it.o (symbol from plugin)
                                                  output\REVOLT\stm32f4xx_hal_tim_msp.o (symbol from plugin)
                                                  output\REVOLT\stm32f4.o (symbol from plugin)
                                                  output\REVOLT\flash.o (symbol from plugin)
                                                  output\REVOLT\boarddef.o (symbol from plugin)
                                                  output\REVOLT\general_functions.o (symbol from plugin)
yawAttitude                                       C:\Users\PRESTO~1\AppData\Local\Temp\cc3x6Wri.ltrans1.ltrans.o
                                                  output\REVOLT\flight.o (symbol from plugin)
                                                  C:\Users\PRESTO~1\AppData\Local\Temp\cc3x6Wri.ltrans19.ltrans.o
                                                  C:\Users\PRESTO~1\AppData\Local\Temp\cc3x6Wri.ltrans15.ltrans.o
                                                  output\REVOLT\mspTelemetry.o (symbol from plugin)
                                                  output\REVOLT\crossfire.o (symbol from plugin)
                                                  output\REVOLT\imu.o (symbol from plugin)
                                                  output\REVOLT\config.o (symbol from plugin)
yawAttitudeError                                  output\REVOLT\flight.o (symbol from plugin)
yawAttitudeErrorKdelta                            output\REVOLT\flight.o (symbol from plugin)
yawAttitudeErrorKi                                output\REVOLT\flight.o (symbol from plugin)
zeroPulseWidth                                    output\REVOLT\dmaShenanigans.o (symbol from plugin)
